ARM GAS  C:\Users\86152\AppData\Local\Temp\ccIGvTB4.s 			page 1


   1              		.cpu cortex-m4
   2              		.arch armv7e-m
   3              		.fpu fpv4-sp-d16
   4              		.eabi_attribute 27, 1
   5              		.eabi_attribute 28, 1
   6              		.eabi_attribute 20, 1
   7              		.eabi_attribute 21, 1
   8              		.eabi_attribute 23, 3
   9              		.eabi_attribute 24, 1
  10              		.eabi_attribute 25, 1
  11              		.eabi_attribute 26, 1
  12              		.eabi_attribute 30, 1
  13              		.eabi_attribute 34, 1
  14              		.eabi_attribute 18, 4
  15              		.file	"ins_task.c"
  16              		.text
  17              	.Ltext0:
  18              		.cfi_sections	.debug_frame
  19              		.section	.text.IMU_Param_Correction,"ax",%progbits
  20              		.align	1
  21              		.syntax unified
  22              		.thumb
  23              		.thumb_func
  25              	IMU_Param_Correction:
  26              	.LVL0:
  27              	.LFB181:
  28              		.file 1 "Application/ins_task.c"
   1:Application/ins_task.c **** #include "ins_task.h"
   2:Application/ins_task.c **** #include "QuaternionAHRS.h"
   3:Application/ins_task.c **** #include "includes.h"
   4:Application/ins_task.c **** #include "motor_task.h"
   5:Application/ins_task.c **** #include "QuaternionEKF.h"
   6:Application/ins_task.c **** #include "dm_imu.h"
   7:Application/ins_task.c **** #include "tim.h"
   8:Application/ins_task.c **** 
   9:Application/ins_task.c **** INS_t INS;
  10:Application/ins_task.c **** QuaternionBuf_t QuaternionBuffer;
  11:Application/ins_task.c **** PID_t TempCtrl = {0};
  12:Application/ins_task.c **** 
  13:Application/ins_task.c **** const float gravity[3] = {0, 0, 9.81f};
  14:Application/ins_task.c **** const float xb[3] = {1, 0, 0};
  15:Application/ins_task.c **** const float yb[3] = {0, 1, 0};
  16:Application/ins_task.c **** const float zb[3] = {0, 0, 1};
  17:Application/ins_task.c **** 
  18:Application/ins_task.c **** uint32_t INS_DWT_Count = 0;
  19:Application/ins_task.c **** static float dt = 0, t = 0;
  20:Application/ins_task.c **** float RefTemp = 40;
  21:Application/ins_task.c **** 
  22:Application/ins_task.c **** static void IMU_Param_Correction(imu_cali_param_t *param, float gyro[3], float accel[3]);
  23:Application/ins_task.c **** static void get_INS_from_imu(INS_t *ins, float *accel, float *gyro);
  24:Application/ins_task.c **** 
  25:Application/ins_task.c **** void INS_Init(void)
  26:Application/ins_task.c **** {
  27:Application/ins_task.c ****     // gEstimateKF_Init(0.01, 1000);
  28:Application/ins_task.c ****     BMI088_Read(&BMI088);
  29:Application/ins_task.c **** 
  30:Application/ins_task.c ****     exo_controller.xzy_shoulder.dm_imu.send_reg = 0x01;
ARM GAS  C:\Users\86152\AppData\Local\Temp\ccIGvTB4.s 			page 2


  31:Application/ins_task.c ****     IMU_RequestData(&hcan2, 0x01, exo_controller.xzy_shoulder.dm_imu.send_reg);
  32:Application/ins_task.c **** 
  33:Application/ins_task.c ****     // exo_controller.xzy_shoulder.INS_shoulder.AccelLPF = 0.0085;
  34:Application/ins_task.c **** 
  35:Application/ins_task.c ****     exo_controller.xzy_shoulder.INS_shoulder.imu_cali_param.scale[X] = 1;
  36:Application/ins_task.c ****     exo_controller.xzy_shoulder.INS_shoulder.imu_cali_param.scale[Y] = 1;
  37:Application/ins_task.c ****     exo_controller.xzy_shoulder.INS_shoulder.imu_cali_param.scale[Z] = 1;
  38:Application/ins_task.c **** 
  39:Application/ins_task.c ****     exo_controller.xzy_shoulder.INS_shoulder.imu_cali_param.Yaw = 0;
  40:Application/ins_task.c ****     exo_controller.xzy_shoulder.INS_shoulder.imu_cali_param.Pitch = 0;
  41:Application/ins_task.c ****     exo_controller.xzy_shoulder.INS_shoulder.imu_cali_param.Roll = 0;
  42:Application/ins_task.c ****     exo_controller.xzy_shoulder.INS_shoulder.imu_cali_param.flag = 1;
  43:Application/ins_task.c **** 
  44:Application/ins_task.c ****     IMU_QuaternionEKF_Init(10, 0.001, 1000000 * 10, 0.9996 * 0 + 1, 0);
  45:Application/ins_task.c ****     // imu heat init
  46:Application/ins_task.c ****     PID_Init(&TempCtrl, 2000, 300, 0, 1000, 20, 0, 0, 0, 0, 0, 0, 0);
  47:Application/ins_task.c ****     HAL_TIM_PWM_Start(&htim10, TIM_CHANNEL_1);
  48:Application/ins_task.c **** }
  49:Application/ins_task.c **** 
  50:Application/ins_task.c **** void INS_Task(void)
  51:Application/ins_task.c **** {
  52:Application/ins_task.c ****     static uint32_t count = 0;
  53:Application/ins_task.c ****     const float gravity[3] = {0, 0, 9.81f};
  54:Application/ins_task.c ****     dt = DWT_GetDeltaT(&INS_DWT_Count);
  55:Application/ins_task.c ****     t += dt;
  56:Application/ins_task.c **** 
  57:Application/ins_task.c ****     // ins update
  58:Application/ins_task.c ****     if ((count % 1) == 0)
  59:Application/ins_task.c ****     {
  60:Application/ins_task.c ****         BMI088_Read(&BMI088);
  61:Application/ins_task.c ****         // INS.Accel[X] = -BMI088.Accel[Y];
  62:Application/ins_task.c ****         // INS.Accel[Y] = -BMI088.Accel[Z];
  63:Application/ins_task.c ****         // INS.Accel[Z] = BMI088.Accel[X];
  64:Application/ins_task.c ****         // INS.Gyro[X] = -BMI088.Gyro[Y];
  65:Application/ins_task.c ****         // INS.Gyro[Y] = -BMI088.Gyro[Z];
  66:Application/ins_task.c ****         // INS.Gyro[Z] = BMI088.Gyro[X];
  67:Application/ins_task.c **** 
  68:Application/ins_task.c ****         if (exo_controller.xzy_shoulder.dm_imu.send_reg == 0x01)
  69:Application/ins_task.c ****             exo_controller.xzy_shoulder.dm_imu.send_reg = 0x02; // 0x01:accel, 0x02:gyro, 0x03:eule
  70:Application/ins_task.c ****         else if (exo_controller.xzy_shoulder.dm_imu.send_reg == 0x02)
  71:Application/ins_task.c ****             exo_controller.xzy_shoulder.dm_imu.send_reg = 0x01;
  72:Application/ins_task.c ****         IMU_RequestData(&hcan2, 0x01, exo_controller.xzy_shoulder.dm_imu.send_reg);
  73:Application/ins_task.c ****         get_INS_from_imu(&exo_controller.xzy_shoulder.INS_shoulder,
  74:Application/ins_task.c ****                          exo_controller.xzy_shoulder.dm_imu.accel, exo_controller.xzy_shoulder.dm_i
  75:Application/ins_task.c ****     }
  76:Application/ins_task.c **** 
  77:Application/ins_task.c ****     // temperature control
  78:Application/ins_task.c ****     if ((count % 2) == 0)
  79:Application/ins_task.c ****     {
  80:Application/ins_task.c ****         // 500hz
  81:Application/ins_task.c ****         IMU_Temperature_Ctrl();
  82:Application/ins_task.c ****         if (GlobalDebugMode == IMU_HEAT_DEBUG)
  83:Application/ins_task.c ****             Serial_Debug(&huart1, 1, RefTemp, BMI088.Temperature, TempCtrl.Output / 1000.0f, TempCt
  84:Application/ins_task.c ****     }
  85:Application/ins_task.c **** 
  86:Application/ins_task.c ****     if ((count % 1000) == 0)
  87:Application/ins_task.c ****     {
ARM GAS  C:\Users\86152\AppData\Local\Temp\ccIGvTB4.s 			page 3


  88:Application/ins_task.c ****         // 200hz
  89:Application/ins_task.c ****     }
  90:Application/ins_task.c **** 
  91:Application/ins_task.c ****     count++;
  92:Application/ins_task.c **** }
  93:Application/ins_task.c **** 
  94:Application/ins_task.c **** static void get_INS_from_imu(INS_t *ins, float *accel, float *gyro)
  95:Application/ins_task.c **** {
  96:Application/ins_task.c ****     ins->Accel[X] = -accel[Y];
  97:Application/ins_task.c ****     ins->Accel[Y] = -accel[Z];
  98:Application/ins_task.c ****     ins->Accel[Z] = accel[X];
  99:Application/ins_task.c ****     ins->Gyro[X] = -gyro[Y];
 100:Application/ins_task.c ****     ins->Gyro[Y] = -gyro[Z];
 101:Application/ins_task.c ****     ins->Gyro[Z] = gyro[X];
 102:Application/ins_task.c **** 
 103:Application/ins_task.c ****     IMU_Param_Correction(&ins->imu_cali_param, ins->Gyro, ins->Accel);
 104:Application/ins_task.c ****     ins->atanxz = -atan2f(ins->Accel[X], ins->Accel[Z]) * 180 / PI;
 105:Application/ins_task.c ****     ins->atanyz = atan2f(ins->Accel[Y], ins->Accel[Z]) * 180 / PI;
 106:Application/ins_task.c **** 
 107:Application/ins_task.c ****     // Quaternion_AHRS_UpdateIMU(ins->Gyro[X], ins->Gyro[Y], ins->Gyro[Z], ins->Accel[X], ins->Acce
 108:Application/ins_task.c ****     IMU_QuaternionEKF_Update(ins->Gyro[X], ins->Gyro[Y], ins->Gyro[Z], ins->Accel[X], ins->Accel[Y]
 109:Application/ins_task.c **** 
 110:Application/ins_task.c ****     float *q = QEKF_INS.q;
 111:Application/ins_task.c ****     ins->xzy_order_angle[1] = -asinf(2 * (q[1] * q[2] - q[0] * q[3])) * 57.295779513f;
 112:Application/ins_task.c ****     ins->xzy_order_angle[2] = atan2f(2.0f * (q[1] * q[3] + q[0] * q[2]), 1 - 2.0f * (q[2] * q[2] + 
 113:Application/ins_task.c ****     ins->xzy_order_angle[0] = atan2f(2.0f * (q[0] * q[1] + q[2] * q[3]), 1 - 2.0f * (q[1] * q[1] - 
 114:Application/ins_task.c **** 
 115:Application/ins_task.c ****     BodyFrameToEarthFrame(xb, ins->xn, ins->q);
 116:Application/ins_task.c ****     BodyFrameToEarthFrame(yb, ins->yn, ins->q);
 117:Application/ins_task.c ****     BodyFrameToEarthFrame(zb, ins->zn, ins->q);
 118:Application/ins_task.c **** 
 119:Application/ins_task.c ****     float gravity_b[3];
 120:Application/ins_task.c ****     EarthFrameToBodyFrame(gravity, gravity_b, INS.q);
 121:Application/ins_task.c ****     for (uint8_t i = 0; i < 3; i++)
 122:Application/ins_task.c ****         ins->MotionAccel_b[i] = (ins->Accel[i] - gravity_b[i]) * dt / (ins->AccelLPF + dt) + ins->M
 123:Application/ins_task.c ****     BodyFrameToEarthFrame(ins->MotionAccel_b, ins->MotionAccel_n, ins->q);
 124:Application/ins_task.c **** 
 125:Application/ins_task.c ****     memcpy(ins->Gyro, QEKF_INS.Gyro, sizeof(QEKF_INS.Gyro));
 126:Application/ins_task.c ****     memcpy(ins->Accel, QEKF_INS.Accel, sizeof(QEKF_INS.Accel));
 127:Application/ins_task.c ****     memcpy(ins->q, QEKF_INS.q, sizeof(QEKF_INS.q));
 128:Application/ins_task.c ****     ins->Yaw = QEKF_INS.Yaw;
 129:Application/ins_task.c ****     ins->Pitch = QEKF_INS.Pitch;
 130:Application/ins_task.c ****     // ins->Roll = QEKF_INS.Roll;
 131:Application/ins_task.c ****     ins->YawTotalAngle = QEKF_INS.YawTotalAngle;
 132:Application/ins_task.c **** 
 133:Application/ins_task.c ****     InsertQuaternionFrame(&QuaternionBuffer, ins->q, ins->MotionAccel_n, INS_GetTimeline());
 134:Application/ins_task.c **** 
 135:Application/ins_task.c ****     // Get_EulerAngle(AHRS.q);
 136:Application/ins_task.c **** }
 137:Application/ins_task.c **** 
 138:Application/ins_task.c **** /**
 139:Application/ins_task.c ****  * @brief        Update quaternion
 140:Application/ins_task.c ****  */
 141:Application/ins_task.c **** void QuaternionUpdate(float *q, float gx, float gy, float gz, float dt)
 142:Application/ins_task.c **** {
 143:Application/ins_task.c ****     float qa, qb, qc;
 144:Application/ins_task.c **** 
ARM GAS  C:\Users\86152\AppData\Local\Temp\ccIGvTB4.s 			page 4


 145:Application/ins_task.c ****     gx *= 0.5f * dt;
 146:Application/ins_task.c ****     gy *= 0.5f * dt;
 147:Application/ins_task.c ****     gz *= 0.5f * dt;
 148:Application/ins_task.c ****     qa = q[0];
 149:Application/ins_task.c ****     qb = q[1];
 150:Application/ins_task.c ****     qc = q[2];
 151:Application/ins_task.c ****     q[0] += (-qb * gx - qc * gy - q[3] * gz);
 152:Application/ins_task.c ****     q[1] += (qa * gx + qc * gz - q[3] * gy);
 153:Application/ins_task.c ****     q[2] += (qa * gy - qb * gz + q[3] * gx);
 154:Application/ins_task.c ****     q[3] += (qa * gz + qb * gy - qc * gx);
 155:Application/ins_task.c **** }
 156:Application/ins_task.c **** 
 157:Application/ins_task.c **** /**
 158:Application/ins_task.c ****  * @brief        Convert quaternion to eular angle
 159:Application/ins_task.c ****  */
 160:Application/ins_task.c **** void QuaternionToEularAngle(float *q, float *Yaw, float *Pitch, float *Roll)
 161:Application/ins_task.c **** {
 162:Application/ins_task.c ****     *Yaw = atan2f(2.0f * (q[0] * q[3] + q[1] * q[2]), 2.0f * (q[0] * q[0] + q[1] * q[1]) - 1.0f) * 
 163:Application/ins_task.c ****     *Pitch = atan2f(2.0f * (q[0] * q[1] + q[2] * q[3]), 2.0f * (q[0] * q[0] + q[3] * q[3]) - 1.0f) 
 164:Application/ins_task.c ****     *Roll = asinf(2.0f * (q[0] * q[2] - q[1] * q[3])) * 57.295779513f;
 165:Application/ins_task.c **** }
 166:Application/ins_task.c **** 
 167:Application/ins_task.c **** /**
 168:Application/ins_task.c ****  * @brief        Convert eular angle to quaternion
 169:Application/ins_task.c ****  */
 170:Application/ins_task.c **** void EularAngleToQuaternion(float Yaw, float Pitch, float Roll, float *q)
 171:Application/ins_task.c **** {
 172:Application/ins_task.c ****     float cosPitch, cosYaw, cosRoll, sinPitch, sinYaw, sinRoll;
 173:Application/ins_task.c ****     Yaw /= 57.295779513f;
 174:Application/ins_task.c ****     Pitch /= 57.295779513f;
 175:Application/ins_task.c ****     Roll /= 57.295779513f;
 176:Application/ins_task.c ****     cosPitch = arm_cos_f32(Pitch / 2);
 177:Application/ins_task.c ****     cosYaw = arm_cos_f32(Yaw / 2);
 178:Application/ins_task.c ****     cosRoll = arm_cos_f32(Roll / 2);
 179:Application/ins_task.c ****     sinPitch = arm_sin_f32(Pitch / 2);
 180:Application/ins_task.c ****     sinYaw = arm_sin_f32(Yaw / 2);
 181:Application/ins_task.c ****     sinRoll = arm_sin_f32(Roll / 2);
 182:Application/ins_task.c ****     q[0] = cosPitch * cosRoll * cosYaw + sinPitch * sinRoll * sinYaw;
 183:Application/ins_task.c ****     q[1] = sinPitch * cosRoll * cosYaw - cosPitch * sinRoll * sinYaw;
 184:Application/ins_task.c ****     q[2] = sinPitch * cosRoll * sinYaw + cosPitch * sinRoll * cosYaw;
 185:Application/ins_task.c ****     q[3] = cosPitch * cosRoll * sinYaw - sinPitch * sinRoll * cosYaw;
 186:Application/ins_task.c **** }
 187:Application/ins_task.c **** 
 188:Application/ins_task.c **** void InsertQuaternionFrame(QuaternionBuf_t *qBuf, float *q, float *motion_acc_n, uint32_t time_stam
 189:Application/ins_task.c **** {
 190:Application/ins_task.c ****     if (qBuf->LatestNum == Q_FRAME_LEN - 1)
 191:Application/ins_task.c ****         qBuf->LatestNum = 0;
 192:Application/ins_task.c ****     else
 193:Application/ins_task.c ****         qBuf->LatestNum++;
 194:Application/ins_task.c **** 
 195:Application/ins_task.c ****     qBuf->qFrame[qBuf->LatestNum].TimeStamp_ms = time_stamp_ms;
 196:Application/ins_task.c ****     for (uint16_t i = 0; i < 4; i++)
 197:Application/ins_task.c ****         qBuf->qFrame[qBuf->LatestNum].q[i] = q[i];
 198:Application/ins_task.c ****     for (uint16_t i = 0; i < 3; i++)
 199:Application/ins_task.c ****         qBuf->qFrame[qBuf->LatestNum].MotionAccel_n[i] = motion_acc_n[i];
 200:Application/ins_task.c **** }
 201:Application/ins_task.c **** 
ARM GAS  C:\Users\86152\AppData\Local\Temp\ccIGvTB4.s 			page 5


 202:Application/ins_task.c **** uint16_t FindTimeMatchFrame(QuaternionBuf_t *qBuf, uint32_t match_time_stamp_ms)
 203:Application/ins_task.c **** {
 204:Application/ins_task.c ****     int min_time_error = abs(qBuf->qFrame[0].TimeStamp_ms - match_time_stamp_ms);
 205:Application/ins_task.c ****     uint16_t num = 0;
 206:Application/ins_task.c ****     for (uint16_t i = 0; i < Q_FRAME_LEN; i++)
 207:Application/ins_task.c ****     {
 208:Application/ins_task.c ****         if (abs(qBuf->qFrame[i].TimeStamp_ms - match_time_stamp_ms) < min_time_error)
 209:Application/ins_task.c ****         {
 210:Application/ins_task.c ****             min_time_error = abs(qBuf->qFrame[i].TimeStamp_ms - match_time_stamp_ms);
 211:Application/ins_task.c ****             num = i;
 212:Application/ins_task.c ****         }
 213:Application/ins_task.c ****     }
 214:Application/ins_task.c ****     return num;
 215:Application/ins_task.c **** }
 216:Application/ins_task.c **** 
 217:Application/ins_task.c **** /**
 218:Application/ins_task.c ****  * @brief          Transform 3dvector from BodyFrame to EarthFrame
 219:Application/ins_task.c ****  * @param[1]       vector in BodyFrame
 220:Application/ins_task.c ****  * @param[2]       vector in EarthFrame
 221:Application/ins_task.c ****  * @param[3]       quaternion
 222:Application/ins_task.c ****  */
 223:Application/ins_task.c **** void BodyFrameToEarthFrame(const float *vecBF, float *vecEF, float *q)
 224:Application/ins_task.c **** {
 225:Application/ins_task.c ****     vecEF[0] = 2.0f * ((0.5f - q[2] * q[2] - q[3] * q[3]) * vecBF[0] +
 226:Application/ins_task.c ****                        (q[1] * q[2] - q[0] * q[3]) * vecBF[1] +
 227:Application/ins_task.c ****                        (q[1] * q[3] + q[0] * q[2]) * vecBF[2]);
 228:Application/ins_task.c **** 
 229:Application/ins_task.c ****     vecEF[1] = 2.0f * ((q[1] * q[2] + q[0] * q[3]) * vecBF[0] +
 230:Application/ins_task.c ****                        (0.5f - q[1] * q[1] - q[3] * q[3]) * vecBF[1] +
 231:Application/ins_task.c ****                        (q[2] * q[3] - q[0] * q[1]) * vecBF[2]);
 232:Application/ins_task.c **** 
 233:Application/ins_task.c ****     vecEF[2] = 2.0f * ((q[1] * q[3] - q[0] * q[2]) * vecBF[0] +
 234:Application/ins_task.c ****                        (q[2] * q[3] + q[0] * q[1]) * vecBF[1] +
 235:Application/ins_task.c ****                        (0.5f - q[1] * q[1] - q[2] * q[2]) * vecBF[2]);
 236:Application/ins_task.c **** }
 237:Application/ins_task.c **** 
 238:Application/ins_task.c **** /**
 239:Application/ins_task.c ****  * @brief          Transform 3dvector from EarthFrame to BodyFrame
 240:Application/ins_task.c ****  * @param[1]       vector in EarthFrame
 241:Application/ins_task.c ****  * @param[2]       vector in BodyFrame
 242:Application/ins_task.c ****  * @param[3]       quaternion
 243:Application/ins_task.c ****  */
 244:Application/ins_task.c **** void EarthFrameToBodyFrame(const float *vecEF, float *vecBF, float *q)
 245:Application/ins_task.c **** {
 246:Application/ins_task.c ****     vecBF[0] = 2.0f * ((0.5f - q[2] * q[2] - q[3] * q[3]) * vecEF[0] +
 247:Application/ins_task.c ****                        (q[1] * q[2] + q[0] * q[3]) * vecEF[1] +
 248:Application/ins_task.c ****                        (q[1] * q[3] - q[0] * q[2]) * vecEF[2]);
 249:Application/ins_task.c **** 
 250:Application/ins_task.c ****     vecBF[1] = 2.0f * ((q[1] * q[2] - q[0] * q[3]) * vecEF[0] +
 251:Application/ins_task.c ****                        (0.5f - q[1] * q[1] - q[3] * q[3]) * vecEF[1] +
 252:Application/ins_task.c ****                        (q[2] * q[3] + q[0] * q[1]) * vecEF[2]);
 253:Application/ins_task.c **** 
 254:Application/ins_task.c ****     vecBF[2] = 2.0f * ((q[1] * q[3] + q[0] * q[2]) * vecEF[0] +
 255:Application/ins_task.c ****                        (q[2] * q[3] - q[0] * q[1]) * vecEF[1] +
 256:Application/ins_task.c ****                        (0.5f - q[1] * q[1] - q[2] * q[2]) * vecEF[2]);
 257:Application/ins_task.c **** }
 258:Application/ins_task.c **** 
ARM GAS  C:\Users\86152\AppData\Local\Temp\ccIGvTB4.s 			page 6


 259:Application/ins_task.c **** static void IMU_Param_Correction(imu_cali_param_t *param, float gyro[3], float accel[3])
 260:Application/ins_task.c **** {
  29              		.loc 1 260 1 view -0
  30              		.cfi_startproc
  31              		@ args = 0, pretend = 0, frame = 24
  32              		@ frame_needed = 0, uses_anonymous_args = 0
  33              		.loc 1 260 1 is_stmt 0 view .LVU1
  34 0000 70B5     		push	{r4, r5, r6, lr}
  35              	.LCFI0:
  36              		.cfi_def_cfa_offset 16
  37              		.cfi_offset 4, -16
  38              		.cfi_offset 5, -12
  39              		.cfi_offset 6, -8
  40              		.cfi_offset 14, -4
  41 0002 2DED068B 		vpush.64	{d8, d9, d10}
  42              	.LCFI1:
  43              		.cfi_def_cfa_offset 40
  44              		.cfi_offset 80, -40
  45              		.cfi_offset 81, -36
  46              		.cfi_offset 82, -32
  47              		.cfi_offset 83, -28
  48              		.cfi_offset 84, -24
  49              		.cfi_offset 85, -20
  50 0006 86B0     		sub	sp, sp, #24
  51              	.LCFI2:
  52              		.cfi_def_cfa_offset 64
  53 0008 0446     		mov	r4, r0
  54 000a 0D46     		mov	r5, r1
  55 000c 1646     		mov	r6, r2
 261:Application/ins_task.c ****     static float lastYawOffset, lastPitchOffset, lastRollOffset;
  56              		.loc 1 261 5 is_stmt 1 view .LVU2
 262:Application/ins_task.c ****     static float c_11, c_12, c_13, c_21, c_22, c_23, c_31, c_32, c_33;
  57              		.loc 1 262 5 view .LVU3
 263:Application/ins_task.c ****     float cosPitch, cosYaw, cosRoll, sinPitch, sinYaw, sinRoll;
  58              		.loc 1 263 5 view .LVU4
 264:Application/ins_task.c **** 
 265:Application/ins_task.c ****     if (fabsf(param->Yaw - lastYawOffset) > 0.001f ||
  59              		.loc 1 265 5 view .LVU5
  60              		.loc 1 265 20 is_stmt 0 view .LVU6
  61 000e 90ED040A 		vldr.32	s0, [r0, #16]
  62              		.loc 1 265 26 view .LVU7
  63 0012 9F4B     		ldr	r3, .L9
  64 0014 D3ED007A 		vldr.32	s15, [r3]
  65 0018 70EE677A 		vsub.f32	s15, s0, s15
  66              		.loc 1 265 9 view .LVU8
  67 001c F0EEE77A 		vabs.f32	s15, s15
  68              		.loc 1 265 8 view .LVU9
  69 0020 9FED9C7A 		vldr.32	s14, .L9+4
  70 0024 F4EEC77A 		vcmpe.f32	s15, s14
  71 0028 F1EE10FA 		vmrs	APSR_nzcv, FPSCR
  72 002c 22DC     		bgt	.L2
 266:Application/ins_task.c ****         fabsf(param->Pitch - lastPitchOffset) > 0.001f ||
  73              		.loc 1 266 20 discriminator 1 view .LVU10
  74 002e D0ED057A 		vldr.32	s15, [r0, #20]
  75              		.loc 1 266 28 discriminator 1 view .LVU11
  76 0032 994B     		ldr	r3, .L9+8
  77 0034 93ED007A 		vldr.32	s14, [r3]
ARM GAS  C:\Users\86152\AppData\Local\Temp\ccIGvTB4.s 			page 7


  78 0038 77EEC77A 		vsub.f32	s15, s15, s14
  79              		.loc 1 266 9 discriminator 1 view .LVU12
  80 003c F0EEE77A 		vabs.f32	s15, s15
 265:Application/ins_task.c ****         fabsf(param->Pitch - lastPitchOffset) > 0.001f ||
  81              		.loc 1 265 52 discriminator 1 view .LVU13
  82 0040 9FED947A 		vldr.32	s14, .L9+4
  83 0044 F4EEC77A 		vcmpe.f32	s15, s14
  84 0048 F1EE10FA 		vmrs	APSR_nzcv, FPSCR
  85 004c 12DC     		bgt	.L2
 267:Application/ins_task.c ****         fabsf(param->Roll - lastRollOffset) > 0.001f || param->flag)
  86              		.loc 1 267 20 view .LVU14
  87 004e D0ED067A 		vldr.32	s15, [r0, #24]
  88              		.loc 1 267 27 view .LVU15
  89 0052 924B     		ldr	r3, .L9+12
  90 0054 93ED007A 		vldr.32	s14, [r3]
  91 0058 77EEC77A 		vsub.f32	s15, s15, s14
  92              		.loc 1 267 9 view .LVU16
  93 005c F0EEE77A 		vabs.f32	s15, s15
 266:Application/ins_task.c ****         fabsf(param->Pitch - lastPitchOffset) > 0.001f ||
  94              		.loc 1 266 56 view .LVU17
  95 0060 9FED8C7A 		vldr.32	s14, .L9+4
  96 0064 F4EEC77A 		vcmpe.f32	s15, s14
  97 0068 F1EE10FA 		vmrs	APSR_nzcv, FPSCR
  98 006c 02DC     		bgt	.L2
  99              		.loc 1 267 62 view .LVU18
 100 006e 0378     		ldrb	r3, [r0]	@ zero_extendqisi2
 101              		.loc 1 267 54 view .LVU19
 102 0070 002B     		cmp	r3, #0
 103 0072 6ED0     		beq	.L3
 104              	.L2:
 268:Application/ins_task.c ****     {
 269:Application/ins_task.c ****         cosYaw = arm_cos_f32(param->Yaw / 57.295779513f);
 105              		.loc 1 269 9 is_stmt 1 view .LVU20
 106              		.loc 1 269 18 is_stmt 0 view .LVU21
 107 0074 9FED8AAA 		vldr.32	s20, .L9+16
 108 0078 80EE0A0A 		vdiv.f32	s0, s0, s20
 109 007c FFF7FEFF 		bl	arm_cos_f32
 110              	.LVL1:
 111              		.loc 1 269 18 view .LVU22
 112 0080 B0EE409A 		vmov.f32	s18, s0
 113              	.LVL2:
 270:Application/ins_task.c ****         cosPitch = arm_cos_f32(param->Pitch / 57.295779513f);
 114              		.loc 1 270 9 is_stmt 1 view .LVU23
 115              		.loc 1 270 37 is_stmt 0 view .LVU24
 116 0084 94ED050A 		vldr.32	s0, [r4, #20]
 117              	.LVL3:
 118              		.loc 1 270 20 view .LVU25
 119 0088 80EE0A0A 		vdiv.f32	s0, s0, s20
 120 008c FFF7FEFF 		bl	arm_cos_f32
 121              	.LVL4:
 122 0090 F0EE408A 		vmov.f32	s17, s0
 123              	.LVL5:
 271:Application/ins_task.c ****         cosRoll = arm_cos_f32(param->Roll / 57.295779513f);
 124              		.loc 1 271 9 is_stmt 1 view .LVU26
 125              		.loc 1 271 36 is_stmt 0 view .LVU27
 126 0094 94ED060A 		vldr.32	s0, [r4, #24]
 127              	.LVL6:
ARM GAS  C:\Users\86152\AppData\Local\Temp\ccIGvTB4.s 			page 8


 128              		.loc 1 271 19 view .LVU28
 129 0098 80EE0A0A 		vdiv.f32	s0, s0, s20
 130 009c FFF7FEFF 		bl	arm_cos_f32
 131              	.LVL7:
 132 00a0 F0EE40AA 		vmov.f32	s21, s0
 133              	.LVL8:
 272:Application/ins_task.c ****         sinYaw = arm_sin_f32(param->Yaw / 57.295779513f);
 134              		.loc 1 272 9 is_stmt 1 view .LVU29
 135              		.loc 1 272 35 is_stmt 0 view .LVU30
 136 00a4 94ED040A 		vldr.32	s0, [r4, #16]
 137              	.LVL9:
 138              		.loc 1 272 18 view .LVU31
 139 00a8 80EE0A0A 		vdiv.f32	s0, s0, s20
 140 00ac FFF7FEFF 		bl	arm_sin_f32
 141              	.LVL10:
 142 00b0 B0EE408A 		vmov.f32	s16, s0
 143              	.LVL11:
 273:Application/ins_task.c ****         sinPitch = arm_sin_f32(param->Pitch / 57.295779513f);
 144              		.loc 1 273 9 is_stmt 1 view .LVU32
 145              		.loc 1 273 37 is_stmt 0 view .LVU33
 146 00b4 94ED050A 		vldr.32	s0, [r4, #20]
 147              	.LVL12:
 148              		.loc 1 273 20 view .LVU34
 149 00b8 80EE0A0A 		vdiv.f32	s0, s0, s20
 150 00bc FFF7FEFF 		bl	arm_sin_f32
 151              	.LVL13:
 152 00c0 F0EE409A 		vmov.f32	s19, s0
 153              	.LVL14:
 274:Application/ins_task.c ****         sinRoll = arm_sin_f32(param->Roll / 57.295779513f);
 154              		.loc 1 274 9 is_stmt 1 view .LVU35
 155              		.loc 1 274 36 is_stmt 0 view .LVU36
 156 00c4 94ED060A 		vldr.32	s0, [r4, #24]
 157              	.LVL15:
 158              		.loc 1 274 19 view .LVU37
 159 00c8 80EE0A0A 		vdiv.f32	s0, s0, s20
 160 00cc FFF7FEFF 		bl	arm_sin_f32
 161              	.LVL16:
 275:Application/ins_task.c **** 
 276:Application/ins_task.c ****         // 1.yaw(alpha) 2.pitch(beta) 3.roll(gamma)
 277:Application/ins_task.c ****         c_11 = cosYaw * cosRoll + sinYaw * sinPitch * sinRoll;
 162              		.loc 1 277 9 is_stmt 1 view .LVU38
 163              		.loc 1 277 23 is_stmt 0 view .LVU39
 164 00d0 69EE2A6A 		vmul.f32	s13, s18, s21
 165              		.loc 1 277 42 view .LVU40
 166 00d4 28EE297A 		vmul.f32	s14, s16, s19
 167              		.loc 1 277 53 view .LVU41
 168 00d8 27EE007A 		vmul.f32	s14, s14, s0
 169              		.loc 1 277 33 view .LVU42
 170 00dc 36EE877A 		vadd.f32	s14, s13, s14
 171              		.loc 1 277 14 view .LVU43
 172 00e0 704B     		ldr	r3, .L9+20
 173 00e2 83ED007A 		vstr.32	s14, [r3]
 278:Application/ins_task.c ****         c_12 = cosPitch * sinYaw;
 174              		.loc 1 278 9 is_stmt 1 view .LVU44
 175              		.loc 1 278 25 is_stmt 0 view .LVU45
 176 00e6 28EE887A 		vmul.f32	s14, s17, s16
 177              		.loc 1 278 14 view .LVU46
ARM GAS  C:\Users\86152\AppData\Local\Temp\ccIGvTB4.s 			page 9


 178 00ea 6F4B     		ldr	r3, .L9+24
 179 00ec 83ED007A 		vstr.32	s14, [r3]
 279:Application/ins_task.c ****         c_13 = cosYaw * sinRoll - cosRoll * sinYaw * sinPitch;
 180              		.loc 1 279 9 is_stmt 1 view .LVU47
 181              		.loc 1 279 23 is_stmt 0 view .LVU48
 182 00f0 29EE006A 		vmul.f32	s12, s18, s0
 183              		.loc 1 279 43 view .LVU49
 184 00f4 6AEE885A 		vmul.f32	s11, s21, s16
 185              		.loc 1 279 52 view .LVU50
 186 00f8 25EEA97A 		vmul.f32	s14, s11, s19
 187              		.loc 1 279 33 view .LVU51
 188 00fc 36EE476A 		vsub.f32	s12, s12, s14
 189              		.loc 1 279 14 view .LVU52
 190 0100 6A4B     		ldr	r3, .L9+28
 191 0102 83ED006A 		vstr.32	s12, [r3]
 280:Application/ins_task.c ****         c_21 = cosYaw * sinPitch * sinRoll - cosRoll * sinYaw;
 192              		.loc 1 280 9 is_stmt 1 view .LVU53
 193              		.loc 1 280 23 is_stmt 0 view .LVU54
 194 0106 29EE297A 		vmul.f32	s14, s18, s19
 195              		.loc 1 280 34 view .LVU55
 196 010a 27EE007A 		vmul.f32	s14, s14, s0
 197              		.loc 1 280 44 view .LVU56
 198 010e 37EE657A 		vsub.f32	s14, s14, s11
 199              		.loc 1 280 14 view .LVU57
 200 0112 674B     		ldr	r3, .L9+32
 201 0114 83ED007A 		vstr.32	s14, [r3]
 281:Application/ins_task.c ****         c_22 = cosYaw * cosPitch;
 202              		.loc 1 281 9 is_stmt 1 view .LVU58
 203              		.loc 1 281 23 is_stmt 0 view .LVU59
 204 0118 29EE289A 		vmul.f32	s18, s18, s17
 205              	.LVL17:
 206              		.loc 1 281 14 view .LVU60
 207 011c 654B     		ldr	r3, .L9+36
 208 011e 83ED009A 		vstr.32	s18, [r3]
 282:Application/ins_task.c ****         c_23 = -sinYaw * sinRoll - cosYaw * cosRoll * sinPitch;
 209              		.loc 1 282 9 is_stmt 1 view .LVU61
 210              		.loc 1 282 24 is_stmt 0 view .LVU62
 211 0122 28EE408A 		vnmul.f32	s16, s16, s0
 212              	.LVL18:
 213              		.loc 1 282 53 view .LVU63
 214 0126 66EEA96A 		vmul.f32	s13, s13, s19
 215              		.loc 1 282 34 view .LVU64
 216 012a 38EE668A 		vsub.f32	s16, s16, s13
 217              		.loc 1 282 14 view .LVU65
 218 012e 624B     		ldr	r3, .L9+40
 219 0130 83ED008A 		vstr.32	s16, [r3]
 283:Application/ins_task.c ****         c_31 = -cosPitch * sinRoll;
 220              		.loc 1 283 9 is_stmt 1 view .LVU66
 221              		.loc 1 283 26 is_stmt 0 view .LVU67
 222 0134 68EEC07A 		vnmul.f32	s15, s17, s0
 223              		.loc 1 283 14 view .LVU68
 224 0138 604B     		ldr	r3, .L9+44
 225 013a C3ED007A 		vstr.32	s15, [r3]
 284:Application/ins_task.c ****         c_32 = sinPitch;
 226              		.loc 1 284 9 is_stmt 1 view .LVU69
 227              		.loc 1 284 14 is_stmt 0 view .LVU70
 228 013e 604B     		ldr	r3, .L9+48
ARM GAS  C:\Users\86152\AppData\Local\Temp\ccIGvTB4.s 			page 10


 229 0140 C3ED009A 		vstr.32	s19, [r3]
 285:Application/ins_task.c ****         c_33 = cosPitch * cosRoll;
 230              		.loc 1 285 9 is_stmt 1 view .LVU71
 231              		.loc 1 285 25 is_stmt 0 view .LVU72
 232 0144 68EEAA8A 		vmul.f32	s17, s17, s21
 233              	.LVL19:
 234              		.loc 1 285 14 view .LVU73
 235 0148 5E4B     		ldr	r3, .L9+52
 236 014a C3ED008A 		vstr.32	s17, [r3]
 286:Application/ins_task.c ****         param->flag = 0;
 237              		.loc 1 286 9 is_stmt 1 view .LVU74
 238              		.loc 1 286 21 is_stmt 0 view .LVU75
 239 014e 0023     		movs	r3, #0
 240 0150 2370     		strb	r3, [r4]
 241              	.LVL20:
 242              	.L3:
 260:Application/ins_task.c ****     static float lastYawOffset, lastPitchOffset, lastRollOffset;
 243              		.loc 1 260 1 discriminator 1 view .LVU76
 244 0152 0023     		movs	r3, #0
 245 0154 10E0     		b	.L4
 246              	.LVL21:
 247              	.L5:
 248              	.LBB2:
 287:Application/ins_task.c ****     }
 288:Application/ins_task.c ****     float gyro_temp[3];
 289:Application/ins_task.c ****     for (uint8_t i = 0; i < 3; i++)
 290:Application/ins_task.c ****         gyro_temp[i] = gyro[i] * param->scale[i];
 249              		.loc 1 290 9 is_stmt 1 discriminator 3 view .LVU77
 250              		.loc 1 290 28 is_stmt 0 discriminator 3 view .LVU78
 251 0156 05EB8302 		add	r2, r5, r3, lsl #2
 252 015a D2ED007A 		vldr.32	s15, [r2]
 253              		.loc 1 290 46 discriminator 3 view .LVU79
 254 015e 04EB8302 		add	r2, r4, r3, lsl #2
 255 0162 92ED017A 		vldr.32	s14, [r2, #4]
 256              		.loc 1 290 32 discriminator 3 view .LVU80
 257 0166 67EE877A 		vmul.f32	s15, s15, s14
 258              		.loc 1 290 22 discriminator 3 view .LVU81
 259 016a 06AA     		add	r2, sp, #24
 260 016c 02EB8302 		add	r2, r2, r3, lsl #2
 261 0170 42ED037A 		vstr.32	s15, [r2, #-12]
 289:Application/ins_task.c ****         gyro_temp[i] = gyro[i] * param->scale[i];
 262              		.loc 1 289 32 is_stmt 1 discriminator 3 view .LVU82
 289:Application/ins_task.c ****         gyro_temp[i] = gyro[i] * param->scale[i];
 263              		.loc 1 289 33 is_stmt 0 discriminator 3 view .LVU83
 264 0174 0133     		adds	r3, r3, #1
 265              	.LVL22:
 289:Application/ins_task.c ****         gyro_temp[i] = gyro[i] * param->scale[i];
 266              		.loc 1 289 33 discriminator 3 view .LVU84
 267 0176 DBB2     		uxtb	r3, r3
 268              	.LVL23:
 269              	.L4:
 289:Application/ins_task.c ****         gyro_temp[i] = gyro[i] * param->scale[i];
 270              		.loc 1 289 25 is_stmt 1 discriminator 1 view .LVU85
 289:Application/ins_task.c ****         gyro_temp[i] = gyro[i] * param->scale[i];
 271              		.loc 1 289 5 is_stmt 0 discriminator 1 view .LVU86
 272 0178 022B     		cmp	r3, #2
 273 017a ECD9     		bls	.L5
ARM GAS  C:\Users\86152\AppData\Local\Temp\ccIGvTB4.s 			page 11


 274              	.LBE2:
 291:Application/ins_task.c **** 
 292:Application/ins_task.c ****     gyro[X] = c_11 * gyro_temp[X] +
 275              		.loc 1 292 5 is_stmt 1 view .LVU87
 276              		.loc 1 292 31 is_stmt 0 view .LVU88
 277 017c DDED037A 		vldr.32	s15, [sp, #12]
 278              		.loc 1 292 20 view .LVU89
 279 0180 484B     		ldr	r3, .L9+20
 280              	.LVL24:
 281              		.loc 1 292 20 view .LVU90
 282 0182 93ED006A 		vldr.32	s12, [r3]
 283 0186 27EE867A 		vmul.f32	s14, s15, s12
 293:Application/ins_task.c ****               c_12 * gyro_temp[Y] +
 284              		.loc 1 293 31 view .LVU91
 285 018a 9DED045A 		vldr.32	s10, [sp, #16]
 286              		.loc 1 293 20 view .LVU92
 287 018e 464B     		ldr	r3, .L9+24
 288 0190 D3ED002A 		vldr.32	s5, [r3]
 289 0194 65EE226A 		vmul.f32	s13, s10, s5
 292:Application/ins_task.c ****               c_12 * gyro_temp[Y] +
 290              		.loc 1 292 35 view .LVU93
 291 0198 37EE267A 		vadd.f32	s14, s14, s13
 294:Application/ins_task.c ****               c_13 * gyro_temp[Z];
 292              		.loc 1 294 31 view .LVU94
 293 019c DDED055A 		vldr.32	s11, [sp, #20]
 294              		.loc 1 294 20 view .LVU95
 295 01a0 424B     		ldr	r3, .L9+28
 296 01a2 93ED003A 		vldr.32	s6, [r3]
 297 01a6 65EE836A 		vmul.f32	s13, s11, s6
 293:Application/ins_task.c ****               c_12 * gyro_temp[Y] +
 298              		.loc 1 293 35 view .LVU96
 299 01aa 37EE267A 		vadd.f32	s14, s14, s13
 292:Application/ins_task.c ****               c_12 * gyro_temp[Y] +
 300              		.loc 1 292 13 view .LVU97
 301 01ae 85ED007A 		vstr.32	s14, [r5]
 295:Application/ins_task.c ****     gyro[Y] = c_21 * gyro_temp[X] +
 302              		.loc 1 295 5 is_stmt 1 view .LVU98
 303              		.loc 1 295 20 is_stmt 0 view .LVU99
 304 01b2 3F4B     		ldr	r3, .L9+32
 305 01b4 D3ED006A 		vldr.32	s13, [r3]
 306 01b8 27EEA67A 		vmul.f32	s14, s15, s13
 296:Application/ins_task.c ****               c_22 * gyro_temp[Y] +
 307              		.loc 1 296 20 view .LVU100
 308 01bc 3D4B     		ldr	r3, .L9+36
 309 01be D3ED003A 		vldr.32	s7, [r3]
 310 01c2 65EE234A 		vmul.f32	s9, s10, s7
 295:Application/ins_task.c ****     gyro[Y] = c_21 * gyro_temp[X] +
 311              		.loc 1 295 35 view .LVU101
 312 01c6 37EE247A 		vadd.f32	s14, s14, s9
 297:Application/ins_task.c ****               c_23 * gyro_temp[Z];
 313              		.loc 1 297 20 view .LVU102
 314 01ca 3B4B     		ldr	r3, .L9+40
 315 01cc 93ED004A 		vldr.32	s8, [r3]
 316 01d0 65EE844A 		vmul.f32	s9, s11, s8
 296:Application/ins_task.c ****               c_22 * gyro_temp[Y] +
 317              		.loc 1 296 35 view .LVU103
 318 01d4 37EE247A 		vadd.f32	s14, s14, s9
ARM GAS  C:\Users\86152\AppData\Local\Temp\ccIGvTB4.s 			page 12


 295:Application/ins_task.c ****     gyro[Y] = c_21 * gyro_temp[X] +
 319              		.loc 1 295 13 view .LVU104
 320 01d8 85ED017A 		vstr.32	s14, [r5, #4]
 298:Application/ins_task.c ****     gyro[Z] = c_31 * gyro_temp[X] +
 321              		.loc 1 298 5 is_stmt 1 view .LVU105
 322              		.loc 1 298 20 is_stmt 0 view .LVU106
 323 01dc 374B     		ldr	r3, .L9+44
 324 01de 93ED007A 		vldr.32	s14, [r3]
 325 01e2 67EE877A 		vmul.f32	s15, s15, s14
 299:Application/ins_task.c ****               c_32 * gyro_temp[Y] +
 326              		.loc 1 299 20 view .LVU107
 327 01e6 364B     		ldr	r3, .L9+48
 328 01e8 D3ED004A 		vldr.32	s9, [r3]
 329 01ec 25EE245A 		vmul.f32	s10, s10, s9
 298:Application/ins_task.c ****     gyro[Z] = c_31 * gyro_temp[X] +
 330              		.loc 1 298 35 view .LVU108
 331 01f0 77EE857A 		vadd.f32	s15, s15, s10
 300:Application/ins_task.c ****               c_33 * gyro_temp[Z];
 332              		.loc 1 300 20 view .LVU109
 333 01f4 334B     		ldr	r3, .L9+52
 334 01f6 93ED005A 		vldr.32	s10, [r3]
 335 01fa 65EE855A 		vmul.f32	s11, s11, s10
 299:Application/ins_task.c ****               c_32 * gyro_temp[Y] +
 336              		.loc 1 299 35 view .LVU110
 337 01fe 77EEA57A 		vadd.f32	s15, s15, s11
 298:Application/ins_task.c ****     gyro[Z] = c_31 * gyro_temp[X] +
 338              		.loc 1 298 13 view .LVU111
 339 0202 C5ED027A 		vstr.32	s15, [r5, #8]
 301:Application/ins_task.c **** 
 302:Application/ins_task.c ****     float accel_temp[3];
 340              		.loc 1 302 5 is_stmt 1 view .LVU112
 303:Application/ins_task.c ****     for (uint8_t i = 0; i < 3; i++)
 341              		.loc 1 303 5 view .LVU113
 342              	.LBB3:
 343              		.loc 1 303 10 view .LVU114
 344              	.LVL25:
 345              		.loc 1 303 18 is_stmt 0 view .LVU115
 346 0206 0023     		movs	r3, #0
 347              		.loc 1 303 5 view .LVU116
 348 0208 09E0     		b	.L6
 349              	.LVL26:
 350              	.L7:
 304:Application/ins_task.c ****         accel_temp[i] = accel[i];
 351              		.loc 1 304 9 is_stmt 1 discriminator 3 view .LVU117
 352              		.loc 1 304 30 is_stmt 0 discriminator 3 view .LVU118
 353 020a 06EB8302 		add	r2, r6, r3, lsl #2
 354 020e 1168     		ldr	r1, [r2]	@ float
 355              		.loc 1 304 23 discriminator 3 view .LVU119
 356 0210 06AA     		add	r2, sp, #24
 357 0212 02EB8302 		add	r2, r2, r3, lsl #2
 358 0216 42F8181C 		str	r1, [r2, #-24]	@ float
 303:Application/ins_task.c ****     for (uint8_t i = 0; i < 3; i++)
 359              		.loc 1 303 32 is_stmt 1 discriminator 3 view .LVU120
 303:Application/ins_task.c ****     for (uint8_t i = 0; i < 3; i++)
 360              		.loc 1 303 33 is_stmt 0 discriminator 3 view .LVU121
 361 021a 0133     		adds	r3, r3, #1
 362              	.LVL27:
ARM GAS  C:\Users\86152\AppData\Local\Temp\ccIGvTB4.s 			page 13


 303:Application/ins_task.c ****     for (uint8_t i = 0; i < 3; i++)
 363              		.loc 1 303 33 discriminator 3 view .LVU122
 364 021c DBB2     		uxtb	r3, r3
 365              	.LVL28:
 366              	.L6:
 303:Application/ins_task.c ****     for (uint8_t i = 0; i < 3; i++)
 367              		.loc 1 303 25 is_stmt 1 discriminator 1 view .LVU123
 303:Application/ins_task.c ****     for (uint8_t i = 0; i < 3; i++)
 368              		.loc 1 303 5 is_stmt 0 discriminator 1 view .LVU124
 369 021e 022B     		cmp	r3, #2
 370 0220 F3D9     		bls	.L7
 371              	.LBE3:
 305:Application/ins_task.c **** 
 306:Application/ins_task.c ****     accel[X] = c_11 * accel_temp[X] +
 372              		.loc 1 306 5 is_stmt 1 view .LVU125
 373              		.loc 1 306 33 is_stmt 0 view .LVU126
 374 0222 9DED002A 		vldr.32	s4, [sp]
 375              		.loc 1 306 21 view .LVU127
 376 0226 26EE026A 		vmul.f32	s12, s12, s4
 307:Application/ins_task.c ****                c_12 * accel_temp[Y] +
 377              		.loc 1 307 33 view .LVU128
 378 022a DDED015A 		vldr.32	s11, [sp, #4]
 379              		.loc 1 307 21 view .LVU129
 380 022e 62EEA52A 		vmul.f32	s5, s5, s11
 306:Application/ins_task.c ****                c_12 * accel_temp[Y] +
 381              		.loc 1 306 37 view .LVU130
 382 0232 36EE226A 		vadd.f32	s12, s12, s5
 308:Application/ins_task.c ****                c_13 * accel_temp[Z];
 383              		.loc 1 308 33 view .LVU131
 384 0236 DDED027A 		vldr.32	s15, [sp, #8]
 385              		.loc 1 308 21 view .LVU132
 386 023a 23EE273A 		vmul.f32	s6, s6, s15
 307:Application/ins_task.c ****                c_12 * accel_temp[Y] +
 387              		.loc 1 307 37 view .LVU133
 388 023e 36EE036A 		vadd.f32	s12, s12, s6
 306:Application/ins_task.c ****                c_12 * accel_temp[Y] +
 389              		.loc 1 306 14 view .LVU134
 390 0242 86ED006A 		vstr.32	s12, [r6]
 309:Application/ins_task.c ****     accel[Y] = c_21 * accel_temp[X] +
 391              		.loc 1 309 5 is_stmt 1 view .LVU135
 392              		.loc 1 309 21 is_stmt 0 view .LVU136
 393 0246 66EE826A 		vmul.f32	s13, s13, s4
 310:Application/ins_task.c ****                c_22 * accel_temp[Y] +
 394              		.loc 1 310 21 view .LVU137
 395 024a 63EEA53A 		vmul.f32	s7, s7, s11
 309:Application/ins_task.c ****     accel[Y] = c_21 * accel_temp[X] +
 396              		.loc 1 309 37 view .LVU138
 397 024e 76EEA36A 		vadd.f32	s13, s13, s7
 311:Application/ins_task.c ****                c_23 * accel_temp[Z];
 398              		.loc 1 311 21 view .LVU139
 399 0252 24EE274A 		vmul.f32	s8, s8, s15
 310:Application/ins_task.c ****                c_22 * accel_temp[Y] +
 400              		.loc 1 310 37 view .LVU140
 401 0256 76EE846A 		vadd.f32	s13, s13, s8
 309:Application/ins_task.c ****     accel[Y] = c_21 * accel_temp[X] +
 402              		.loc 1 309 14 view .LVU141
 403 025a C6ED016A 		vstr.32	s13, [r6, #4]
ARM GAS  C:\Users\86152\AppData\Local\Temp\ccIGvTB4.s 			page 14


 312:Application/ins_task.c ****     accel[Z] = c_31 * accel_temp[X] +
 404              		.loc 1 312 5 is_stmt 1 view .LVU142
 405              		.loc 1 312 21 is_stmt 0 view .LVU143
 406 025e 27EE027A 		vmul.f32	s14, s14, s4
 313:Application/ins_task.c ****                c_32 * accel_temp[Y] +
 407              		.loc 1 313 21 view .LVU144
 408 0262 64EEA54A 		vmul.f32	s9, s9, s11
 312:Application/ins_task.c ****     accel[Z] = c_31 * accel_temp[X] +
 409              		.loc 1 312 37 view .LVU145
 410 0266 37EE247A 		vadd.f32	s14, s14, s9
 314:Application/ins_task.c ****                c_33 * accel_temp[Z];
 411              		.loc 1 314 21 view .LVU146
 412 026a 25EE275A 		vmul.f32	s10, s10, s15
 313:Application/ins_task.c ****                c_32 * accel_temp[Y] +
 413              		.loc 1 313 37 view .LVU147
 414 026e 37EE057A 		vadd.f32	s14, s14, s10
 312:Application/ins_task.c ****     accel[Z] = c_31 * accel_temp[X] +
 415              		.loc 1 312 14 view .LVU148
 416 0272 86ED027A 		vstr.32	s14, [r6, #8]
 315:Application/ins_task.c **** 
 316:Application/ins_task.c ****     lastYawOffset = param->Yaw;
 417              		.loc 1 316 5 is_stmt 1 view .LVU149
 418              		.loc 1 316 26 is_stmt 0 view .LVU150
 419 0276 2269     		ldr	r2, [r4, #16]	@ float
 420              		.loc 1 316 19 view .LVU151
 421 0278 054B     		ldr	r3, .L9
 422              	.LVL29:
 423              		.loc 1 316 19 view .LVU152
 424 027a 1A60     		str	r2, [r3]	@ float
 317:Application/ins_task.c ****     lastPitchOffset = param->Pitch;
 425              		.loc 1 317 5 is_stmt 1 view .LVU153
 426              		.loc 1 317 28 is_stmt 0 view .LVU154
 427 027c 6269     		ldr	r2, [r4, #20]	@ float
 428              		.loc 1 317 21 view .LVU155
 429 027e 064B     		ldr	r3, .L9+8
 430 0280 1A60     		str	r2, [r3]	@ float
 318:Application/ins_task.c ****     lastRollOffset = param->Roll;
 431              		.loc 1 318 5 is_stmt 1 view .LVU156
 432              		.loc 1 318 27 is_stmt 0 view .LVU157
 433 0282 A269     		ldr	r2, [r4, #24]	@ float
 434              		.loc 1 318 20 view .LVU158
 435 0284 054B     		ldr	r3, .L9+12
 436 0286 1A60     		str	r2, [r3]	@ float
 319:Application/ins_task.c **** }
 437              		.loc 1 319 1 view .LVU159
 438 0288 06B0     		add	sp, sp, #24
 439              	.LCFI3:
 440              		.cfi_def_cfa_offset 40
 441              		@ sp needed
 442 028a BDEC068B 		vldm	sp!, {d8-d10}
 443              	.LCFI4:
 444              		.cfi_restore 84
 445              		.cfi_restore 85
 446              		.cfi_restore 82
 447              		.cfi_restore 83
 448              		.cfi_restore 80
 449              		.cfi_restore 81
ARM GAS  C:\Users\86152\AppData\Local\Temp\ccIGvTB4.s 			page 15


 450              		.cfi_def_cfa_offset 16
 451 028e 70BD     		pop	{r4, r5, r6, pc}
 452              	.LVL30:
 453              	.L10:
 454              		.loc 1 319 1 view .LVU160
 455              		.align	2
 456              	.L9:
 457 0290 00000000 		.word	.LANCHOR0
 458 0294 6F12833A 		.word	981668463
 459 0298 00000000 		.word	.LANCHOR1
 460 029c 00000000 		.word	.LANCHOR2
 461 02a0 E12E6542 		.word	1113927393
 462 02a4 00000000 		.word	.LANCHOR3
 463 02a8 00000000 		.word	.LANCHOR4
 464 02ac 00000000 		.word	.LANCHOR5
 465 02b0 00000000 		.word	.LANCHOR6
 466 02b4 00000000 		.word	.LANCHOR7
 467 02b8 00000000 		.word	.LANCHOR8
 468 02bc 00000000 		.word	.LANCHOR9
 469 02c0 00000000 		.word	.LANCHOR10
 470 02c4 00000000 		.word	.LANCHOR11
 471              		.cfi_endproc
 472              	.LFE181:
 474              		.section	.text.INS_Init,"ax",%progbits
 475              		.align	1
 476              		.global	INS_Init
 477              		.syntax unified
 478              		.thumb
 479              		.thumb_func
 481              	INS_Init:
 482              	.LFB171:
  26:Application/ins_task.c ****     // gEstimateKF_Init(0.01, 1000);
 483              		.loc 1 26 1 is_stmt 1 view -0
 484              		.cfi_startproc
 485              		@ args = 0, pretend = 0, frame = 0
 486              		@ frame_needed = 0, uses_anonymous_args = 0
 487 0000 38B5     		push	{r3, r4, r5, lr}
 488              	.LCFI5:
 489              		.cfi_def_cfa_offset 16
 490              		.cfi_offset 3, -16
 491              		.cfi_offset 4, -12
 492              		.cfi_offset 5, -8
 493              		.cfi_offset 14, -4
 494 0002 2DED028B 		vpush.64	{d8}
 495              	.LCFI6:
 496              		.cfi_def_cfa_offset 24
 497              		.cfi_offset 80, -24
 498              		.cfi_offset 81, -20
  28:Application/ins_task.c **** 
 499              		.loc 1 28 5 view .LVU162
 500 0006 2A48     		ldr	r0, .L13
 501 0008 FFF7FEFF 		bl	BMI088_Read
 502              	.LVL31:
  30:Application/ins_task.c ****     IMU_RequestData(&hcan2, 0x01, exo_controller.xzy_shoulder.dm_imu.send_reg);
 503              		.loc 1 30 5 view .LVU163
  30:Application/ins_task.c ****     IMU_RequestData(&hcan2, 0x01, exo_controller.xzy_shoulder.dm_imu.send_reg);
 504              		.loc 1 30 49 is_stmt 0 view .LVU164
ARM GAS  C:\Users\86152\AppData\Local\Temp\ccIGvTB4.s 			page 16


 505 000c 294C     		ldr	r4, .L13+4
 506 000e 0125     		movs	r5, #1
 507 0010 84F8805A 		strb	r5, [r4, #2688]
  31:Application/ins_task.c **** 
 508              		.loc 1 31 5 is_stmt 1 view .LVU165
 509 0014 2A46     		mov	r2, r5
 510 0016 2946     		mov	r1, r5
 511 0018 2748     		ldr	r0, .L13+8
 512 001a FFF7FEFF 		bl	IMU_RequestData
 513              	.LVL32:
  35:Application/ins_task.c ****     exo_controller.xzy_shoulder.INS_shoulder.imu_cali_param.scale[Y] = 1;
 514              		.loc 1 35 5 view .LVU166
  35:Application/ins_task.c ****     exo_controller.xzy_shoulder.INS_shoulder.imu_cali_param.scale[Y] = 1;
 515              		.loc 1 35 70 is_stmt 0 view .LVU167
 516 001e 04F53663 		add	r3, r4, #2912
 517 0022 F7EE001A 		vmov.f32	s3, #1.0e+0
 518 0026 C3ED001A 		vstr.32	s3, [r3]
  36:Application/ins_task.c ****     exo_controller.xzy_shoulder.INS_shoulder.imu_cali_param.scale[Z] = 1;
 519              		.loc 1 36 5 is_stmt 1 view .LVU168
  36:Application/ins_task.c ****     exo_controller.xzy_shoulder.INS_shoulder.imu_cali_param.scale[Z] = 1;
 520              		.loc 1 36 70 is_stmt 0 view .LVU169
 521 002a 04F66433 		addw	r3, r4, #2916
 522 002e C3ED001A 		vstr.32	s3, [r3]
  37:Application/ins_task.c **** 
 523              		.loc 1 37 5 is_stmt 1 view .LVU170
  37:Application/ins_task.c **** 
 524              		.loc 1 37 70 is_stmt 0 view .LVU171
 525 0032 04F66833 		addw	r3, r4, #2920
 526 0036 C3ED001A 		vstr.32	s3, [r3]
  39:Application/ins_task.c ****     exo_controller.xzy_shoulder.INS_shoulder.imu_cali_param.Pitch = 0;
 527              		.loc 1 39 5 is_stmt 1 view .LVU172
  39:Application/ins_task.c ****     exo_controller.xzy_shoulder.INS_shoulder.imu_cali_param.Pitch = 0;
 528              		.loc 1 39 65 is_stmt 0 view .LVU173
 529 003a 04F66C33 		addw	r3, r4, #2924
 530 003e 9FED1F8A 		vldr.32	s16, .L13+12
 531 0042 83ED008A 		vstr.32	s16, [r3]
  40:Application/ins_task.c ****     exo_controller.xzy_shoulder.INS_shoulder.imu_cali_param.Roll = 0;
 532              		.loc 1 40 5 is_stmt 1 view .LVU174
  40:Application/ins_task.c ****     exo_controller.xzy_shoulder.INS_shoulder.imu_cali_param.Roll = 0;
 533              		.loc 1 40 67 is_stmt 0 view .LVU175
 534 0046 04F53763 		add	r3, r4, #2928
 535 004a 83ED008A 		vstr.32	s16, [r3]
  41:Application/ins_task.c ****     exo_controller.xzy_shoulder.INS_shoulder.imu_cali_param.flag = 1;
 536              		.loc 1 41 5 is_stmt 1 view .LVU176
  41:Application/ins_task.c ****     exo_controller.xzy_shoulder.INS_shoulder.imu_cali_param.flag = 1;
 537              		.loc 1 41 66 is_stmt 0 view .LVU177
 538 004e 04F67433 		addw	r3, r4, #2932
 539 0052 83ED008A 		vstr.32	s16, [r3]
  42:Application/ins_task.c **** 
 540              		.loc 1 42 5 is_stmt 1 view .LVU178
  42:Application/ins_task.c **** 
 541              		.loc 1 42 66 is_stmt 0 view .LVU179
 542 0056 84F85C5B 		strb	r5, [r4, #2908]
  44:Application/ins_task.c ****     // imu heat init
 543              		.loc 1 44 5 is_stmt 1 view .LVU180
 544 005a B0EE482A 		vmov.f32	s4, s16
 545 005e 9FED181A 		vldr.32	s2, .L13+16
ARM GAS  C:\Users\86152\AppData\Local\Temp\ccIGvTB4.s 			page 17


 546 0062 DFED180A 		vldr.32	s1, .L13+20
 547 0066 B2EE040A 		vmov.f32	s0, #1.0e+1
 548 006a FFF7FEFF 		bl	IMU_QuaternionEKF_Init
 549              	.LVL33:
  46:Application/ins_task.c ****     HAL_TIM_PWM_Start(&htim10, TIM_CHANNEL_1);
 550              		.loc 1 46 5 view .LVU181
 551 006e 0022     		movs	r2, #0
 552 0070 1146     		mov	r1, r2
 553 0072 F0EE484A 		vmov.f32	s9, s16
 554 0076 B0EE484A 		vmov.f32	s8, s16
 555 007a F0EE483A 		vmov.f32	s7, s16
 556 007e B0EE483A 		vmov.f32	s6, s16
 557 0082 F0EE482A 		vmov.f32	s5, s16
 558 0086 B3EE042A 		vmov.f32	s4, #2.0e+1
 559 008a DFED0F1A 		vldr.32	s3, .L13+24
 560 008e B0EE481A 		vmov.f32	s2, s16
 561 0092 DFED0E0A 		vldr.32	s1, .L13+28
 562 0096 9FED0E0A 		vldr.32	s0, .L13+32
 563 009a 0E48     		ldr	r0, .L13+36
 564 009c FFF7FEFF 		bl	PID_Init
 565              	.LVL34:
  47:Application/ins_task.c **** }
 566              		.loc 1 47 5 view .LVU182
 567 00a0 0021     		movs	r1, #0
 568 00a2 0D48     		ldr	r0, .L13+40
 569 00a4 FFF7FEFF 		bl	HAL_TIM_PWM_Start
 570              	.LVL35:
  48:Application/ins_task.c **** 
 571              		.loc 1 48 1 is_stmt 0 view .LVU183
 572 00a8 BDEC028B 		vldm	sp!, {d8}
 573              	.LCFI7:
 574              		.cfi_restore 80
 575              		.cfi_restore 81
 576              		.cfi_def_cfa_offset 16
 577 00ac 38BD     		pop	{r3, r4, r5, pc}
 578              	.L14:
 579 00ae 00BF     		.align	2
 580              	.L13:
 581 00b0 00000000 		.word	BMI088
 582 00b4 00000000 		.word	exo_controller
 583 00b8 00000000 		.word	hcan2
 584 00bc 00000000 		.word	0
 585 00c0 8096184B 		.word	1259902592
 586 00c4 6F12833A 		.word	981668463
 587 00c8 00007A44 		.word	1148846080
 588 00cc 00009643 		.word	1133903872
 589 00d0 0000FA44 		.word	1157234688
 590 00d4 00000000 		.word	.LANCHOR12
 591 00d8 00000000 		.word	htim10
 592              		.cfi_endproc
 593              	.LFE171:
 595              		.section	.text.QuaternionUpdate,"ax",%progbits
 596              		.align	1
 597              		.global	QuaternionUpdate
 598              		.syntax unified
 599              		.thumb
 600              		.thumb_func
ARM GAS  C:\Users\86152\AppData\Local\Temp\ccIGvTB4.s 			page 18


 602              	QuaternionUpdate:
 603              	.LVL36:
 604              	.LFB174:
 142:Application/ins_task.c ****     float qa, qb, qc;
 605              		.loc 1 142 1 is_stmt 1 view -0
 606              		.cfi_startproc
 607              		@ args = 0, pretend = 0, frame = 0
 608              		@ frame_needed = 0, uses_anonymous_args = 0
 609              		@ link register save eliminated.
 143:Application/ins_task.c **** 
 610              		.loc 1 143 5 view .LVU185
 145:Application/ins_task.c ****     gy *= 0.5f * dt;
 611              		.loc 1 145 5 view .LVU186
 145:Application/ins_task.c ****     gy *= 0.5f * dt;
 612              		.loc 1 145 16 is_stmt 0 view .LVU187
 613 0000 F6EE007A 		vmov.f32	s15, #5.0e-1
 614 0004 61EEA71A 		vmul.f32	s3, s3, s15
 615              	.LVL37:
 145:Application/ins_task.c ****     gy *= 0.5f * dt;
 616              		.loc 1 145 8 view .LVU188
 617 0008 21EE800A 		vmul.f32	s0, s3, s0
 618              	.LVL38:
 146:Application/ins_task.c ****     gz *= 0.5f * dt;
 619              		.loc 1 146 5 is_stmt 1 view .LVU189
 146:Application/ins_task.c ****     gz *= 0.5f * dt;
 620              		.loc 1 146 8 is_stmt 0 view .LVU190
 621 000c 61EEA00A 		vmul.f32	s1, s3, s1
 622              	.LVL39:
 147:Application/ins_task.c ****     qa = q[0];
 623              		.loc 1 147 5 is_stmt 1 view .LVU191
 147:Application/ins_task.c ****     qa = q[0];
 624              		.loc 1 147 8 is_stmt 0 view .LVU192
 625 0010 21EE811A 		vmul.f32	s2, s3, s2
 626              	.LVL40:
 148:Application/ins_task.c ****     qb = q[1];
 627              		.loc 1 148 5 is_stmt 1 view .LVU193
 148:Application/ins_task.c ****     qb = q[1];
 628              		.loc 1 148 8 is_stmt 0 view .LVU194
 629 0014 D0ED001A 		vldr.32	s3, [r0]
 630              	.LVL41:
 149:Application/ins_task.c ****     qc = q[2];
 631              		.loc 1 149 5 is_stmt 1 view .LVU195
 149:Application/ins_task.c ****     qc = q[2];
 632              		.loc 1 149 8 is_stmt 0 view .LVU196
 633 0018 90ED016A 		vldr.32	s12, [r0, #4]
 634              	.LVL42:
 150:Application/ins_task.c ****     q[0] += (-qb * gx - qc * gy - q[3] * gz);
 635              		.loc 1 150 5 is_stmt 1 view .LVU197
 150:Application/ins_task.c ****     q[0] += (-qb * gx - qc * gy - q[3] * gz);
 636              		.loc 1 150 8 is_stmt 0 view .LVU198
 637 001c D0ED026A 		vldr.32	s13, [r0, #8]
 638              	.LVL43:
 151:Application/ins_task.c ****     q[1] += (qa * gx + qc * gz - q[3] * gy);
 639              		.loc 1 151 5 is_stmt 1 view .LVU199
 151:Application/ins_task.c ****     q[1] += (qa * gx + qc * gz - q[3] * gy);
 640              		.loc 1 151 18 is_stmt 0 view .LVU200
 641 0020 66EE407A 		vnmul.f32	s15, s12, s0
ARM GAS  C:\Users\86152\AppData\Local\Temp\ccIGvTB4.s 			page 19


 151:Application/ins_task.c ****     q[1] += (qa * gx + qc * gz - q[3] * gy);
 642              		.loc 1 151 28 view .LVU201
 643 0024 20EEA67A 		vmul.f32	s14, s1, s13
 151:Application/ins_task.c ****     q[1] += (qa * gx + qc * gz - q[3] * gy);
 644              		.loc 1 151 23 view .LVU202
 645 0028 77EEC77A 		vsub.f32	s15, s15, s14
 151:Application/ins_task.c ****     q[1] += (qa * gx + qc * gz - q[3] * gy);
 646              		.loc 1 151 36 view .LVU203
 647 002c 90ED037A 		vldr.32	s14, [r0, #12]
 151:Application/ins_task.c ****     q[1] += (qa * gx + qc * gz - q[3] * gy);
 648              		.loc 1 151 40 view .LVU204
 649 0030 67EE015A 		vmul.f32	s11, s14, s2
 151:Application/ins_task.c ****     q[1] += (qa * gx + qc * gz - q[3] * gy);
 650              		.loc 1 151 33 view .LVU205
 651 0034 77EEE57A 		vsub.f32	s15, s15, s11
 151:Application/ins_task.c ****     q[1] += (qa * gx + qc * gz - q[3] * gy);
 652              		.loc 1 151 10 view .LVU206
 653 0038 77EEA17A 		vadd.f32	s15, s15, s3
 654 003c C0ED007A 		vstr.32	s15, [r0]
 152:Application/ins_task.c ****     q[2] += (qa * gy - qb * gz + q[3] * gx);
 655              		.loc 1 152 5 is_stmt 1 view .LVU207
 152:Application/ins_task.c ****     q[2] += (qa * gy - qb * gz + q[3] * gx);
 656              		.loc 1 152 17 is_stmt 0 view .LVU208
 657 0040 60EE217A 		vmul.f32	s15, s0, s3
 152:Application/ins_task.c ****     q[2] += (qa * gy - qb * gz + q[3] * gx);
 658              		.loc 1 152 27 view .LVU209
 659 0044 61EE265A 		vmul.f32	s11, s2, s13
 152:Application/ins_task.c ****     q[2] += (qa * gy - qb * gz + q[3] * gx);
 660              		.loc 1 152 22 view .LVU210
 661 0048 77EEA57A 		vadd.f32	s15, s15, s11
 152:Application/ins_task.c ****     q[2] += (qa * gy - qb * gz + q[3] * gx);
 662              		.loc 1 152 39 view .LVU211
 663 004c 67EE205A 		vmul.f32	s11, s14, s1
 152:Application/ins_task.c ****     q[2] += (qa * gy - qb * gz + q[3] * gx);
 664              		.loc 1 152 32 view .LVU212
 665 0050 77EEE57A 		vsub.f32	s15, s15, s11
 152:Application/ins_task.c ****     q[2] += (qa * gy - qb * gz + q[3] * gx);
 666              		.loc 1 152 10 view .LVU213
 667 0054 77EE867A 		vadd.f32	s15, s15, s12
 668 0058 C0ED017A 		vstr.32	s15, [r0, #4]
 153:Application/ins_task.c ****     q[3] += (qa * gz + qb * gy - qc * gx);
 669              		.loc 1 153 5 is_stmt 1 view .LVU214
 153:Application/ins_task.c ****     q[3] += (qa * gz + qb * gy - qc * gx);
 670              		.loc 1 153 17 is_stmt 0 view .LVU215
 671 005c 60EEA17A 		vmul.f32	s15, s1, s3
 153:Application/ins_task.c ****     q[3] += (qa * gz + qb * gy - qc * gx);
 672              		.loc 1 153 27 view .LVU216
 673 0060 61EE065A 		vmul.f32	s11, s2, s12
 153:Application/ins_task.c ****     q[3] += (qa * gz + qb * gy - qc * gx);
 674              		.loc 1 153 22 view .LVU217
 675 0064 77EEE57A 		vsub.f32	s15, s15, s11
 153:Application/ins_task.c ****     q[3] += (qa * gz + qb * gy - qc * gx);
 676              		.loc 1 153 39 view .LVU218
 677 0068 67EE005A 		vmul.f32	s11, s14, s0
 153:Application/ins_task.c ****     q[3] += (qa * gz + qb * gy - qc * gx);
 678              		.loc 1 153 32 view .LVU219
 679 006c 77EEA57A 		vadd.f32	s15, s15, s11
ARM GAS  C:\Users\86152\AppData\Local\Temp\ccIGvTB4.s 			page 20


 153:Application/ins_task.c ****     q[3] += (qa * gz + qb * gy - qc * gx);
 680              		.loc 1 153 10 view .LVU220
 681 0070 77EEA67A 		vadd.f32	s15, s15, s13
 682 0074 C0ED027A 		vstr.32	s15, [r0, #8]
 154:Application/ins_task.c **** }
 683              		.loc 1 154 5 is_stmt 1 view .LVU221
 154:Application/ins_task.c **** }
 684              		.loc 1 154 17 is_stmt 0 view .LVU222
 685 0078 21EE211A 		vmul.f32	s2, s2, s3
 686              	.LVL44:
 154:Application/ins_task.c **** }
 687              		.loc 1 154 27 view .LVU223
 688 007c 60EE860A 		vmul.f32	s1, s1, s12
 689              	.LVL45:
 154:Application/ins_task.c **** }
 690              		.loc 1 154 22 view .LVU224
 691 0080 31EE201A 		vadd.f32	s2, s2, s1
 154:Application/ins_task.c **** }
 692              		.loc 1 154 37 view .LVU225
 693 0084 20EE260A 		vmul.f32	s0, s0, s13
 694              	.LVL46:
 154:Application/ins_task.c **** }
 695              		.loc 1 154 32 view .LVU226
 696 0088 31EE401A 		vsub.f32	s2, s2, s0
 154:Application/ins_task.c **** }
 697              		.loc 1 154 10 view .LVU227
 698 008c 37EE011A 		vadd.f32	s2, s14, s2
 699 0090 80ED031A 		vstr.32	s2, [r0, #12]
 155:Application/ins_task.c **** 
 700              		.loc 1 155 1 view .LVU228
 701 0094 7047     		bx	lr
 702              		.cfi_endproc
 703              	.LFE174:
 705              		.section	.text.QuaternionToEularAngle,"ax",%progbits
 706              		.align	1
 707              		.global	QuaternionToEularAngle
 708              		.syntax unified
 709              		.thumb
 710              		.thumb_func
 712              	QuaternionToEularAngle:
 713              	.LVL47:
 714              	.LFB175:
 161:Application/ins_task.c ****     *Yaw = atan2f(2.0f * (q[0] * q[3] + q[1] * q[2]), 2.0f * (q[0] * q[0] + q[1] * q[1]) - 1.0f) * 
 715              		.loc 1 161 1 is_stmt 1 view -0
 716              		.cfi_startproc
 717              		@ args = 0, pretend = 0, frame = 0
 718              		@ frame_needed = 0, uses_anonymous_args = 0
 161:Application/ins_task.c ****     *Yaw = atan2f(2.0f * (q[0] * q[3] + q[1] * q[2]), 2.0f * (q[0] * q[0] + q[1] * q[1]) - 1.0f) * 
 719              		.loc 1 161 1 is_stmt 0 view .LVU230
 720 0000 F8B5     		push	{r3, r4, r5, r6, r7, lr}
 721              	.LCFI8:
 722              		.cfi_def_cfa_offset 24
 723              		.cfi_offset 3, -24
 724              		.cfi_offset 4, -20
 725              		.cfi_offset 5, -16
 726              		.cfi_offset 6, -12
 727              		.cfi_offset 7, -8
ARM GAS  C:\Users\86152\AppData\Local\Temp\ccIGvTB4.s 			page 21


 728              		.cfi_offset 14, -4
 729 0002 2DED028B 		vpush.64	{d8}
 730              	.LCFI9:
 731              		.cfi_def_cfa_offset 32
 732              		.cfi_offset 80, -32
 733              		.cfi_offset 81, -28
 734 0006 0446     		mov	r4, r0
 735 0008 0F46     		mov	r7, r1
 736 000a 1646     		mov	r6, r2
 737 000c 1D46     		mov	r5, r3
 162:Application/ins_task.c ****     *Pitch = atan2f(2.0f * (q[0] * q[1] + q[2] * q[3]), 2.0f * (q[0] * q[0] + q[3] * q[3]) - 1.0f) 
 738              		.loc 1 162 5 is_stmt 1 view .LVU231
 162:Application/ins_task.c ****     *Pitch = atan2f(2.0f * (q[0] * q[1] + q[2] * q[3]), 2.0f * (q[0] * q[0] + q[3] * q[3]) - 1.0f) 
 739              		.loc 1 162 28 is_stmt 0 view .LVU232
 740 000e D0ED000A 		vldr.32	s1, [r0]
 162:Application/ins_task.c ****     *Pitch = atan2f(2.0f * (q[0] * q[1] + q[2] * q[3]), 2.0f * (q[0] * q[0] + q[3] * q[3]) - 1.0f) 
 741              		.loc 1 162 35 view .LVU233
 742 0012 90ED030A 		vldr.32	s0, [r0, #12]
 162:Application/ins_task.c ****     *Pitch = atan2f(2.0f * (q[0] * q[1] + q[2] * q[3]), 2.0f * (q[0] * q[0] + q[3] * q[3]) - 1.0f) 
 743              		.loc 1 162 32 view .LVU234
 744 0016 20EE800A 		vmul.f32	s0, s1, s0
 162:Application/ins_task.c ****     *Pitch = atan2f(2.0f * (q[0] * q[1] + q[2] * q[3]), 2.0f * (q[0] * q[0] + q[3] * q[3]) - 1.0f) 
 745              		.loc 1 162 42 view .LVU235
 746 001a D0ED017A 		vldr.32	s15, [r0, #4]
 162:Application/ins_task.c ****     *Pitch = atan2f(2.0f * (q[0] * q[1] + q[2] * q[3]), 2.0f * (q[0] * q[0] + q[3] * q[3]) - 1.0f) 
 747              		.loc 1 162 49 view .LVU236
 748 001e 90ED027A 		vldr.32	s14, [r0, #8]
 162:Application/ins_task.c ****     *Pitch = atan2f(2.0f * (q[0] * q[1] + q[2] * q[3]), 2.0f * (q[0] * q[0] + q[3] * q[3]) - 1.0f) 
 749              		.loc 1 162 46 view .LVU237
 750 0022 27EE877A 		vmul.f32	s14, s15, s14
 162:Application/ins_task.c ****     *Pitch = atan2f(2.0f * (q[0] * q[1] + q[2] * q[3]), 2.0f * (q[0] * q[0] + q[3] * q[3]) - 1.0f) 
 751              		.loc 1 162 39 view .LVU238
 752 0026 30EE070A 		vadd.f32	s0, s0, s14
 162:Application/ins_task.c ****     *Pitch = atan2f(2.0f * (q[0] * q[1] + q[2] * q[3]), 2.0f * (q[0] * q[0] + q[3] * q[3]) - 1.0f) 
 753              		.loc 1 162 68 view .LVU239
 754 002a 60EEA00A 		vmul.f32	s1, s1, s1
 162:Application/ins_task.c ****     *Pitch = atan2f(2.0f * (q[0] * q[1] + q[2] * q[3]), 2.0f * (q[0] * q[0] + q[3] * q[3]) - 1.0f) 
 755              		.loc 1 162 82 view .LVU240
 756 002e 67EEA77A 		vmul.f32	s15, s15, s15
 162:Application/ins_task.c ****     *Pitch = atan2f(2.0f * (q[0] * q[1] + q[2] * q[3]), 2.0f * (q[0] * q[0] + q[3] * q[3]) - 1.0f) 
 757              		.loc 1 162 75 view .LVU241
 758 0032 70EEA70A 		vadd.f32	s1, s1, s15
 162:Application/ins_task.c ****     *Pitch = atan2f(2.0f * (q[0] * q[1] + q[2] * q[3]), 2.0f * (q[0] * q[0] + q[3] * q[3]) - 1.0f) 
 759              		.loc 1 162 60 view .LVU242
 760 0036 70EEA00A 		vadd.f32	s1, s1, s1
 162:Application/ins_task.c ****     *Pitch = atan2f(2.0f * (q[0] * q[1] + q[2] * q[3]), 2.0f * (q[0] * q[0] + q[3] * q[3]) - 1.0f) 
 761              		.loc 1 162 12 view .LVU243
 762 003a F7EE008A 		vmov.f32	s17, #1.0e+0
 763 003e 70EEE80A 		vsub.f32	s1, s1, s17
 764 0042 30EE000A 		vadd.f32	s0, s0, s0
 765 0046 FFF7FEFF 		bl	atan2f
 766              	.LVL48:
 162:Application/ins_task.c ****     *Pitch = atan2f(2.0f * (q[0] * q[1] + q[2] * q[3]), 2.0f * (q[0] * q[0] + q[3] * q[3]) - 1.0f) 
 767              		.loc 1 162 98 view .LVU244
 768 004a 9FED1F8A 		vldr.32	s16, .L18
 769 004e 20EE080A 		vmul.f32	s0, s0, s16
 162:Application/ins_task.c ****     *Pitch = atan2f(2.0f * (q[0] * q[1] + q[2] * q[3]), 2.0f * (q[0] * q[0] + q[3] * q[3]) - 1.0f) 
ARM GAS  C:\Users\86152\AppData\Local\Temp\ccIGvTB4.s 			page 22


 770              		.loc 1 162 10 view .LVU245
 771 0052 87ED000A 		vstr.32	s0, [r7]
 163:Application/ins_task.c ****     *Roll = asinf(2.0f * (q[0] * q[2] - q[1] * q[3])) * 57.295779513f;
 772              		.loc 1 163 5 is_stmt 1 view .LVU246
 163:Application/ins_task.c ****     *Roll = asinf(2.0f * (q[0] * q[2] - q[1] * q[3])) * 57.295779513f;
 773              		.loc 1 163 30 is_stmt 0 view .LVU247
 774 0056 D4ED000A 		vldr.32	s1, [r4]
 163:Application/ins_task.c ****     *Roll = asinf(2.0f * (q[0] * q[2] - q[1] * q[3])) * 57.295779513f;
 775              		.loc 1 163 37 view .LVU248
 776 005a 94ED010A 		vldr.32	s0, [r4, #4]
 163:Application/ins_task.c ****     *Roll = asinf(2.0f * (q[0] * q[2] - q[1] * q[3])) * 57.295779513f;
 777              		.loc 1 163 34 view .LVU249
 778 005e 20EE800A 		vmul.f32	s0, s1, s0
 163:Application/ins_task.c ****     *Roll = asinf(2.0f * (q[0] * q[2] - q[1] * q[3])) * 57.295779513f;
 779              		.loc 1 163 44 view .LVU250
 780 0062 94ED027A 		vldr.32	s14, [r4, #8]
 163:Application/ins_task.c ****     *Roll = asinf(2.0f * (q[0] * q[2] - q[1] * q[3])) * 57.295779513f;
 781              		.loc 1 163 51 view .LVU251
 782 0066 D4ED037A 		vldr.32	s15, [r4, #12]
 163:Application/ins_task.c ****     *Roll = asinf(2.0f * (q[0] * q[2] - q[1] * q[3])) * 57.295779513f;
 783              		.loc 1 163 48 view .LVU252
 784 006a 27EE277A 		vmul.f32	s14, s14, s15
 163:Application/ins_task.c ****     *Roll = asinf(2.0f * (q[0] * q[2] - q[1] * q[3])) * 57.295779513f;
 785              		.loc 1 163 41 view .LVU253
 786 006e 30EE070A 		vadd.f32	s0, s0, s14
 163:Application/ins_task.c ****     *Roll = asinf(2.0f * (q[0] * q[2] - q[1] * q[3])) * 57.295779513f;
 787              		.loc 1 163 70 view .LVU254
 788 0072 60EEA00A 		vmul.f32	s1, s1, s1
 163:Application/ins_task.c ****     *Roll = asinf(2.0f * (q[0] * q[2] - q[1] * q[3])) * 57.295779513f;
 789              		.loc 1 163 84 view .LVU255
 790 0076 67EEA77A 		vmul.f32	s15, s15, s15
 163:Application/ins_task.c ****     *Roll = asinf(2.0f * (q[0] * q[2] - q[1] * q[3])) * 57.295779513f;
 791              		.loc 1 163 77 view .LVU256
 792 007a 70EEA70A 		vadd.f32	s1, s1, s15
 163:Application/ins_task.c ****     *Roll = asinf(2.0f * (q[0] * q[2] - q[1] * q[3])) * 57.295779513f;
 793              		.loc 1 163 62 view .LVU257
 794 007e 70EEA00A 		vadd.f32	s1, s1, s1
 163:Application/ins_task.c ****     *Roll = asinf(2.0f * (q[0] * q[2] - q[1] * q[3])) * 57.295779513f;
 795              		.loc 1 163 14 view .LVU258
 796 0082 70EEE80A 		vsub.f32	s1, s1, s17
 797 0086 30EE000A 		vadd.f32	s0, s0, s0
 798 008a FFF7FEFF 		bl	atan2f
 799              	.LVL49:
 163:Application/ins_task.c ****     *Roll = asinf(2.0f * (q[0] * q[2] - q[1] * q[3])) * 57.295779513f;
 800              		.loc 1 163 100 view .LVU259
 801 008e 20EE080A 		vmul.f32	s0, s0, s16
 163:Application/ins_task.c ****     *Roll = asinf(2.0f * (q[0] * q[2] - q[1] * q[3])) * 57.295779513f;
 802              		.loc 1 163 12 view .LVU260
 803 0092 86ED000A 		vstr.32	s0, [r6]
 164:Application/ins_task.c **** }
 804              		.loc 1 164 5 is_stmt 1 view .LVU261
 164:Application/ins_task.c **** }
 805              		.loc 1 164 28 is_stmt 0 view .LVU262
 806 0096 94ED000A 		vldr.32	s0, [r4]
 164:Application/ins_task.c **** }
 807              		.loc 1 164 35 view .LVU263
 808 009a D4ED027A 		vldr.32	s15, [r4, #8]
ARM GAS  C:\Users\86152\AppData\Local\Temp\ccIGvTB4.s 			page 23


 164:Application/ins_task.c **** }
 809              		.loc 1 164 32 view .LVU264
 810 009e 20EE270A 		vmul.f32	s0, s0, s15
 164:Application/ins_task.c **** }
 811              		.loc 1 164 42 view .LVU265
 812 00a2 D4ED017A 		vldr.32	s15, [r4, #4]
 164:Application/ins_task.c **** }
 813              		.loc 1 164 49 view .LVU266
 814 00a6 94ED037A 		vldr.32	s14, [r4, #12]
 164:Application/ins_task.c **** }
 815              		.loc 1 164 46 view .LVU267
 816 00aa 67EE877A 		vmul.f32	s15, s15, s14
 164:Application/ins_task.c **** }
 817              		.loc 1 164 39 view .LVU268
 818 00ae 30EE670A 		vsub.f32	s0, s0, s15
 164:Application/ins_task.c **** }
 819              		.loc 1 164 13 view .LVU269
 820 00b2 30EE000A 		vadd.f32	s0, s0, s0
 821 00b6 FFF7FEFF 		bl	asinf
 822              	.LVL50:
 164:Application/ins_task.c **** }
 823              		.loc 1 164 55 view .LVU270
 824 00ba 20EE080A 		vmul.f32	s0, s0, s16
 164:Application/ins_task.c **** }
 825              		.loc 1 164 11 view .LVU271
 826 00be 85ED000A 		vstr.32	s0, [r5]
 165:Application/ins_task.c **** 
 827              		.loc 1 165 1 view .LVU272
 828 00c2 BDEC028B 		vldm	sp!, {d8}
 829              	.LCFI10:
 830              		.cfi_restore 80
 831              		.cfi_restore 81
 832              		.cfi_def_cfa_offset 24
 833 00c6 F8BD     		pop	{r3, r4, r5, r6, r7, pc}
 834              	.LVL51:
 835              	.L19:
 165:Application/ins_task.c **** 
 836              		.loc 1 165 1 view .LVU273
 837              		.align	2
 838              	.L18:
 839 00c8 E12E6542 		.word	1113927393
 840              		.cfi_endproc
 841              	.LFE175:
 843              		.section	.text.EularAngleToQuaternion,"ax",%progbits
 844              		.align	1
 845              		.global	EularAngleToQuaternion
 846              		.syntax unified
 847              		.thumb
 848              		.thumb_func
 850              	EularAngleToQuaternion:
 851              	.LVL52:
 852              	.LFB176:
 171:Application/ins_task.c ****     float cosPitch, cosYaw, cosRoll, sinPitch, sinYaw, sinRoll;
 853              		.loc 1 171 1 is_stmt 1 view -0
 854              		.cfi_startproc
 855              		@ args = 0, pretend = 0, frame = 0
 856              		@ frame_needed = 0, uses_anonymous_args = 0
ARM GAS  C:\Users\86152\AppData\Local\Temp\ccIGvTB4.s 			page 24


 171:Application/ins_task.c ****     float cosPitch, cosYaw, cosRoll, sinPitch, sinYaw, sinRoll;
 857              		.loc 1 171 1 is_stmt 0 view .LVU275
 858 0000 10B5     		push	{r4, lr}
 859              	.LCFI11:
 860              		.cfi_def_cfa_offset 8
 861              		.cfi_offset 4, -8
 862              		.cfi_offset 14, -4
 863 0002 2DED088B 		vpush.64	{d8, d9, d10, d11}
 864              	.LCFI12:
 865              		.cfi_def_cfa_offset 40
 866              		.cfi_offset 80, -40
 867              		.cfi_offset 81, -36
 868              		.cfi_offset 82, -32
 869              		.cfi_offset 83, -28
 870              		.cfi_offset 84, -24
 871              		.cfi_offset 85, -20
 872              		.cfi_offset 86, -16
 873              		.cfi_offset 87, -12
 874 0006 0446     		mov	r4, r0
 172:Application/ins_task.c ****     Yaw /= 57.295779513f;
 875              		.loc 1 172 5 is_stmt 1 view .LVU276
 173:Application/ins_task.c ****     Pitch /= 57.295779513f;
 876              		.loc 1 173 5 view .LVU277
 173:Application/ins_task.c ****     Pitch /= 57.295779513f;
 877              		.loc 1 173 9 is_stmt 0 view .LVU278
 878 0008 DFED2E7A 		vldr.32	s15, .L22
 879 000c C0EE279A 		vdiv.f32	s19, s0, s15
 880              	.LVL53:
 174:Application/ins_task.c ****     Roll /= 57.295779513f;
 881              		.loc 1 174 5 is_stmt 1 view .LVU279
 174:Application/ins_task.c ****     Roll /= 57.295779513f;
 882              		.loc 1 174 11 is_stmt 0 view .LVU280
 883 0010 80EEA7AA 		vdiv.f32	s20, s1, s15
 884              	.LVL54:
 175:Application/ins_task.c ****     cosPitch = arm_cos_f32(Pitch / 2);
 885              		.loc 1 175 5 is_stmt 1 view .LVU281
 175:Application/ins_task.c ****     cosPitch = arm_cos_f32(Pitch / 2);
 886              		.loc 1 175 10 is_stmt 0 view .LVU282
 887 0014 C1EE27AA 		vdiv.f32	s21, s2, s15
 888              	.LVL55:
 176:Application/ins_task.c ****     cosYaw = arm_cos_f32(Yaw / 2);
 889              		.loc 1 176 5 is_stmt 1 view .LVU283
 176:Application/ins_task.c ****     cosYaw = arm_cos_f32(Yaw / 2);
 890              		.loc 1 176 16 is_stmt 0 view .LVU284
 891 0018 B6EE00BA 		vmov.f32	s22, #5.0e-1
 892 001c 2AEE0BAA 		vmul.f32	s20, s20, s22
 893              	.LVL56:
 176:Application/ins_task.c ****     cosYaw = arm_cos_f32(Yaw / 2);
 894              		.loc 1 176 16 view .LVU285
 895 0020 B0EE4A0A 		vmov.f32	s0, s20
 896 0024 FFF7FEFF 		bl	arm_cos_f32
 897              	.LVL57:
 176:Application/ins_task.c ****     cosYaw = arm_cos_f32(Yaw / 2);
 898              		.loc 1 176 16 view .LVU286
 899 0028 F0EE408A 		vmov.f32	s17, s0
 900              	.LVL58:
 177:Application/ins_task.c ****     cosRoll = arm_cos_f32(Roll / 2);
ARM GAS  C:\Users\86152\AppData\Local\Temp\ccIGvTB4.s 			page 25


 901              		.loc 1 177 5 is_stmt 1 view .LVU287
 177:Application/ins_task.c ****     cosRoll = arm_cos_f32(Roll / 2);
 902              		.loc 1 177 14 is_stmt 0 view .LVU288
 903 002c 69EE8B9A 		vmul.f32	s19, s19, s22
 904              	.LVL59:
 177:Application/ins_task.c ****     cosRoll = arm_cos_f32(Roll / 2);
 905              		.loc 1 177 14 view .LVU289
 906 0030 B0EE690A 		vmov.f32	s0, s19
 907              	.LVL60:
 177:Application/ins_task.c ****     cosRoll = arm_cos_f32(Roll / 2);
 908              		.loc 1 177 14 view .LVU290
 909 0034 FFF7FEFF 		bl	arm_cos_f32
 910              	.LVL61:
 911 0038 B0EE409A 		vmov.f32	s18, s0
 912              	.LVL62:
 178:Application/ins_task.c ****     sinPitch = arm_sin_f32(Pitch / 2);
 913              		.loc 1 178 5 is_stmt 1 view .LVU291
 178:Application/ins_task.c ****     sinPitch = arm_sin_f32(Pitch / 2);
 914              		.loc 1 178 15 is_stmt 0 view .LVU292
 915 003c 6AEE8BAA 		vmul.f32	s21, s21, s22
 916              	.LVL63:
 178:Application/ins_task.c ****     sinPitch = arm_sin_f32(Pitch / 2);
 917              		.loc 1 178 15 view .LVU293
 918 0040 B0EE6A0A 		vmov.f32	s0, s21
 919              	.LVL64:
 178:Application/ins_task.c ****     sinPitch = arm_sin_f32(Pitch / 2);
 920              		.loc 1 178 15 view .LVU294
 921 0044 FFF7FEFF 		bl	arm_cos_f32
 922              	.LVL65:
 923 0048 B0EE408A 		vmov.f32	s16, s0
 924              	.LVL66:
 179:Application/ins_task.c ****     sinYaw = arm_sin_f32(Yaw / 2);
 925              		.loc 1 179 5 is_stmt 1 view .LVU295
 179:Application/ins_task.c ****     sinYaw = arm_sin_f32(Yaw / 2);
 926              		.loc 1 179 16 is_stmt 0 view .LVU296
 927 004c B0EE4A0A 		vmov.f32	s0, s20
 928              	.LVL67:
 179:Application/ins_task.c ****     sinYaw = arm_sin_f32(Yaw / 2);
 929              		.loc 1 179 16 view .LVU297
 930 0050 FFF7FEFF 		bl	arm_sin_f32
 931              	.LVL68:
 932 0054 B0EE40AA 		vmov.f32	s20, s0
 933              	.LVL69:
 180:Application/ins_task.c ****     sinRoll = arm_sin_f32(Roll / 2);
 934              		.loc 1 180 5 is_stmt 1 view .LVU298
 180:Application/ins_task.c ****     sinRoll = arm_sin_f32(Roll / 2);
 935              		.loc 1 180 14 is_stmt 0 view .LVU299
 936 0058 B0EE690A 		vmov.f32	s0, s19
 937              	.LVL70:
 180:Application/ins_task.c ****     sinRoll = arm_sin_f32(Roll / 2);
 938              		.loc 1 180 14 view .LVU300
 939 005c FFF7FEFF 		bl	arm_sin_f32
 940              	.LVL71:
 941 0060 F0EE409A 		vmov.f32	s19, s0
 942              	.LVL72:
 181:Application/ins_task.c ****     q[0] = cosPitch * cosRoll * cosYaw + sinPitch * sinRoll * sinYaw;
 943              		.loc 1 181 5 is_stmt 1 view .LVU301
ARM GAS  C:\Users\86152\AppData\Local\Temp\ccIGvTB4.s 			page 26


 181:Application/ins_task.c ****     q[0] = cosPitch * cosRoll * cosYaw + sinPitch * sinRoll * sinYaw;
 944              		.loc 1 181 15 is_stmt 0 view .LVU302
 945 0064 B0EE6A0A 		vmov.f32	s0, s21
 946              	.LVL73:
 181:Application/ins_task.c ****     q[0] = cosPitch * cosRoll * cosYaw + sinPitch * sinRoll * sinYaw;
 947              		.loc 1 181 15 view .LVU303
 948 0068 FFF7FEFF 		bl	arm_sin_f32
 949              	.LVL74:
 182:Application/ins_task.c ****     q[1] = sinPitch * cosRoll * cosYaw - cosPitch * sinRoll * sinYaw;
 950              		.loc 1 182 5 is_stmt 1 view .LVU304
 182:Application/ins_task.c ****     q[1] = sinPitch * cosRoll * cosYaw - cosPitch * sinRoll * sinYaw;
 951              		.loc 1 182 21 is_stmt 0 view .LVU305
 952 006c 68EE887A 		vmul.f32	s15, s17, s16
 182:Application/ins_task.c ****     q[1] = sinPitch * cosRoll * cosYaw - cosPitch * sinRoll * sinYaw;
 953              		.loc 1 182 31 view .LVU306
 954 0070 67EE896A 		vmul.f32	s13, s15, s18
 182:Application/ins_task.c ****     q[1] = sinPitch * cosRoll * cosYaw - cosPitch * sinRoll * sinYaw;
 955              		.loc 1 182 51 view .LVU307
 956 0074 2AEE007A 		vmul.f32	s14, s20, s0
 182:Application/ins_task.c ****     q[1] = sinPitch * cosRoll * cosYaw - cosPitch * sinRoll * sinYaw;
 957              		.loc 1 182 61 view .LVU308
 958 0078 27EE296A 		vmul.f32	s12, s14, s19
 182:Application/ins_task.c ****     q[1] = sinPitch * cosRoll * cosYaw - cosPitch * sinRoll * sinYaw;
 959              		.loc 1 182 40 view .LVU309
 960 007c 76EE866A 		vadd.f32	s13, s13, s12
 182:Application/ins_task.c ****     q[1] = sinPitch * cosRoll * cosYaw - cosPitch * sinRoll * sinYaw;
 961              		.loc 1 182 10 view .LVU310
 962 0080 C4ED006A 		vstr.32	s13, [r4]
 183:Application/ins_task.c ****     q[2] = sinPitch * cosRoll * sinYaw + cosPitch * sinRoll * cosYaw;
 963              		.loc 1 183 5 is_stmt 1 view .LVU311
 183:Application/ins_task.c ****     q[2] = sinPitch * cosRoll * sinYaw + cosPitch * sinRoll * cosYaw;
 964              		.loc 1 183 21 is_stmt 0 view .LVU312
 965 0084 28EE0A8A 		vmul.f32	s16, s16, s20
 966              	.LVL75:
 183:Application/ins_task.c ****     q[2] = sinPitch * cosRoll * sinYaw + cosPitch * sinRoll * cosYaw;
 967              		.loc 1 183 31 view .LVU313
 968 0088 68EE096A 		vmul.f32	s13, s16, s18
 183:Application/ins_task.c ****     q[2] = sinPitch * cosRoll * sinYaw + cosPitch * sinRoll * cosYaw;
 969              		.loc 1 183 51 view .LVU314
 970 008c 68EE808A 		vmul.f32	s17, s17, s0
 971              	.LVL76:
 183:Application/ins_task.c ****     q[2] = sinPitch * cosRoll * sinYaw + cosPitch * sinRoll * cosYaw;
 972              		.loc 1 183 61 view .LVU315
 973 0090 28EEA96A 		vmul.f32	s12, s17, s19
 183:Application/ins_task.c ****     q[2] = sinPitch * cosRoll * sinYaw + cosPitch * sinRoll * cosYaw;
 974              		.loc 1 183 40 view .LVU316
 975 0094 76EEC66A 		vsub.f32	s13, s13, s12
 183:Application/ins_task.c ****     q[2] = sinPitch * cosRoll * sinYaw + cosPitch * sinRoll * cosYaw;
 976              		.loc 1 183 10 view .LVU317
 977 0098 C4ED016A 		vstr.32	s13, [r4, #4]
 184:Application/ins_task.c ****     q[3] = cosPitch * cosRoll * sinYaw - sinPitch * sinRoll * cosYaw;
 978              		.loc 1 184 5 is_stmt 1 view .LVU318
 184:Application/ins_task.c ****     q[3] = cosPitch * cosRoll * sinYaw - sinPitch * sinRoll * cosYaw;
 979              		.loc 1 184 31 is_stmt 0 view .LVU319
 980 009c 28EE298A 		vmul.f32	s16, s16, s19
 184:Application/ins_task.c ****     q[3] = cosPitch * cosRoll * sinYaw - sinPitch * sinRoll * cosYaw;
 981              		.loc 1 184 61 view .LVU320
ARM GAS  C:\Users\86152\AppData\Local\Temp\ccIGvTB4.s 			page 27


 982 00a0 68EE898A 		vmul.f32	s17, s17, s18
 184:Application/ins_task.c ****     q[3] = cosPitch * cosRoll * sinYaw - sinPitch * sinRoll * cosYaw;
 983              		.loc 1 184 40 view .LVU321
 984 00a4 38EE288A 		vadd.f32	s16, s16, s17
 184:Application/ins_task.c ****     q[3] = cosPitch * cosRoll * sinYaw - sinPitch * sinRoll * cosYaw;
 985              		.loc 1 184 10 view .LVU322
 986 00a8 84ED028A 		vstr.32	s16, [r4, #8]
 185:Application/ins_task.c **** }
 987              		.loc 1 185 5 is_stmt 1 view .LVU323
 185:Application/ins_task.c **** }
 988              		.loc 1 185 31 is_stmt 0 view .LVU324
 989 00ac 67EEA97A 		vmul.f32	s15, s15, s19
 185:Application/ins_task.c **** }
 990              		.loc 1 185 61 view .LVU325
 991 00b0 27EE097A 		vmul.f32	s14, s14, s18
 185:Application/ins_task.c **** }
 992              		.loc 1 185 40 view .LVU326
 993 00b4 77EEC77A 		vsub.f32	s15, s15, s14
 185:Application/ins_task.c **** }
 994              		.loc 1 185 10 view .LVU327
 995 00b8 C4ED037A 		vstr.32	s15, [r4, #12]
 186:Application/ins_task.c **** 
 996              		.loc 1 186 1 view .LVU328
 997 00bc BDEC088B 		vldm	sp!, {d8-d11}
 998              	.LCFI13:
 999              		.cfi_restore 86
 1000              		.cfi_restore 87
 1001              		.cfi_restore 84
 1002              		.cfi_restore 85
 1003              		.cfi_restore 82
 1004              		.cfi_restore 83
 1005              		.cfi_restore 80
 1006              		.cfi_restore 81
 1007              		.cfi_def_cfa_offset 8
 1008              	.LVL77:
 186:Application/ins_task.c **** 
 1009              		.loc 1 186 1 view .LVU329
 1010 00c0 10BD     		pop	{r4, pc}
 1011              	.LVL78:
 1012              	.L23:
 186:Application/ins_task.c **** 
 1013              		.loc 1 186 1 view .LVU330
 1014 00c2 00BF     		.align	2
 1015              	.L22:
 1016 00c4 E12E6542 		.word	1113927393
 1017              		.cfi_endproc
 1018              	.LFE176:
 1020              		.section	.text.InsertQuaternionFrame,"ax",%progbits
 1021              		.align	1
 1022              		.global	InsertQuaternionFrame
 1023              		.syntax unified
 1024              		.thumb
 1025              		.thumb_func
 1027              	InsertQuaternionFrame:
 1028              	.LVL79:
 1029              	.LFB177:
 189:Application/ins_task.c ****     if (qBuf->LatestNum == Q_FRAME_LEN - 1)
ARM GAS  C:\Users\86152\AppData\Local\Temp\ccIGvTB4.s 			page 28


 1030              		.loc 1 189 1 is_stmt 1 view -0
 1031              		.cfi_startproc
 1032              		@ args = 0, pretend = 0, frame = 0
 1033              		@ frame_needed = 0, uses_anonymous_args = 0
 189:Application/ins_task.c ****     if (qBuf->LatestNum == Q_FRAME_LEN - 1)
 1034              		.loc 1 189 1 is_stmt 0 view .LVU332
 1035 0000 00B5     		push	{lr}
 1036              	.LCFI14:
 1037              		.cfi_def_cfa_offset 4
 1038              		.cfi_offset 14, -4
 190:Application/ins_task.c ****         qBuf->LatestNum = 0;
 1039              		.loc 1 190 5 is_stmt 1 view .LVU333
 190:Application/ins_task.c ****         qBuf->LatestNum = 0;
 1040              		.loc 1 190 13 is_stmt 0 view .LVU334
 1041 0002 B0F840C6 		ldrh	ip, [r0, #1600]
 190:Application/ins_task.c ****         qBuf->LatestNum = 0;
 1042              		.loc 1 190 8 view .LVU335
 1043 0006 BCF1310F 		cmp	ip, #49
 1044 000a 0BD0     		beq	.L32
 193:Application/ins_task.c **** 
 1045              		.loc 1 193 9 is_stmt 1 view .LVU336
 193:Application/ins_task.c **** 
 1046              		.loc 1 193 24 is_stmt 0 view .LVU337
 1047 000c 0CF1010C 		add	ip, ip, #1
 1048 0010 A0F840C6 		strh	ip, [r0, #1600]	@ movhi
 1049              	.L26:
 195:Application/ins_task.c ****     for (uint16_t i = 0; i < 4; i++)
 1050              		.loc 1 195 5 is_stmt 1 view .LVU338
 195:Application/ins_task.c ****     for (uint16_t i = 0; i < 4; i++)
 1051              		.loc 1 195 22 is_stmt 0 view .LVU339
 1052 0014 B0F840E6 		ldrh	lr, [r0, #1600]
 195:Application/ins_task.c ****     for (uint16_t i = 0; i < 4; i++)
 1053              		.loc 1 195 48 view .LVU340
 1054 0018 00EB4E1C 		add	ip, r0, lr, lsl #5
 1055 001c CCF81C30 		str	r3, [ip, #28]
 196:Application/ins_task.c ****         qBuf->qFrame[qBuf->LatestNum].q[i] = q[i];
 1056              		.loc 1 196 5 is_stmt 1 view .LVU341
 1057              	.LBB4:
 196:Application/ins_task.c ****         qBuf->qFrame[qBuf->LatestNum].q[i] = q[i];
 1058              		.loc 1 196 10 view .LVU342
 1059              	.LVL80:
 196:Application/ins_task.c ****         qBuf->qFrame[qBuf->LatestNum].q[i] = q[i];
 1060              		.loc 1 196 19 is_stmt 0 view .LVU343
 1061 0020 0023     		movs	r3, #0
 1062              	.LVL81:
 196:Application/ins_task.c ****         qBuf->qFrame[qBuf->LatestNum].q[i] = q[i];
 1063              		.loc 1 196 5 view .LVU344
 1064 0022 10E0     		b	.L27
 1065              	.LVL82:
 1066              	.L32:
 196:Application/ins_task.c ****         qBuf->qFrame[qBuf->LatestNum].q[i] = q[i];
 1067              		.loc 1 196 5 view .LVU345
 1068              	.LBE4:
 191:Application/ins_task.c ****     else
 1069              		.loc 1 191 9 is_stmt 1 view .LVU346
 191:Application/ins_task.c ****     else
 1070              		.loc 1 191 25 is_stmt 0 view .LVU347
ARM GAS  C:\Users\86152\AppData\Local\Temp\ccIGvTB4.s 			page 29


 1071 0024 4FF0000C 		mov	ip, #0
 1072 0028 A0F840C6 		strh	ip, [r0, #1600]	@ movhi
 1073 002c F2E7     		b	.L26
 1074              	.LVL83:
 1075              	.L28:
 1076              	.LBB5:
 197:Application/ins_task.c ****     for (uint16_t i = 0; i < 3; i++)
 1077              		.loc 1 197 9 is_stmt 1 discriminator 3 view .LVU348
 197:Application/ins_task.c ****     for (uint16_t i = 0; i < 3; i++)
 1078              		.loc 1 197 47 is_stmt 0 discriminator 3 view .LVU349
 1079 002e 01EB830C 		add	ip, r1, r3, lsl #2
 1080 0032 DCED007A 		vldr.32	s15, [ip]
 197:Application/ins_task.c ****     for (uint16_t i = 0; i < 3; i++)
 1081              		.loc 1 197 44 discriminator 3 view .LVU350
 1082 0036 03EBCE0C 		add	ip, r3, lr, lsl #3
 1083 003a 00EB8C0C 		add	ip, r0, ip, lsl #2
 1084 003e CCED007A 		vstr.32	s15, [ip]
 196:Application/ins_task.c ****         qBuf->qFrame[qBuf->LatestNum].q[i] = q[i];
 1085              		.loc 1 196 33 is_stmt 1 discriminator 3 view .LVU351
 196:Application/ins_task.c ****         qBuf->qFrame[qBuf->LatestNum].q[i] = q[i];
 1086              		.loc 1 196 34 is_stmt 0 discriminator 3 view .LVU352
 1087 0042 0133     		adds	r3, r3, #1
 1088              	.LVL84:
 196:Application/ins_task.c ****         qBuf->qFrame[qBuf->LatestNum].q[i] = q[i];
 1089              		.loc 1 196 34 discriminator 3 view .LVU353
 1090 0044 9BB2     		uxth	r3, r3
 1091              	.LVL85:
 1092              	.L27:
 196:Application/ins_task.c ****         qBuf->qFrame[qBuf->LatestNum].q[i] = q[i];
 1093              		.loc 1 196 26 is_stmt 1 discriminator 1 view .LVU354
 196:Application/ins_task.c ****         qBuf->qFrame[qBuf->LatestNum].q[i] = q[i];
 1094              		.loc 1 196 5 is_stmt 0 discriminator 1 view .LVU355
 1095 0046 032B     		cmp	r3, #3
 1096 0048 F1D9     		bls	.L28
 1097              	.LBE5:
 1098              	.LBB6:
 198:Application/ins_task.c ****         qBuf->qFrame[qBuf->LatestNum].MotionAccel_n[i] = motion_acc_n[i];
 1099              		.loc 1 198 19 view .LVU356
 1100 004a 0023     		movs	r3, #0
 1101              	.LVL86:
 198:Application/ins_task.c ****         qBuf->qFrame[qBuf->LatestNum].MotionAccel_n[i] = motion_acc_n[i];
 1102              		.loc 1 198 19 view .LVU357
 1103 004c 0CE0     		b	.L29
 1104              	.LVL87:
 1105              	.L30:
 199:Application/ins_task.c **** }
 1106              		.loc 1 199 9 is_stmt 1 discriminator 3 view .LVU358
 199:Application/ins_task.c **** }
 1107              		.loc 1 199 70 is_stmt 0 discriminator 3 view .LVU359
 1108 004e 02EB8301 		add	r1, r2, r3, lsl #2
 1109 0052 D1F800C0 		ldr	ip, [r1]	@ float
 199:Application/ins_task.c **** }
 1110              		.loc 1 199 56 discriminator 3 view .LVU360
 1111 0056 03EBCE01 		add	r1, r3, lr, lsl #3
 1112 005a 0431     		adds	r1, r1, #4
 1113 005c 00EB8101 		add	r1, r0, r1, lsl #2
 1114 0060 C1F800C0 		str	ip, [r1]	@ float
ARM GAS  C:\Users\86152\AppData\Local\Temp\ccIGvTB4.s 			page 30


 198:Application/ins_task.c ****         qBuf->qFrame[qBuf->LatestNum].MotionAccel_n[i] = motion_acc_n[i];
 1115              		.loc 1 198 33 is_stmt 1 discriminator 3 view .LVU361
 198:Application/ins_task.c ****         qBuf->qFrame[qBuf->LatestNum].MotionAccel_n[i] = motion_acc_n[i];
 1116              		.loc 1 198 34 is_stmt 0 discriminator 3 view .LVU362
 1117 0064 0133     		adds	r3, r3, #1
 1118              	.LVL88:
 198:Application/ins_task.c ****         qBuf->qFrame[qBuf->LatestNum].MotionAccel_n[i] = motion_acc_n[i];
 1119              		.loc 1 198 34 discriminator 3 view .LVU363
 1120 0066 9BB2     		uxth	r3, r3
 1121              	.LVL89:
 1122              	.L29:
 198:Application/ins_task.c ****         qBuf->qFrame[qBuf->LatestNum].MotionAccel_n[i] = motion_acc_n[i];
 1123              		.loc 1 198 26 is_stmt 1 discriminator 1 view .LVU364
 198:Application/ins_task.c ****         qBuf->qFrame[qBuf->LatestNum].MotionAccel_n[i] = motion_acc_n[i];
 1124              		.loc 1 198 5 is_stmt 0 discriminator 1 view .LVU365
 1125 0068 022B     		cmp	r3, #2
 1126 006a F0D9     		bls	.L30
 1127              	.LBE6:
 200:Application/ins_task.c **** 
 1128              		.loc 1 200 1 view .LVU366
 1129 006c 5DF804FB 		ldr	pc, [sp], #4
 1130              		.cfi_endproc
 1131              	.LFE177:
 1133              		.section	.text.FindTimeMatchFrame,"ax",%progbits
 1134              		.align	1
 1135              		.global	FindTimeMatchFrame
 1136              		.syntax unified
 1137              		.thumb
 1138              		.thumb_func
 1140              	FindTimeMatchFrame:
 1141              	.LVL90:
 1142              	.LFB178:
 203:Application/ins_task.c ****     int min_time_error = abs(qBuf->qFrame[0].TimeStamp_ms - match_time_stamp_ms);
 1143              		.loc 1 203 1 is_stmt 1 view -0
 1144              		.cfi_startproc
 1145              		@ args = 0, pretend = 0, frame = 0
 1146              		@ frame_needed = 0, uses_anonymous_args = 0
 203:Application/ins_task.c ****     int min_time_error = abs(qBuf->qFrame[0].TimeStamp_ms - match_time_stamp_ms);
 1147              		.loc 1 203 1 is_stmt 0 view .LVU368
 1148 0000 10B5     		push	{r4, lr}
 1149              	.LCFI15:
 1150              		.cfi_def_cfa_offset 8
 1151              		.cfi_offset 4, -8
 1152              		.cfi_offset 14, -4
 1153 0002 0446     		mov	r4, r0
 204:Application/ins_task.c ****     uint16_t num = 0;
 1154              		.loc 1 204 5 is_stmt 1 view .LVU369
 204:Application/ins_task.c ****     uint16_t num = 0;
 1155              		.loc 1 204 26 is_stmt 0 view .LVU370
 1156 0004 C269     		ldr	r2, [r0, #28]
 1157 0006 8A42     		cmp	r2, r1
 1158 0008 04D0     		beq	.L34
 204:Application/ins_task.c ****     uint16_t num = 0;
 1159              		.loc 1 204 26 discriminator 1 view .LVU371
 1160 000a A2EB010E 		sub	lr, r2, r1
 1161              	.L36:
 1162              	.LBB7:
ARM GAS  C:\Users\86152\AppData\Local\Temp\ccIGvTB4.s 			page 31


 211:Application/ins_task.c ****         }
 1163              		.loc 1 211 17 discriminator 1 view .LVU372
 1164 000e 0023     		movs	r3, #0
 1165 0010 1846     		mov	r0, r3
 1166              	.LVL91:
 211:Application/ins_task.c ****         }
 1167              		.loc 1 211 17 discriminator 1 view .LVU373
 1168 0012 0EE0     		b	.L35
 1169              	.LVL92:
 1170              	.L34:
 211:Application/ins_task.c ****         }
 1171              		.loc 1 211 17 discriminator 1 view .LVU374
 1172              	.LBE7:
 204:Application/ins_task.c ****     uint16_t num = 0;
 1173              		.loc 1 204 26 discriminator 2 view .LVU375
 1174 0014 5242     		rsbs	r2, r2, #0
 1175 0016 A2EB010E 		sub	lr, r2, r1
 1176 001a F8E7     		b	.L36
 1177              	.LVL93:
 1178              	.L37:
 1179              	.LBB8:
 208:Application/ins_task.c ****         {
 1180              		.loc 1 208 13 discriminator 2 view .LVU376
 1181 001c C2F1000C 		rsb	ip, r2, #0
 1182 0020 ACEB010C 		sub	ip, ip, r1
 1183 0024 0FE0     		b	.L38
 1184              	.L40:
 210:Application/ins_task.c ****             num = i;
 1185              		.loc 1 210 30 discriminator 2 view .LVU377
 1186 0026 5242     		rsbs	r2, r2, #0
 1187 0028 A2EB010E 		sub	lr, r2, r1
 1188              	.LVL94:
 211:Application/ins_task.c ****         }
 1189              		.loc 1 211 17 discriminator 2 view .LVU378
 1190 002c 1846     		mov	r0, r3
 1191              	.LVL95:
 1192              	.L39:
 206:Application/ins_task.c ****     {
 1193              		.loc 1 206 43 is_stmt 1 discriminator 2 view .LVU379
 206:Application/ins_task.c ****     {
 1194              		.loc 1 206 44 is_stmt 0 discriminator 2 view .LVU380
 1195 002e 0133     		adds	r3, r3, #1
 1196              	.LVL96:
 206:Application/ins_task.c ****     {
 1197              		.loc 1 206 44 discriminator 2 view .LVU381
 1198 0030 9BB2     		uxth	r3, r3
 1199              	.LVL97:
 1200              	.L35:
 206:Application/ins_task.c ****     {
 1201              		.loc 1 206 26 is_stmt 1 discriminator 1 view .LVU382
 206:Application/ins_task.c ****     {
 1202              		.loc 1 206 5 is_stmt 0 discriminator 1 view .LVU383
 1203 0032 312B     		cmp	r3, #49
 1204 0034 0FD8     		bhi	.L43
 208:Application/ins_task.c ****         {
 1205              		.loc 1 208 9 is_stmt 1 view .LVU384
 208:Application/ins_task.c ****         {
ARM GAS  C:\Users\86152\AppData\Local\Temp\ccIGvTB4.s 			page 32


 1206              		.loc 1 208 13 is_stmt 0 view .LVU385
 1207 0036 04EB431C 		add	ip, r4, r3, lsl #5
 1208 003a DCF81C20 		ldr	r2, [ip, #28]
 1209 003e 8A42     		cmp	r2, r1
 1210 0040 ECD0     		beq	.L37
 208:Application/ins_task.c ****         {
 1211              		.loc 1 208 13 discriminator 1 view .LVU386
 1212 0042 A2EB010C 		sub	ip, r2, r1
 1213              	.L38:
 208:Application/ins_task.c ****         {
 1214              		.loc 1 208 12 discriminator 4 view .LVU387
 1215 0046 E645     		cmp	lr, ip
 1216 0048 F1D9     		bls	.L39
 210:Application/ins_task.c ****             num = i;
 1217              		.loc 1 210 13 is_stmt 1 view .LVU388
 210:Application/ins_task.c ****             num = i;
 1218              		.loc 1 210 30 is_stmt 0 view .LVU389
 1219 004a 8A42     		cmp	r2, r1
 1220 004c EBD0     		beq	.L40
 210:Application/ins_task.c ****             num = i;
 1221              		.loc 1 210 30 discriminator 1 view .LVU390
 1222 004e A2EB010E 		sub	lr, r2, r1
 1223              	.LVL98:
 211:Application/ins_task.c ****         }
 1224              		.loc 1 211 17 discriminator 1 view .LVU391
 1225 0052 1846     		mov	r0, r3
 1226              	.LVL99:
 211:Application/ins_task.c ****         }
 1227              		.loc 1 211 17 discriminator 1 view .LVU392
 1228 0054 EBE7     		b	.L39
 1229              	.LVL100:
 1230              	.L43:
 211:Application/ins_task.c ****         }
 1231              		.loc 1 211 17 discriminator 1 view .LVU393
 1232              	.LBE8:
 214:Application/ins_task.c **** }
 1233              		.loc 1 214 5 is_stmt 1 view .LVU394
 215:Application/ins_task.c **** 
 1234              		.loc 1 215 1 is_stmt 0 view .LVU395
 1235 0056 10BD     		pop	{r4, pc}
 215:Application/ins_task.c **** 
 1236              		.loc 1 215 1 view .LVU396
 1237              		.cfi_endproc
 1238              	.LFE178:
 1240              		.section	.text.BodyFrameToEarthFrame,"ax",%progbits
 1241              		.align	1
 1242              		.global	BodyFrameToEarthFrame
 1243              		.syntax unified
 1244              		.thumb
 1245              		.thumb_func
 1247              	BodyFrameToEarthFrame:
 1248              	.LVL101:
 1249              	.LFB179:
 224:Application/ins_task.c ****     vecEF[0] = 2.0f * ((0.5f - q[2] * q[2] - q[3] * q[3]) * vecBF[0] +
 1250              		.loc 1 224 1 is_stmt 1 view -0
 1251              		.cfi_startproc
 1252              		@ args = 0, pretend = 0, frame = 0
ARM GAS  C:\Users\86152\AppData\Local\Temp\ccIGvTB4.s 			page 33


 1253              		@ frame_needed = 0, uses_anonymous_args = 0
 1254              		@ link register save eliminated.
 225:Application/ins_task.c ****                        (q[1] * q[2] - q[0] * q[3]) * vecBF[1] +
 1255              		.loc 1 225 5 view .LVU398
 225:Application/ins_task.c ****                        (q[1] * q[2] - q[0] * q[3]) * vecBF[1] +
 1256              		.loc 1 225 33 is_stmt 0 view .LVU399
 1257 0000 92ED026A 		vldr.32	s12, [r2, #8]
 225:Application/ins_task.c ****                        (q[1] * q[2] - q[0] * q[3]) * vecBF[1] +
 1258              		.loc 1 225 37 view .LVU400
 1259 0004 66EE067A 		vmul.f32	s15, s12, s12
 225:Application/ins_task.c ****                        (q[1] * q[2] - q[0] * q[3]) * vecBF[1] +
 1260              		.loc 1 225 30 view .LVU401
 1261 0008 F6EE006A 		vmov.f32	s13, #5.0e-1
 1262 000c 76EEE77A 		vsub.f32	s15, s13, s15
 225:Application/ins_task.c ****                        (q[1] * q[2] - q[0] * q[3]) * vecBF[1] +
 1263              		.loc 1 225 47 view .LVU402
 1264 0010 92ED037A 		vldr.32	s14, [r2, #12]
 225:Application/ins_task.c ****                        (q[1] * q[2] - q[0] * q[3]) * vecBF[1] +
 1265              		.loc 1 225 51 view .LVU403
 1266 0014 67EE075A 		vmul.f32	s11, s14, s14
 225:Application/ins_task.c ****                        (q[1] * q[2] - q[0] * q[3]) * vecBF[1] +
 1267              		.loc 1 225 44 view .LVU404
 1268 0018 77EEE57A 		vsub.f32	s15, s15, s11
 225:Application/ins_task.c ****                        (q[1] * q[2] - q[0] * q[3]) * vecBF[1] +
 1269              		.loc 1 225 66 view .LVU405
 1270 001c D0ED005A 		vldr.32	s11, [r0]
 225:Application/ins_task.c ****                        (q[1] * q[2] - q[0] * q[3]) * vecBF[1] +
 1271              		.loc 1 225 59 view .LVU406
 1272 0020 67EEA57A 		vmul.f32	s15, s15, s11
 226:Application/ins_task.c ****                        (q[1] * q[3] + q[0] * q[2]) * vecBF[2]);
 1273              		.loc 1 226 26 view .LVU407
 1274 0024 D2ED014A 		vldr.32	s9, [r2, #4]
 226:Application/ins_task.c ****                        (q[1] * q[3] + q[0] * q[2]) * vecBF[2]);
 1275              		.loc 1 226 30 view .LVU408
 1276 0028 66EE245A 		vmul.f32	s11, s12, s9
 226:Application/ins_task.c ****                        (q[1] * q[3] + q[0] * q[2]) * vecBF[2]);
 1277              		.loc 1 226 40 view .LVU409
 1278 002c 92ED005A 		vldr.32	s10, [r2]
 226:Application/ins_task.c ****                        (q[1] * q[3] + q[0] * q[2]) * vecBF[2]);
 1279              		.loc 1 226 44 view .LVU410
 1280 0030 27EE054A 		vmul.f32	s8, s14, s10
 226:Application/ins_task.c ****                        (q[1] * q[3] + q[0] * q[2]) * vecBF[2]);
 1281              		.loc 1 226 37 view .LVU411
 1282 0034 75EEC45A 		vsub.f32	s11, s11, s8
 226:Application/ins_task.c ****                        (q[1] * q[3] + q[0] * q[2]) * vecBF[2]);
 1283              		.loc 1 226 59 view .LVU412
 1284 0038 90ED014A 		vldr.32	s8, [r0, #4]
 226:Application/ins_task.c ****                        (q[1] * q[3] + q[0] * q[2]) * vecBF[2]);
 1285              		.loc 1 226 52 view .LVU413
 1286 003c 65EE845A 		vmul.f32	s11, s11, s8
 225:Application/ins_task.c ****                        (q[1] * q[2] - q[0] * q[3]) * vecBF[1] +
 1287              		.loc 1 225 70 view .LVU414
 1288 0040 77EEA57A 		vadd.f32	s15, s15, s11
 227:Application/ins_task.c **** 
 1289              		.loc 1 227 30 view .LVU415
 1290 0044 27EE247A 		vmul.f32	s14, s14, s9
 227:Application/ins_task.c **** 
ARM GAS  C:\Users\86152\AppData\Local\Temp\ccIGvTB4.s 			page 34


 1291              		.loc 1 227 44 view .LVU416
 1292 0048 26EE056A 		vmul.f32	s12, s12, s10
 227:Application/ins_task.c **** 
 1293              		.loc 1 227 37 view .LVU417
 1294 004c 37EE067A 		vadd.f32	s14, s14, s12
 227:Application/ins_task.c **** 
 1295              		.loc 1 227 59 view .LVU418
 1296 0050 90ED026A 		vldr.32	s12, [r0, #8]
 227:Application/ins_task.c **** 
 1297              		.loc 1 227 52 view .LVU419
 1298 0054 27EE067A 		vmul.f32	s14, s14, s12
 226:Application/ins_task.c ****                        (q[1] * q[3] + q[0] * q[2]) * vecBF[2]);
 1299              		.loc 1 226 63 view .LVU420
 1300 0058 77EE877A 		vadd.f32	s15, s15, s14
 225:Application/ins_task.c ****                        (q[1] * q[2] - q[0] * q[3]) * vecBF[1] +
 1301              		.loc 1 225 21 view .LVU421
 1302 005c 77EEA77A 		vadd.f32	s15, s15, s15
 225:Application/ins_task.c ****                        (q[1] * q[2] - q[0] * q[3]) * vecBF[1] +
 1303              		.loc 1 225 14 view .LVU422
 1304 0060 C1ED007A 		vstr.32	s15, [r1]
 229:Application/ins_task.c ****                        (0.5f - q[1] * q[1] - q[3] * q[3]) * vecBF[1] +
 1305              		.loc 1 229 5 is_stmt 1 view .LVU423
 229:Application/ins_task.c ****                        (0.5f - q[1] * q[1] - q[3] * q[3]) * vecBF[1] +
 1306              		.loc 1 229 26 is_stmt 0 view .LVU424
 1307 0064 D2ED015A 		vldr.32	s11, [r2, #4]
 229:Application/ins_task.c ****                        (0.5f - q[1] * q[1] - q[3] * q[3]) * vecBF[1] +
 1308              		.loc 1 229 33 view .LVU425
 1309 0068 D2ED027A 		vldr.32	s15, [r2, #8]
 229:Application/ins_task.c ****                        (0.5f - q[1] * q[1] - q[3] * q[3]) * vecBF[1] +
 1310              		.loc 1 229 30 view .LVU426
 1311 006c 25EEA77A 		vmul.f32	s14, s11, s15
 229:Application/ins_task.c ****                        (0.5f - q[1] * q[1] - q[3] * q[3]) * vecBF[1] +
 1312              		.loc 1 229 40 view .LVU427
 1313 0070 D2ED004A 		vldr.32	s9, [r2]
 229:Application/ins_task.c ****                        (0.5f - q[1] * q[1] - q[3] * q[3]) * vecBF[1] +
 1314              		.loc 1 229 47 view .LVU428
 1315 0074 92ED035A 		vldr.32	s10, [r2, #12]
 229:Application/ins_task.c ****                        (0.5f - q[1] * q[1] - q[3] * q[3]) * vecBF[1] +
 1316              		.loc 1 229 44 view .LVU429
 1317 0078 24EE856A 		vmul.f32	s12, s9, s10
 229:Application/ins_task.c ****                        (0.5f - q[1] * q[1] - q[3] * q[3]) * vecBF[1] +
 1318              		.loc 1 229 37 view .LVU430
 1319 007c 37EE067A 		vadd.f32	s14, s14, s12
 229:Application/ins_task.c ****                        (0.5f - q[1] * q[1] - q[3] * q[3]) * vecBF[1] +
 1320              		.loc 1 229 59 view .LVU431
 1321 0080 90ED006A 		vldr.32	s12, [r0]
 229:Application/ins_task.c ****                        (0.5f - q[1] * q[1] - q[3] * q[3]) * vecBF[1] +
 1322              		.loc 1 229 52 view .LVU432
 1323 0084 27EE067A 		vmul.f32	s14, s14, s12
 230:Application/ins_task.c ****                        (q[2] * q[3] - q[0] * q[1]) * vecBF[2]);
 1324              		.loc 1 230 37 view .LVU433
 1325 0088 25EEA56A 		vmul.f32	s12, s11, s11
 230:Application/ins_task.c ****                        (q[2] * q[3] - q[0] * q[1]) * vecBF[2]);
 1326              		.loc 1 230 30 view .LVU434
 1327 008c 36EEC66A 		vsub.f32	s12, s13, s12
 230:Application/ins_task.c ****                        (q[2] * q[3] - q[0] * q[1]) * vecBF[2]);
 1328              		.loc 1 230 51 view .LVU435
ARM GAS  C:\Users\86152\AppData\Local\Temp\ccIGvTB4.s 			page 35


 1329 0090 25EE054A 		vmul.f32	s8, s10, s10
 230:Application/ins_task.c ****                        (q[2] * q[3] - q[0] * q[1]) * vecBF[2]);
 1330              		.loc 1 230 44 view .LVU436
 1331 0094 36EE446A 		vsub.f32	s12, s12, s8
 230:Application/ins_task.c ****                        (q[2] * q[3] - q[0] * q[1]) * vecBF[2]);
 1332              		.loc 1 230 66 view .LVU437
 1333 0098 90ED014A 		vldr.32	s8, [r0, #4]
 230:Application/ins_task.c ****                        (q[2] * q[3] - q[0] * q[1]) * vecBF[2]);
 1334              		.loc 1 230 59 view .LVU438
 1335 009c 26EE046A 		vmul.f32	s12, s12, s8
 229:Application/ins_task.c ****                        (0.5f - q[1] * q[1] - q[3] * q[3]) * vecBF[1] +
 1336              		.loc 1 229 63 view .LVU439
 1337 00a0 37EE067A 		vadd.f32	s14, s14, s12
 231:Application/ins_task.c **** 
 1338              		.loc 1 231 30 view .LVU440
 1339 00a4 67EE857A 		vmul.f32	s15, s15, s10
 231:Application/ins_task.c **** 
 1340              		.loc 1 231 44 view .LVU441
 1341 00a8 65EEA45A 		vmul.f32	s11, s11, s9
 231:Application/ins_task.c **** 
 1342              		.loc 1 231 37 view .LVU442
 1343 00ac 77EEE57A 		vsub.f32	s15, s15, s11
 231:Application/ins_task.c **** 
 1344              		.loc 1 231 59 view .LVU443
 1345 00b0 90ED026A 		vldr.32	s12, [r0, #8]
 231:Application/ins_task.c **** 
 1346              		.loc 1 231 52 view .LVU444
 1347 00b4 67EE867A 		vmul.f32	s15, s15, s12
 230:Application/ins_task.c ****                        (q[2] * q[3] - q[0] * q[1]) * vecBF[2]);
 1348              		.loc 1 230 70 view .LVU445
 1349 00b8 37EE277A 		vadd.f32	s14, s14, s15
 229:Application/ins_task.c ****                        (0.5f - q[1] * q[1] - q[3] * q[3]) * vecBF[1] +
 1350              		.loc 1 229 21 view .LVU446
 1351 00bc 37EE077A 		vadd.f32	s14, s14, s14
 229:Application/ins_task.c ****                        (0.5f - q[1] * q[1] - q[3] * q[3]) * vecBF[1] +
 1352              		.loc 1 229 14 view .LVU447
 1353 00c0 81ED017A 		vstr.32	s14, [r1, #4]
 233:Application/ins_task.c ****                        (q[2] * q[3] + q[0] * q[1]) * vecBF[1] +
 1354              		.loc 1 233 5 is_stmt 1 view .LVU448
 233:Application/ins_task.c ****                        (q[2] * q[3] + q[0] * q[1]) * vecBF[1] +
 1355              		.loc 1 233 26 is_stmt 0 view .LVU449
 1356 00c4 D2ED015A 		vldr.32	s11, [r2, #4]
 233:Application/ins_task.c ****                        (q[2] * q[3] + q[0] * q[1]) * vecBF[1] +
 1357              		.loc 1 233 33 view .LVU450
 1358 00c8 92ED037A 		vldr.32	s14, [r2, #12]
 233:Application/ins_task.c ****                        (q[2] * q[3] + q[0] * q[1]) * vecBF[1] +
 1359              		.loc 1 233 30 view .LVU451
 1360 00cc 65EE877A 		vmul.f32	s15, s11, s14
 233:Application/ins_task.c ****                        (q[2] * q[3] + q[0] * q[1]) * vecBF[1] +
 1361              		.loc 1 233 40 view .LVU452
 1362 00d0 92ED005A 		vldr.32	s10, [r2]
 233:Application/ins_task.c ****                        (q[2] * q[3] + q[0] * q[1]) * vecBF[1] +
 1363              		.loc 1 233 47 view .LVU453
 1364 00d4 92ED026A 		vldr.32	s12, [r2, #8]
 233:Application/ins_task.c ****                        (q[2] * q[3] + q[0] * q[1]) * vecBF[1] +
 1365              		.loc 1 233 44 view .LVU454
 1366 00d8 65EE064A 		vmul.f32	s9, s10, s12
ARM GAS  C:\Users\86152\AppData\Local\Temp\ccIGvTB4.s 			page 36


 233:Application/ins_task.c ****                        (q[2] * q[3] + q[0] * q[1]) * vecBF[1] +
 1367              		.loc 1 233 37 view .LVU455
 1368 00dc 77EEE47A 		vsub.f32	s15, s15, s9
 233:Application/ins_task.c ****                        (q[2] * q[3] + q[0] * q[1]) * vecBF[1] +
 1369              		.loc 1 233 59 view .LVU456
 1370 00e0 D0ED004A 		vldr.32	s9, [r0]
 233:Application/ins_task.c ****                        (q[2] * q[3] + q[0] * q[1]) * vecBF[1] +
 1371              		.loc 1 233 52 view .LVU457
 1372 00e4 67EEA47A 		vmul.f32	s15, s15, s9
 234:Application/ins_task.c ****                        (0.5f - q[1] * q[1] - q[2] * q[2]) * vecBF[2]);
 1373              		.loc 1 234 30 view .LVU458
 1374 00e8 27EE067A 		vmul.f32	s14, s14, s12
 234:Application/ins_task.c ****                        (0.5f - q[1] * q[1] - q[2] * q[2]) * vecBF[2]);
 1375              		.loc 1 234 44 view .LVU459
 1376 00ec 25EE855A 		vmul.f32	s10, s11, s10
 234:Application/ins_task.c ****                        (0.5f - q[1] * q[1] - q[2] * q[2]) * vecBF[2]);
 1377              		.loc 1 234 37 view .LVU460
 1378 00f0 37EE057A 		vadd.f32	s14, s14, s10
 234:Application/ins_task.c ****                        (0.5f - q[1] * q[1] - q[2] * q[2]) * vecBF[2]);
 1379              		.loc 1 234 59 view .LVU461
 1380 00f4 90ED015A 		vldr.32	s10, [r0, #4]
 234:Application/ins_task.c ****                        (0.5f - q[1] * q[1] - q[2] * q[2]) * vecBF[2]);
 1381              		.loc 1 234 52 view .LVU462
 1382 00f8 27EE057A 		vmul.f32	s14, s14, s10
 233:Application/ins_task.c ****                        (q[2] * q[3] + q[0] * q[1]) * vecBF[1] +
 1383              		.loc 1 233 63 view .LVU463
 1384 00fc 77EE877A 		vadd.f32	s15, s15, s14
 235:Application/ins_task.c **** }
 1385              		.loc 1 235 37 view .LVU464
 1386 0100 65EEA55A 		vmul.f32	s11, s11, s11
 235:Application/ins_task.c **** }
 1387              		.loc 1 235 30 view .LVU465
 1388 0104 76EEE56A 		vsub.f32	s13, s13, s11
 235:Application/ins_task.c **** }
 1389              		.loc 1 235 51 view .LVU466
 1390 0108 26EE066A 		vmul.f32	s12, s12, s12
 235:Application/ins_task.c **** }
 1391              		.loc 1 235 44 view .LVU467
 1392 010c 76EEC66A 		vsub.f32	s13, s13, s12
 235:Application/ins_task.c **** }
 1393              		.loc 1 235 66 view .LVU468
 1394 0110 90ED027A 		vldr.32	s14, [r0, #8]
 235:Application/ins_task.c **** }
 1395              		.loc 1 235 59 view .LVU469
 1396 0114 66EE876A 		vmul.f32	s13, s13, s14
 234:Application/ins_task.c ****                        (0.5f - q[1] * q[1] - q[2] * q[2]) * vecBF[2]);
 1397              		.loc 1 234 63 view .LVU470
 1398 0118 77EEA67A 		vadd.f32	s15, s15, s13
 233:Application/ins_task.c ****                        (q[2] * q[3] + q[0] * q[1]) * vecBF[1] +
 1399              		.loc 1 233 21 view .LVU471
 1400 011c 77EEA77A 		vadd.f32	s15, s15, s15
 233:Application/ins_task.c ****                        (q[2] * q[3] + q[0] * q[1]) * vecBF[1] +
 1401              		.loc 1 233 14 view .LVU472
 1402 0120 C1ED027A 		vstr.32	s15, [r1, #8]
 236:Application/ins_task.c **** 
 1403              		.loc 1 236 1 view .LVU473
 1404 0124 7047     		bx	lr
ARM GAS  C:\Users\86152\AppData\Local\Temp\ccIGvTB4.s 			page 37


 1405              		.cfi_endproc
 1406              	.LFE179:
 1408              		.section	.text.EarthFrameToBodyFrame,"ax",%progbits
 1409              		.align	1
 1410              		.global	EarthFrameToBodyFrame
 1411              		.syntax unified
 1412              		.thumb
 1413              		.thumb_func
 1415              	EarthFrameToBodyFrame:
 1416              	.LVL102:
 1417              	.LFB180:
 245:Application/ins_task.c ****     vecBF[0] = 2.0f * ((0.5f - q[2] * q[2] - q[3] * q[3]) * vecEF[0] +
 1418              		.loc 1 245 1 is_stmt 1 view -0
 1419              		.cfi_startproc
 1420              		@ args = 0, pretend = 0, frame = 0
 1421              		@ frame_needed = 0, uses_anonymous_args = 0
 1422              		@ link register save eliminated.
 246:Application/ins_task.c ****                        (q[1] * q[2] + q[0] * q[3]) * vecEF[1] +
 1423              		.loc 1 246 5 view .LVU475
 246:Application/ins_task.c ****                        (q[1] * q[2] + q[0] * q[3]) * vecEF[1] +
 1424              		.loc 1 246 33 is_stmt 0 view .LVU476
 1425 0000 92ED026A 		vldr.32	s12, [r2, #8]
 246:Application/ins_task.c ****                        (q[1] * q[2] + q[0] * q[3]) * vecEF[1] +
 1426              		.loc 1 246 37 view .LVU477
 1427 0004 66EE067A 		vmul.f32	s15, s12, s12
 246:Application/ins_task.c ****                        (q[1] * q[2] + q[0] * q[3]) * vecEF[1] +
 1428              		.loc 1 246 30 view .LVU478
 1429 0008 F6EE006A 		vmov.f32	s13, #5.0e-1
 1430 000c 76EEE77A 		vsub.f32	s15, s13, s15
 246:Application/ins_task.c ****                        (q[1] * q[2] + q[0] * q[3]) * vecEF[1] +
 1431              		.loc 1 246 47 view .LVU479
 1432 0010 92ED037A 		vldr.32	s14, [r2, #12]
 246:Application/ins_task.c ****                        (q[1] * q[2] + q[0] * q[3]) * vecEF[1] +
 1433              		.loc 1 246 51 view .LVU480
 1434 0014 67EE075A 		vmul.f32	s11, s14, s14
 246:Application/ins_task.c ****                        (q[1] * q[2] + q[0] * q[3]) * vecEF[1] +
 1435              		.loc 1 246 44 view .LVU481
 1436 0018 77EEE57A 		vsub.f32	s15, s15, s11
 246:Application/ins_task.c ****                        (q[1] * q[2] + q[0] * q[3]) * vecEF[1] +
 1437              		.loc 1 246 66 view .LVU482
 1438 001c D0ED005A 		vldr.32	s11, [r0]
 246:Application/ins_task.c ****                        (q[1] * q[2] + q[0] * q[3]) * vecEF[1] +
 1439              		.loc 1 246 59 view .LVU483
 1440 0020 67EEA57A 		vmul.f32	s15, s15, s11
 247:Application/ins_task.c ****                        (q[1] * q[3] - q[0] * q[2]) * vecEF[2]);
 1441              		.loc 1 247 26 view .LVU484
 1442 0024 D2ED014A 		vldr.32	s9, [r2, #4]
 247:Application/ins_task.c ****                        (q[1] * q[3] - q[0] * q[2]) * vecEF[2]);
 1443              		.loc 1 247 30 view .LVU485
 1444 0028 66EE245A 		vmul.f32	s11, s12, s9
 247:Application/ins_task.c ****                        (q[1] * q[3] - q[0] * q[2]) * vecEF[2]);
 1445              		.loc 1 247 40 view .LVU486
 1446 002c 92ED005A 		vldr.32	s10, [r2]
 247:Application/ins_task.c ****                        (q[1] * q[3] - q[0] * q[2]) * vecEF[2]);
 1447              		.loc 1 247 44 view .LVU487
 1448 0030 27EE054A 		vmul.f32	s8, s14, s10
 247:Application/ins_task.c ****                        (q[1] * q[3] - q[0] * q[2]) * vecEF[2]);
ARM GAS  C:\Users\86152\AppData\Local\Temp\ccIGvTB4.s 			page 38


 1449              		.loc 1 247 37 view .LVU488
 1450 0034 75EE845A 		vadd.f32	s11, s11, s8
 247:Application/ins_task.c ****                        (q[1] * q[3] - q[0] * q[2]) * vecEF[2]);
 1451              		.loc 1 247 59 view .LVU489
 1452 0038 90ED014A 		vldr.32	s8, [r0, #4]
 247:Application/ins_task.c ****                        (q[1] * q[3] - q[0] * q[2]) * vecEF[2]);
 1453              		.loc 1 247 52 view .LVU490
 1454 003c 65EE845A 		vmul.f32	s11, s11, s8
 246:Application/ins_task.c ****                        (q[1] * q[2] + q[0] * q[3]) * vecEF[1] +
 1455              		.loc 1 246 70 view .LVU491
 1456 0040 77EEA57A 		vadd.f32	s15, s15, s11
 248:Application/ins_task.c **** 
 1457              		.loc 1 248 30 view .LVU492
 1458 0044 27EE247A 		vmul.f32	s14, s14, s9
 248:Application/ins_task.c **** 
 1459              		.loc 1 248 44 view .LVU493
 1460 0048 26EE056A 		vmul.f32	s12, s12, s10
 248:Application/ins_task.c **** 
 1461              		.loc 1 248 37 view .LVU494
 1462 004c 37EE467A 		vsub.f32	s14, s14, s12
 248:Application/ins_task.c **** 
 1463              		.loc 1 248 59 view .LVU495
 1464 0050 90ED026A 		vldr.32	s12, [r0, #8]
 248:Application/ins_task.c **** 
 1465              		.loc 1 248 52 view .LVU496
 1466 0054 27EE067A 		vmul.f32	s14, s14, s12
 247:Application/ins_task.c ****                        (q[1] * q[3] - q[0] * q[2]) * vecEF[2]);
 1467              		.loc 1 247 63 view .LVU497
 1468 0058 77EE877A 		vadd.f32	s15, s15, s14
 246:Application/ins_task.c ****                        (q[1] * q[2] + q[0] * q[3]) * vecEF[1] +
 1469              		.loc 1 246 21 view .LVU498
 1470 005c 77EEA77A 		vadd.f32	s15, s15, s15
 246:Application/ins_task.c ****                        (q[1] * q[2] + q[0] * q[3]) * vecEF[1] +
 1471              		.loc 1 246 14 view .LVU499
 1472 0060 C1ED007A 		vstr.32	s15, [r1]
 250:Application/ins_task.c ****                        (0.5f - q[1] * q[1] - q[3] * q[3]) * vecEF[1] +
 1473              		.loc 1 250 5 is_stmt 1 view .LVU500
 250:Application/ins_task.c ****                        (0.5f - q[1] * q[1] - q[3] * q[3]) * vecEF[1] +
 1474              		.loc 1 250 26 is_stmt 0 view .LVU501
 1475 0064 D2ED015A 		vldr.32	s11, [r2, #4]
 250:Application/ins_task.c ****                        (0.5f - q[1] * q[1] - q[3] * q[3]) * vecEF[1] +
 1476              		.loc 1 250 33 view .LVU502
 1477 0068 D2ED027A 		vldr.32	s15, [r2, #8]
 250:Application/ins_task.c ****                        (0.5f - q[1] * q[1] - q[3] * q[3]) * vecEF[1] +
 1478              		.loc 1 250 30 view .LVU503
 1479 006c 25EEA77A 		vmul.f32	s14, s11, s15
 250:Application/ins_task.c ****                        (0.5f - q[1] * q[1] - q[3] * q[3]) * vecEF[1] +
 1480              		.loc 1 250 40 view .LVU504
 1481 0070 D2ED004A 		vldr.32	s9, [r2]
 250:Application/ins_task.c ****                        (0.5f - q[1] * q[1] - q[3] * q[3]) * vecEF[1] +
 1482              		.loc 1 250 47 view .LVU505
 1483 0074 92ED035A 		vldr.32	s10, [r2, #12]
 250:Application/ins_task.c ****                        (0.5f - q[1] * q[1] - q[3] * q[3]) * vecEF[1] +
 1484              		.loc 1 250 44 view .LVU506
 1485 0078 24EE856A 		vmul.f32	s12, s9, s10
 250:Application/ins_task.c ****                        (0.5f - q[1] * q[1] - q[3] * q[3]) * vecEF[1] +
 1486              		.loc 1 250 37 view .LVU507
ARM GAS  C:\Users\86152\AppData\Local\Temp\ccIGvTB4.s 			page 39


 1487 007c 37EE467A 		vsub.f32	s14, s14, s12
 250:Application/ins_task.c ****                        (0.5f - q[1] * q[1] - q[3] * q[3]) * vecEF[1] +
 1488              		.loc 1 250 59 view .LVU508
 1489 0080 90ED006A 		vldr.32	s12, [r0]
 250:Application/ins_task.c ****                        (0.5f - q[1] * q[1] - q[3] * q[3]) * vecEF[1] +
 1490              		.loc 1 250 52 view .LVU509
 1491 0084 27EE067A 		vmul.f32	s14, s14, s12
 251:Application/ins_task.c ****                        (q[2] * q[3] + q[0] * q[1]) * vecEF[2]);
 1492              		.loc 1 251 37 view .LVU510
 1493 0088 25EEA56A 		vmul.f32	s12, s11, s11
 251:Application/ins_task.c ****                        (q[2] * q[3] + q[0] * q[1]) * vecEF[2]);
 1494              		.loc 1 251 30 view .LVU511
 1495 008c 36EEC66A 		vsub.f32	s12, s13, s12
 251:Application/ins_task.c ****                        (q[2] * q[3] + q[0] * q[1]) * vecEF[2]);
 1496              		.loc 1 251 51 view .LVU512
 1497 0090 25EE054A 		vmul.f32	s8, s10, s10
 251:Application/ins_task.c ****                        (q[2] * q[3] + q[0] * q[1]) * vecEF[2]);
 1498              		.loc 1 251 44 view .LVU513
 1499 0094 36EE446A 		vsub.f32	s12, s12, s8
 251:Application/ins_task.c ****                        (q[2] * q[3] + q[0] * q[1]) * vecEF[2]);
 1500              		.loc 1 251 66 view .LVU514
 1501 0098 90ED014A 		vldr.32	s8, [r0, #4]
 251:Application/ins_task.c ****                        (q[2] * q[3] + q[0] * q[1]) * vecEF[2]);
 1502              		.loc 1 251 59 view .LVU515
 1503 009c 26EE046A 		vmul.f32	s12, s12, s8
 250:Application/ins_task.c ****                        (0.5f - q[1] * q[1] - q[3] * q[3]) * vecEF[1] +
 1504              		.loc 1 250 63 view .LVU516
 1505 00a0 37EE067A 		vadd.f32	s14, s14, s12
 252:Application/ins_task.c **** 
 1506              		.loc 1 252 30 view .LVU517
 1507 00a4 67EE857A 		vmul.f32	s15, s15, s10
 252:Application/ins_task.c **** 
 1508              		.loc 1 252 44 view .LVU518
 1509 00a8 65EEA45A 		vmul.f32	s11, s11, s9
 252:Application/ins_task.c **** 
 1510              		.loc 1 252 37 view .LVU519
 1511 00ac 77EEA57A 		vadd.f32	s15, s15, s11
 252:Application/ins_task.c **** 
 1512              		.loc 1 252 59 view .LVU520
 1513 00b0 90ED026A 		vldr.32	s12, [r0, #8]
 252:Application/ins_task.c **** 
 1514              		.loc 1 252 52 view .LVU521
 1515 00b4 67EE867A 		vmul.f32	s15, s15, s12
 251:Application/ins_task.c ****                        (q[2] * q[3] + q[0] * q[1]) * vecEF[2]);
 1516              		.loc 1 251 70 view .LVU522
 1517 00b8 37EE277A 		vadd.f32	s14, s14, s15
 250:Application/ins_task.c ****                        (0.5f - q[1] * q[1] - q[3] * q[3]) * vecEF[1] +
 1518              		.loc 1 250 21 view .LVU523
 1519 00bc 37EE077A 		vadd.f32	s14, s14, s14
 250:Application/ins_task.c ****                        (0.5f - q[1] * q[1] - q[3] * q[3]) * vecEF[1] +
 1520              		.loc 1 250 14 view .LVU524
 1521 00c0 81ED017A 		vstr.32	s14, [r1, #4]
 254:Application/ins_task.c ****                        (q[2] * q[3] - q[0] * q[1]) * vecEF[1] +
 1522              		.loc 1 254 5 is_stmt 1 view .LVU525
 254:Application/ins_task.c ****                        (q[2] * q[3] - q[0] * q[1]) * vecEF[1] +
 1523              		.loc 1 254 26 is_stmt 0 view .LVU526
 1524 00c4 D2ED015A 		vldr.32	s11, [r2, #4]
ARM GAS  C:\Users\86152\AppData\Local\Temp\ccIGvTB4.s 			page 40


 254:Application/ins_task.c ****                        (q[2] * q[3] - q[0] * q[1]) * vecEF[1] +
 1525              		.loc 1 254 33 view .LVU527
 1526 00c8 92ED037A 		vldr.32	s14, [r2, #12]
 254:Application/ins_task.c ****                        (q[2] * q[3] - q[0] * q[1]) * vecEF[1] +
 1527              		.loc 1 254 30 view .LVU528
 1528 00cc 65EE877A 		vmul.f32	s15, s11, s14
 254:Application/ins_task.c ****                        (q[2] * q[3] - q[0] * q[1]) * vecEF[1] +
 1529              		.loc 1 254 40 view .LVU529
 1530 00d0 92ED005A 		vldr.32	s10, [r2]
 254:Application/ins_task.c ****                        (q[2] * q[3] - q[0] * q[1]) * vecEF[1] +
 1531              		.loc 1 254 47 view .LVU530
 1532 00d4 92ED026A 		vldr.32	s12, [r2, #8]
 254:Application/ins_task.c ****                        (q[2] * q[3] - q[0] * q[1]) * vecEF[1] +
 1533              		.loc 1 254 44 view .LVU531
 1534 00d8 65EE064A 		vmul.f32	s9, s10, s12
 254:Application/ins_task.c ****                        (q[2] * q[3] - q[0] * q[1]) * vecEF[1] +
 1535              		.loc 1 254 37 view .LVU532
 1536 00dc 77EEA47A 		vadd.f32	s15, s15, s9
 254:Application/ins_task.c ****                        (q[2] * q[3] - q[0] * q[1]) * vecEF[1] +
 1537              		.loc 1 254 59 view .LVU533
 1538 00e0 D0ED004A 		vldr.32	s9, [r0]
 254:Application/ins_task.c ****                        (q[2] * q[3] - q[0] * q[1]) * vecEF[1] +
 1539              		.loc 1 254 52 view .LVU534
 1540 00e4 67EEA47A 		vmul.f32	s15, s15, s9
 255:Application/ins_task.c ****                        (0.5f - q[1] * q[1] - q[2] * q[2]) * vecEF[2]);
 1541              		.loc 1 255 30 view .LVU535
 1542 00e8 27EE067A 		vmul.f32	s14, s14, s12
 255:Application/ins_task.c ****                        (0.5f - q[1] * q[1] - q[2] * q[2]) * vecEF[2]);
 1543              		.loc 1 255 44 view .LVU536
 1544 00ec 25EE855A 		vmul.f32	s10, s11, s10
 255:Application/ins_task.c ****                        (0.5f - q[1] * q[1] - q[2] * q[2]) * vecEF[2]);
 1545              		.loc 1 255 37 view .LVU537
 1546 00f0 37EE457A 		vsub.f32	s14, s14, s10
 255:Application/ins_task.c ****                        (0.5f - q[1] * q[1] - q[2] * q[2]) * vecEF[2]);
 1547              		.loc 1 255 59 view .LVU538
 1548 00f4 90ED015A 		vldr.32	s10, [r0, #4]
 255:Application/ins_task.c ****                        (0.5f - q[1] * q[1] - q[2] * q[2]) * vecEF[2]);
 1549              		.loc 1 255 52 view .LVU539
 1550 00f8 27EE057A 		vmul.f32	s14, s14, s10
 254:Application/ins_task.c ****                        (q[2] * q[3] - q[0] * q[1]) * vecEF[1] +
 1551              		.loc 1 254 63 view .LVU540
 1552 00fc 77EE877A 		vadd.f32	s15, s15, s14
 256:Application/ins_task.c **** }
 1553              		.loc 1 256 37 view .LVU541
 1554 0100 65EEA55A 		vmul.f32	s11, s11, s11
 256:Application/ins_task.c **** }
 1555              		.loc 1 256 30 view .LVU542
 1556 0104 76EEE56A 		vsub.f32	s13, s13, s11
 256:Application/ins_task.c **** }
 1557              		.loc 1 256 51 view .LVU543
 1558 0108 26EE066A 		vmul.f32	s12, s12, s12
 256:Application/ins_task.c **** }
 1559              		.loc 1 256 44 view .LVU544
 1560 010c 76EEC66A 		vsub.f32	s13, s13, s12
 256:Application/ins_task.c **** }
 1561              		.loc 1 256 66 view .LVU545
 1562 0110 90ED027A 		vldr.32	s14, [r0, #8]
ARM GAS  C:\Users\86152\AppData\Local\Temp\ccIGvTB4.s 			page 41


 256:Application/ins_task.c **** }
 1563              		.loc 1 256 59 view .LVU546
 1564 0114 66EE876A 		vmul.f32	s13, s13, s14
 255:Application/ins_task.c ****                        (0.5f - q[1] * q[1] - q[2] * q[2]) * vecEF[2]);
 1565              		.loc 1 255 63 view .LVU547
 1566 0118 77EEA67A 		vadd.f32	s15, s15, s13
 254:Application/ins_task.c ****                        (q[2] * q[3] - q[0] * q[1]) * vecEF[1] +
 1567              		.loc 1 254 21 view .LVU548
 1568 011c 77EEA77A 		vadd.f32	s15, s15, s15
 254:Application/ins_task.c ****                        (q[2] * q[3] - q[0] * q[1]) * vecEF[1] +
 1569              		.loc 1 254 14 view .LVU549
 1570 0120 C1ED027A 		vstr.32	s15, [r1, #8]
 257:Application/ins_task.c **** 
 1571              		.loc 1 257 1 view .LVU550
 1572 0124 7047     		bx	lr
 1573              		.cfi_endproc
 1574              	.LFE180:
 1576              		.section	.text.get_INS_from_imu,"ax",%progbits
 1577              		.align	1
 1578              		.syntax unified
 1579              		.thumb
 1580              		.thumb_func
 1582              	get_INS_from_imu:
 1583              	.LVL103:
 1584              	.LFB173:
  95:Application/ins_task.c ****     ins->Accel[X] = -accel[Y];
 1585              		.loc 1 95 1 is_stmt 1 view -0
 1586              		.cfi_startproc
 1587              		@ args = 0, pretend = 0, frame = 16
 1588              		@ frame_needed = 0, uses_anonymous_args = 0
  95:Application/ins_task.c ****     ins->Accel[X] = -accel[Y];
 1589              		.loc 1 95 1 is_stmt 0 view .LVU552
 1590 0000 2DE9F041 		push	{r4, r5, r6, r7, r8, lr}
 1591              	.LCFI16:
 1592              		.cfi_def_cfa_offset 24
 1593              		.cfi_offset 4, -24
 1594              		.cfi_offset 5, -20
 1595              		.cfi_offset 6, -16
 1596              		.cfi_offset 7, -12
 1597              		.cfi_offset 8, -8
 1598              		.cfi_offset 14, -4
 1599 0004 2DED028B 		vpush.64	{d8}
 1600              	.LCFI17:
 1601              		.cfi_def_cfa_offset 32
 1602              		.cfi_offset 80, -32
 1603              		.cfi_offset 81, -28
 1604 0008 84B0     		sub	sp, sp, #16
 1605              	.LCFI18:
 1606              		.cfi_def_cfa_offset 48
 1607 000a 0446     		mov	r4, r0
  96:Application/ins_task.c ****     ins->Accel[Y] = -accel[Z];
 1608              		.loc 1 96 5 is_stmt 1 view .LVU553
  96:Application/ins_task.c ****     ins->Accel[Y] = -accel[Z];
 1609              		.loc 1 96 27 is_stmt 0 view .LVU554
 1610 000c D1ED017A 		vldr.32	s15, [r1, #4]
  96:Application/ins_task.c ****     ins->Accel[Y] = -accel[Z];
 1611              		.loc 1 96 21 view .LVU555
ARM GAS  C:\Users\86152\AppData\Local\Temp\ccIGvTB4.s 			page 42


 1612 0010 F1EE677A 		vneg.f32	s15, s15
  96:Application/ins_task.c ****     ins->Accel[Y] = -accel[Z];
 1613              		.loc 1 96 19 view .LVU556
 1614 0014 C0ED077A 		vstr.32	s15, [r0, #28]
  97:Application/ins_task.c ****     ins->Accel[Z] = accel[X];
 1615              		.loc 1 97 5 is_stmt 1 view .LVU557
  97:Application/ins_task.c ****     ins->Accel[Z] = accel[X];
 1616              		.loc 1 97 27 is_stmt 0 view .LVU558
 1617 0018 D1ED027A 		vldr.32	s15, [r1, #8]
  97:Application/ins_task.c ****     ins->Accel[Z] = accel[X];
 1618              		.loc 1 97 21 view .LVU559
 1619 001c F1EE677A 		vneg.f32	s15, s15
  97:Application/ins_task.c ****     ins->Accel[Z] = accel[X];
 1620              		.loc 1 97 19 view .LVU560
 1621 0020 C0ED087A 		vstr.32	s15, [r0, #32]
  98:Application/ins_task.c ****     ins->Gyro[X] = -gyro[Y];
 1622              		.loc 1 98 5 is_stmt 1 view .LVU561
  98:Application/ins_task.c ****     ins->Gyro[X] = -gyro[Y];
 1623              		.loc 1 98 26 is_stmt 0 view .LVU562
 1624 0024 0B68     		ldr	r3, [r1]	@ float
  98:Application/ins_task.c ****     ins->Gyro[X] = -gyro[Y];
 1625              		.loc 1 98 19 view .LVU563
 1626 0026 4362     		str	r3, [r0, #36]	@ float
  99:Application/ins_task.c ****     ins->Gyro[Y] = -gyro[Z];
 1627              		.loc 1 99 5 is_stmt 1 view .LVU564
  99:Application/ins_task.c ****     ins->Gyro[Y] = -gyro[Z];
 1628              		.loc 1 99 25 is_stmt 0 view .LVU565
 1629 0028 D2ED017A 		vldr.32	s15, [r2, #4]
  99:Application/ins_task.c ****     ins->Gyro[Y] = -gyro[Z];
 1630              		.loc 1 99 20 view .LVU566
 1631 002c F1EE677A 		vneg.f32	s15, s15
  99:Application/ins_task.c ****     ins->Gyro[Y] = -gyro[Z];
 1632              		.loc 1 99 18 view .LVU567
 1633 0030 C0ED047A 		vstr.32	s15, [r0, #16]
 100:Application/ins_task.c ****     ins->Gyro[Z] = gyro[X];
 1634              		.loc 1 100 5 is_stmt 1 view .LVU568
 100:Application/ins_task.c ****     ins->Gyro[Z] = gyro[X];
 1635              		.loc 1 100 25 is_stmt 0 view .LVU569
 1636 0034 D2ED027A 		vldr.32	s15, [r2, #8]
 100:Application/ins_task.c ****     ins->Gyro[Z] = gyro[X];
 1637              		.loc 1 100 20 view .LVU570
 1638 0038 F1EE677A 		vneg.f32	s15, s15
 100:Application/ins_task.c ****     ins->Gyro[Z] = gyro[X];
 1639              		.loc 1 100 18 view .LVU571
 1640 003c C0ED057A 		vstr.32	s15, [r0, #20]
 101:Application/ins_task.c **** 
 1641              		.loc 1 101 5 is_stmt 1 view .LVU572
 101:Application/ins_task.c **** 
 1642              		.loc 1 101 24 is_stmt 0 view .LVU573
 1643 0040 1368     		ldr	r3, [r2]	@ float
 101:Application/ins_task.c **** 
 1644              		.loc 1 101 18 view .LVU574
 1645 0042 8361     		str	r3, [r0, #24]	@ float
 103:Application/ins_task.c ****     ins->atanxz = -atan2f(ins->Accel[X], ins->Accel[Z]) * 180 / PI;
 1646              		.loc 1 103 5 is_stmt 1 view .LVU575
 103:Application/ins_task.c ****     ins->atanxz = -atan2f(ins->Accel[X], ins->Accel[Z]) * 180 / PI;
 1647              		.loc 1 103 51 is_stmt 0 view .LVU576
ARM GAS  C:\Users\86152\AppData\Local\Temp\ccIGvTB4.s 			page 43


 1648 0044 00F11006 		add	r6, r0, #16
 103:Application/ins_task.c ****     ins->atanxz = -atan2f(ins->Accel[X], ins->Accel[Z]) * 180 / PI;
 1649              		.loc 1 103 62 view .LVU577
 1650 0048 00F11C05 		add	r5, r0, #28
 103:Application/ins_task.c ****     ins->atanxz = -atan2f(ins->Accel[X], ins->Accel[Z]) * 180 / PI;
 1651              		.loc 1 103 5 view .LVU578
 1652 004c 2A46     		mov	r2, r5
 1653              	.LVL104:
 103:Application/ins_task.c ****     ins->atanxz = -atan2f(ins->Accel[X], ins->Accel[Z]) * 180 / PI;
 1654              		.loc 1 103 5 view .LVU579
 1655 004e 3146     		mov	r1, r6
 1656              	.LVL105:
 103:Application/ins_task.c ****     ins->atanxz = -atan2f(ins->Accel[X], ins->Accel[Z]) * 180 / PI;
 1657              		.loc 1 103 5 view .LVU580
 1658 0050 8030     		adds	r0, r0, #128
 1659              	.LVL106:
 103:Application/ins_task.c ****     ins->atanxz = -atan2f(ins->Accel[X], ins->Accel[Z]) * 180 / PI;
 1660              		.loc 1 103 5 view .LVU581
 1661 0052 FFF7FEFF 		bl	IMU_Param_Correction
 1662              	.LVL107:
 104:Application/ins_task.c ****     ins->atanyz = atan2f(ins->Accel[Y], ins->Accel[Z]) * 180 / PI;
 1663              		.loc 1 104 5 is_stmt 1 view .LVU582
 104:Application/ins_task.c ****     ins->atanyz = atan2f(ins->Accel[Y], ins->Accel[Z]) * 180 / PI;
 1664              		.loc 1 104 20 is_stmt 0 view .LVU583
 1665 0056 D4ED090A 		vldr.32	s1, [r4, #36]
 1666 005a 94ED070A 		vldr.32	s0, [r4, #28]
 1667 005e FFF7FEFF 		bl	atan2f
 1668              	.LVL108:
 104:Application/ins_task.c ****     ins->atanyz = atan2f(ins->Accel[Y], ins->Accel[Z]) * 180 / PI;
 1669              		.loc 1 104 57 view .LVU584
 1670 0062 DFED788A 		vldr.32	s17, .L50
 1671 0066 20EE680A 		vnmul.f32	s0, s0, s17
 104:Application/ins_task.c ****     ins->atanyz = atan2f(ins->Accel[Y], ins->Accel[Z]) * 180 / PI;
 1672              		.loc 1 104 63 view .LVU585
 1673 006a 9FED778A 		vldr.32	s16, .L50+4
 1674 006e C0EE087A 		vdiv.f32	s15, s0, s16
 104:Application/ins_task.c ****     ins->atanyz = atan2f(ins->Accel[Y], ins->Accel[Z]) * 180 / PI;
 1675              		.loc 1 104 17 view .LVU586
 1676 0072 C4ED1A7A 		vstr.32	s15, [r4, #104]
 105:Application/ins_task.c **** 
 1677              		.loc 1 105 5 is_stmt 1 view .LVU587
 105:Application/ins_task.c **** 
 1678              		.loc 1 105 19 is_stmt 0 view .LVU588
 1679 0076 D4ED090A 		vldr.32	s1, [r4, #36]
 1680 007a 94ED080A 		vldr.32	s0, [r4, #32]
 1681 007e FFF7FEFF 		bl	atan2f
 1682              	.LVL109:
 105:Application/ins_task.c **** 
 1683              		.loc 1 105 56 view .LVU589
 1684 0082 20EE280A 		vmul.f32	s0, s0, s17
 105:Application/ins_task.c **** 
 1685              		.loc 1 105 62 view .LVU590
 1686 0086 C0EE087A 		vdiv.f32	s15, s0, s16
 105:Application/ins_task.c **** 
 1687              		.loc 1 105 17 view .LVU591
 1688 008a C4ED1B7A 		vstr.32	s15, [r4, #108]
 108:Application/ins_task.c **** 
ARM GAS  C:\Users\86152\AppData\Local\Temp\ccIGvTB4.s 			page 44


 1689              		.loc 1 108 5 is_stmt 1 view .LVU592
 1690 008e 6F4B     		ldr	r3, .L50+8
 1691 0090 93ED003A 		vldr.32	s6, [r3]
 1692 0094 D4ED092A 		vldr.32	s5, [r4, #36]
 1693 0098 94ED082A 		vldr.32	s4, [r4, #32]
 1694 009c D4ED071A 		vldr.32	s3, [r4, #28]
 1695 00a0 94ED061A 		vldr.32	s2, [r4, #24]
 1696 00a4 D4ED050A 		vldr.32	s1, [r4, #20]
 1697 00a8 94ED040A 		vldr.32	s0, [r4, #16]
 1698 00ac FFF7FEFF 		bl	IMU_QuaternionEKF_Update
 1699              	.LVL110:
 110:Application/ins_task.c ****     ins->xzy_order_angle[1] = -asinf(2 * (q[1] * q[2] - q[0] * q[3])) * 57.295779513f;
 1700              		.loc 1 110 5 view .LVU593
 111:Application/ins_task.c ****     ins->xzy_order_angle[2] = atan2f(2.0f * (q[1] * q[3] + q[0] * q[2]), 1 - 2.0f * (q[2] * q[2] + 
 1701              		.loc 1 111 5 view .LVU594
 111:Application/ins_task.c ****     ins->xzy_order_angle[2] = atan2f(2.0f * (q[1] * q[3] + q[0] * q[2]), 1 - 2.0f * (q[2] * q[2] + 
 1702              		.loc 1 111 44 is_stmt 0 view .LVU595
 1703 00b0 674F     		ldr	r7, .L50+12
 1704 00b2 97ED550A 		vldr.32	s0, [r7, #340]
 111:Application/ins_task.c ****     ins->xzy_order_angle[2] = atan2f(2.0f * (q[1] * q[3] + q[0] * q[2]), 1 - 2.0f * (q[2] * q[2] + 
 1705              		.loc 1 111 51 view .LVU596
 1706 00b6 D7ED567A 		vldr.32	s15, [r7, #344]
 111:Application/ins_task.c ****     ins->xzy_order_angle[2] = atan2f(2.0f * (q[1] * q[3] + q[0] * q[2]), 1 - 2.0f * (q[2] * q[2] + 
 1707              		.loc 1 111 48 view .LVU597
 1708 00ba 20EE270A 		vmul.f32	s0, s0, s15
 111:Application/ins_task.c ****     ins->xzy_order_angle[2] = atan2f(2.0f * (q[1] * q[3] + q[0] * q[2]), 1 - 2.0f * (q[2] * q[2] + 
 1709              		.loc 1 111 58 view .LVU598
 1710 00be D7ED547A 		vldr.32	s15, [r7, #336]
 111:Application/ins_task.c ****     ins->xzy_order_angle[2] = atan2f(2.0f * (q[1] * q[3] + q[0] * q[2]), 1 - 2.0f * (q[2] * q[2] + 
 1711              		.loc 1 111 65 view .LVU599
 1712 00c2 97ED577A 		vldr.32	s14, [r7, #348]
 111:Application/ins_task.c ****     ins->xzy_order_angle[2] = atan2f(2.0f * (q[1] * q[3] + q[0] * q[2]), 1 - 2.0f * (q[2] * q[2] + 
 1713              		.loc 1 111 62 view .LVU600
 1714 00c6 67EE877A 		vmul.f32	s15, s15, s14
 111:Application/ins_task.c ****     ins->xzy_order_angle[2] = atan2f(2.0f * (q[1] * q[3] + q[0] * q[2]), 1 - 2.0f * (q[2] * q[2] + 
 1715              		.loc 1 111 55 view .LVU601
 1716 00ca 30EE670A 		vsub.f32	s0, s0, s15
 111:Application/ins_task.c ****     ins->xzy_order_angle[2] = atan2f(2.0f * (q[1] * q[3] + q[0] * q[2]), 1 - 2.0f * (q[2] * q[2] + 
 1717              		.loc 1 111 32 view .LVU602
 1718 00ce 30EE000A 		vadd.f32	s0, s0, s0
 1719 00d2 FFF7FEFF 		bl	asinf
 1720              	.LVL111:
 111:Application/ins_task.c ****     ins->xzy_order_angle[2] = atan2f(2.0f * (q[1] * q[3] + q[0] * q[2]), 1 - 2.0f * (q[2] * q[2] + 
 1721              		.loc 1 111 71 view .LVU603
 1722 00d6 9FED5F8A 		vldr.32	s16, .L50+16
 1723 00da 20EE480A 		vnmul.f32	s0, s0, s16
 111:Application/ins_task.c ****     ins->xzy_order_angle[2] = atan2f(2.0f * (q[1] * q[3] + q[0] * q[2]), 1 - 2.0f * (q[2] * q[2] + 
 1724              		.loc 1 111 29 view .LVU604
 1725 00de 84ED280A 		vstr.32	s0, [r4, #160]
 112:Application/ins_task.c ****     ins->xzy_order_angle[0] = atan2f(2.0f * (q[0] * q[1] + q[2] * q[3]), 1 - 2.0f * (q[1] * q[1] - 
 1726              		.loc 1 112 5 is_stmt 1 view .LVU605
 112:Application/ins_task.c ****     ins->xzy_order_angle[0] = atan2f(2.0f * (q[0] * q[1] + q[2] * q[3]), 1 - 2.0f * (q[1] * q[1] - 
 1727              		.loc 1 112 47 is_stmt 0 view .LVU606
 1728 00e2 97ED550A 		vldr.32	s0, [r7, #340]
 112:Application/ins_task.c ****     ins->xzy_order_angle[0] = atan2f(2.0f * (q[0] * q[1] + q[2] * q[3]), 1 - 2.0f * (q[1] * q[1] - 
 1729              		.loc 1 112 54 view .LVU607
 1730 00e6 D7ED577A 		vldr.32	s15, [r7, #348]
ARM GAS  C:\Users\86152\AppData\Local\Temp\ccIGvTB4.s 			page 45


 112:Application/ins_task.c ****     ins->xzy_order_angle[0] = atan2f(2.0f * (q[0] * q[1] + q[2] * q[3]), 1 - 2.0f * (q[1] * q[1] - 
 1731              		.loc 1 112 51 view .LVU608
 1732 00ea 20EE270A 		vmul.f32	s0, s0, s15
 112:Application/ins_task.c ****     ins->xzy_order_angle[0] = atan2f(2.0f * (q[0] * q[1] + q[2] * q[3]), 1 - 2.0f * (q[1] * q[1] - 
 1733              		.loc 1 112 61 view .LVU609
 1734 00ee 97ED547A 		vldr.32	s14, [r7, #336]
 112:Application/ins_task.c ****     ins->xzy_order_angle[0] = atan2f(2.0f * (q[0] * q[1] + q[2] * q[3]), 1 - 2.0f * (q[1] * q[1] - 
 1735              		.loc 1 112 68 view .LVU610
 1736 00f2 D7ED560A 		vldr.32	s1, [r7, #344]
 112:Application/ins_task.c ****     ins->xzy_order_angle[0] = atan2f(2.0f * (q[0] * q[1] + q[2] * q[3]), 1 - 2.0f * (q[1] * q[1] - 
 1737              		.loc 1 112 65 view .LVU611
 1738 00f6 27EE207A 		vmul.f32	s14, s14, s1
 112:Application/ins_task.c ****     ins->xzy_order_angle[0] = atan2f(2.0f * (q[0] * q[1] + q[2] * q[3]), 1 - 2.0f * (q[1] * q[1] - 
 1739              		.loc 1 112 58 view .LVU612
 1740 00fa 30EE070A 		vadd.f32	s0, s0, s14
 112:Application/ins_task.c ****     ins->xzy_order_angle[0] = atan2f(2.0f * (q[0] * q[1] + q[2] * q[3]), 1 - 2.0f * (q[1] * q[1] - 
 1741              		.loc 1 112 91 view .LVU613
 1742 00fe 60EEA00A 		vmul.f32	s1, s1, s1
 112:Application/ins_task.c ****     ins->xzy_order_angle[0] = atan2f(2.0f * (q[0] * q[1] + q[2] * q[3]), 1 - 2.0f * (q[1] * q[1] - 
 1743              		.loc 1 112 105 view .LVU614
 1744 0102 67EEA77A 		vmul.f32	s15, s15, s15
 112:Application/ins_task.c ****     ins->xzy_order_angle[0] = atan2f(2.0f * (q[0] * q[1] + q[2] * q[3]), 1 - 2.0f * (q[1] * q[1] - 
 1745              		.loc 1 112 98 view .LVU615
 1746 0106 70EEA70A 		vadd.f32	s1, s1, s15
 112:Application/ins_task.c ****     ins->xzy_order_angle[0] = atan2f(2.0f * (q[0] * q[1] + q[2] * q[3]), 1 - 2.0f * (q[1] * q[1] - 
 1747              		.loc 1 112 83 view .LVU616
 1748 010a 70EEA00A 		vadd.f32	s1, s1, s1
 112:Application/ins_task.c ****     ins->xzy_order_angle[0] = atan2f(2.0f * (q[0] * q[1] + q[2] * q[3]), 1 - 2.0f * (q[1] * q[1] - 
 1749              		.loc 1 112 31 view .LVU617
 1750 010e F7EE008A 		vmov.f32	s17, #1.0e+0
 1751 0112 78EEE00A 		vsub.f32	s1, s17, s1
 1752 0116 30EE000A 		vadd.f32	s0, s0, s0
 1753 011a FFF7FEFF 		bl	atan2f
 1754              	.LVL112:
 112:Application/ins_task.c ****     ins->xzy_order_angle[0] = atan2f(2.0f * (q[0] * q[1] + q[2] * q[3]), 1 - 2.0f * (q[1] * q[1] - 
 1755              		.loc 1 112 114 view .LVU618
 1756 011e 20EE080A 		vmul.f32	s0, s0, s16
 112:Application/ins_task.c ****     ins->xzy_order_angle[0] = atan2f(2.0f * (q[0] * q[1] + q[2] * q[3]), 1 - 2.0f * (q[1] * q[1] - 
 1757              		.loc 1 112 29 view .LVU619
 1758 0122 84ED290A 		vstr.32	s0, [r4, #164]
 113:Application/ins_task.c **** 
 1759              		.loc 1 113 5 is_stmt 1 view .LVU620
 113:Application/ins_task.c **** 
 1760              		.loc 1 113 47 is_stmt 0 view .LVU621
 1761 0126 97ED540A 		vldr.32	s0, [r7, #336]
 113:Application/ins_task.c **** 
 1762              		.loc 1 113 54 view .LVU622
 1763 012a D7ED550A 		vldr.32	s1, [r7, #340]
 113:Application/ins_task.c **** 
 1764              		.loc 1 113 51 view .LVU623
 1765 012e 20EE200A 		vmul.f32	s0, s0, s1
 113:Application/ins_task.c **** 
 1766              		.loc 1 113 61 view .LVU624
 1767 0132 97ED567A 		vldr.32	s14, [r7, #344]
 113:Application/ins_task.c **** 
 1768              		.loc 1 113 68 view .LVU625
 1769 0136 D7ED577A 		vldr.32	s15, [r7, #348]
ARM GAS  C:\Users\86152\AppData\Local\Temp\ccIGvTB4.s 			page 46


 113:Application/ins_task.c **** 
 1770              		.loc 1 113 65 view .LVU626
 1771 013a 27EE277A 		vmul.f32	s14, s14, s15
 113:Application/ins_task.c **** 
 1772              		.loc 1 113 58 view .LVU627
 1773 013e 30EE070A 		vadd.f32	s0, s0, s14
 113:Application/ins_task.c **** 
 1774              		.loc 1 113 91 view .LVU628
 1775 0142 60EEA00A 		vmul.f32	s1, s1, s1
 113:Application/ins_task.c **** 
 1776              		.loc 1 113 105 view .LVU629
 1777 0146 67EEA77A 		vmul.f32	s15, s15, s15
 113:Application/ins_task.c **** 
 1778              		.loc 1 113 98 view .LVU630
 1779 014a 70EEE70A 		vsub.f32	s1, s1, s15
 113:Application/ins_task.c **** 
 1780              		.loc 1 113 83 view .LVU631
 1781 014e 70EEA00A 		vadd.f32	s1, s1, s1
 113:Application/ins_task.c **** 
 1782              		.loc 1 113 31 view .LVU632
 1783 0152 78EEE00A 		vsub.f32	s1, s17, s1
 1784 0156 30EE000A 		vadd.f32	s0, s0, s0
 1785 015a FFF7FEFF 		bl	atan2f
 1786              	.LVL113:
 113:Application/ins_task.c **** 
 1787              		.loc 1 113 114 view .LVU633
 1788 015e 20EE088A 		vmul.f32	s16, s0, s16
 113:Application/ins_task.c **** 
 1789              		.loc 1 113 29 view .LVU634
 1790 0162 84ED278A 		vstr.32	s16, [r4, #156]
 115:Application/ins_task.c ****     BodyFrameToEarthFrame(yb, ins->yn, ins->q);
 1791              		.loc 1 115 5 is_stmt 1 view .LVU635
 1792 0166 2246     		mov	r2, r4
 1793 0168 04F14401 		add	r1, r4, #68
 1794 016c 3A48     		ldr	r0, .L50+20
 1795 016e FFF7FEFF 		bl	BodyFrameToEarthFrame
 1796              	.LVL114:
 116:Application/ins_task.c ****     BodyFrameToEarthFrame(zb, ins->zn, ins->q);
 1797              		.loc 1 116 5 view .LVU636
 1798 0172 2246     		mov	r2, r4
 1799 0174 04F15001 		add	r1, r4, #80
 1800 0178 3848     		ldr	r0, .L50+24
 1801 017a FFF7FEFF 		bl	BodyFrameToEarthFrame
 1802              	.LVL115:
 117:Application/ins_task.c **** 
 1803              		.loc 1 117 5 view .LVU637
 1804 017e 2246     		mov	r2, r4
 1805 0180 04F15C01 		add	r1, r4, #92
 1806 0184 3648     		ldr	r0, .L50+28
 1807 0186 FFF7FEFF 		bl	BodyFrameToEarthFrame
 1808              	.LVL116:
 119:Application/ins_task.c ****     EarthFrameToBodyFrame(gravity, gravity_b, INS.q);
 1809              		.loc 1 119 5 view .LVU638
 120:Application/ins_task.c ****     for (uint8_t i = 0; i < 3; i++)
 1810              		.loc 1 120 5 view .LVU639
 1811 018a 364A     		ldr	r2, .L50+32
 1812 018c 01A9     		add	r1, sp, #4
ARM GAS  C:\Users\86152\AppData\Local\Temp\ccIGvTB4.s 			page 47


 1813 018e 3648     		ldr	r0, .L50+36
 1814 0190 FFF7FEFF 		bl	EarthFrameToBodyFrame
 1815              	.LVL117:
 121:Application/ins_task.c ****         ins->MotionAccel_b[i] = (ins->Accel[i] - gravity_b[i]) * dt / (ins->AccelLPF + dt) + ins->M
 1816              		.loc 1 121 5 view .LVU640
 1817              	.LBB9:
 121:Application/ins_task.c ****         ins->MotionAccel_b[i] = (ins->Accel[i] - gravity_b[i]) * dt / (ins->AccelLPF + dt) + ins->M
 1818              		.loc 1 121 10 view .LVU641
 121:Application/ins_task.c ****         ins->MotionAccel_b[i] = (ins->Accel[i] - gravity_b[i]) * dt / (ins->AccelLPF + dt) + ins->M
 1819              		.loc 1 121 18 is_stmt 0 view .LVU642
 1820 0194 0023     		movs	r3, #0
 121:Application/ins_task.c ****         ins->MotionAccel_b[i] = (ins->Accel[i] - gravity_b[i]) * dt / (ins->AccelLPF + dt) + ins->M
 1821              		.loc 1 121 5 view .LVU643
 1822 0196 26E0     		b	.L47
 1823              	.LVL118:
 1824              	.L48:
 122:Application/ins_task.c ****     BodyFrameToEarthFrame(ins->MotionAccel_b, ins->MotionAccel_n, ins->q);
 1825              		.loc 1 122 9 is_stmt 1 discriminator 3 view .LVU644
 122:Application/ins_task.c ****     BodyFrameToEarthFrame(ins->MotionAccel_b, ins->MotionAccel_n, ins->q);
 1826              		.loc 1 122 44 is_stmt 0 discriminator 3 view .LVU645
 1827 0198 9A1D     		adds	r2, r3, #6
 1828 019a 04EB8202 		add	r2, r4, r2, lsl #2
 1829 019e 92ED017A 		vldr.32	s14, [r2, #4]
 122:Application/ins_task.c ****     BodyFrameToEarthFrame(ins->MotionAccel_b, ins->MotionAccel_n, ins->q);
 1830              		.loc 1 122 59 discriminator 3 view .LVU646
 1831 01a2 04AA     		add	r2, sp, #16
 1832 01a4 02EB8302 		add	r2, r2, r3, lsl #2
 1833 01a8 52ED037A 		vldr.32	s15, [r2, #-12]
 122:Application/ins_task.c ****     BodyFrameToEarthFrame(ins->MotionAccel_b, ins->MotionAccel_n, ins->q);
 1834              		.loc 1 122 48 discriminator 3 view .LVU647
 1835 01ac 37EE677A 		vsub.f32	s14, s14, s15
 122:Application/ins_task.c ****     BodyFrameToEarthFrame(ins->MotionAccel_b, ins->MotionAccel_n, ins->q);
 1836              		.loc 1 122 64 discriminator 3 view .LVU648
 1837 01b0 264A     		ldr	r2, .L50+8
 1838 01b2 D2ED007A 		vldr.32	s15, [r2]
 1839 01b6 27EE277A 		vmul.f32	s14, s14, s15
 122:Application/ins_task.c ****     BodyFrameToEarthFrame(ins->MotionAccel_b, ins->MotionAccel_n, ins->q);
 1840              		.loc 1 122 75 discriminator 3 view .LVU649
 1841 01ba D4ED106A 		vldr.32	s13, [r4, #64]
 122:Application/ins_task.c ****     BodyFrameToEarthFrame(ins->MotionAccel_b, ins->MotionAccel_n, ins->q);
 1842              		.loc 1 122 86 discriminator 3 view .LVU650
 1843 01be 77EEA67A 		vadd.f32	s15, s15, s13
 122:Application/ins_task.c ****     BodyFrameToEarthFrame(ins->MotionAccel_b, ins->MotionAccel_n, ins->q);
 1844              		.loc 1 122 69 discriminator 3 view .LVU651
 1845 01c2 87EE276A 		vdiv.f32	s12, s14, s15
 122:Application/ins_task.c ****     BodyFrameToEarthFrame(ins->MotionAccel_b, ins->MotionAccel_n, ins->q);
 1846              		.loc 1 122 112 discriminator 3 view .LVU652
 1847 01c6 03F10A02 		add	r2, r3, #10
 1848 01ca 04EB8202 		add	r2, r4, r2, lsl #2
 1849 01ce 92ED007A 		vldr.32	s14, [r2]
 122:Application/ins_task.c ****     BodyFrameToEarthFrame(ins->MotionAccel_b, ins->MotionAccel_n, ins->q);
 1850              		.loc 1 122 116 discriminator 3 view .LVU653
 1851 01d2 66EE876A 		vmul.f32	s13, s13, s14
 122:Application/ins_task.c ****     BodyFrameToEarthFrame(ins->MotionAccel_b, ins->MotionAccel_n, ins->q);
 1852              		.loc 1 122 132 discriminator 3 view .LVU654
 1853 01d6 86EEA77A 		vdiv.f32	s14, s13, s15
 122:Application/ins_task.c ****     BodyFrameToEarthFrame(ins->MotionAccel_b, ins->MotionAccel_n, ins->q);
ARM GAS  C:\Users\86152\AppData\Local\Temp\ccIGvTB4.s 			page 48


 1854              		.loc 1 122 92 discriminator 3 view .LVU655
 1855 01da 76EE077A 		vadd.f32	s15, s12, s14
 122:Application/ins_task.c ****     BodyFrameToEarthFrame(ins->MotionAccel_b, ins->MotionAccel_n, ins->q);
 1856              		.loc 1 122 31 discriminator 3 view .LVU656
 1857 01de C2ED007A 		vstr.32	s15, [r2]
 121:Application/ins_task.c ****         ins->MotionAccel_b[i] = (ins->Accel[i] - gravity_b[i]) * dt / (ins->AccelLPF + dt) + ins->M
 1858              		.loc 1 121 32 is_stmt 1 discriminator 3 view .LVU657
 121:Application/ins_task.c ****         ins->MotionAccel_b[i] = (ins->Accel[i] - gravity_b[i]) * dt / (ins->AccelLPF + dt) + ins->M
 1859              		.loc 1 121 33 is_stmt 0 discriminator 3 view .LVU658
 1860 01e2 0133     		adds	r3, r3, #1
 1861              	.LVL119:
 121:Application/ins_task.c ****         ins->MotionAccel_b[i] = (ins->Accel[i] - gravity_b[i]) * dt / (ins->AccelLPF + dt) + ins->M
 1862              		.loc 1 121 33 discriminator 3 view .LVU659
 1863 01e4 DBB2     		uxtb	r3, r3
 1864              	.LVL120:
 1865              	.L47:
 121:Application/ins_task.c ****         ins->MotionAccel_b[i] = (ins->Accel[i] - gravity_b[i]) * dt / (ins->AccelLPF + dt) + ins->M
 1866              		.loc 1 121 25 is_stmt 1 discriminator 1 view .LVU660
 121:Application/ins_task.c ****         ins->MotionAccel_b[i] = (ins->Accel[i] - gravity_b[i]) * dt / (ins->AccelLPF + dt) + ins->M
 1867              		.loc 1 121 5 is_stmt 0 discriminator 1 view .LVU661
 1868 01e6 022B     		cmp	r3, #2
 1869 01e8 D6D9     		bls	.L48
 1870              	.LBE9:
 123:Application/ins_task.c **** 
 1871              		.loc 1 123 5 is_stmt 1 view .LVU662
 123:Application/ins_task.c **** 
 1872              		.loc 1 123 50 is_stmt 0 view .LVU663
 1873 01ea 04F13408 		add	r8, r4, #52
 123:Application/ins_task.c **** 
 1874              		.loc 1 123 5 view .LVU664
 1875 01ee 2246     		mov	r2, r4
 1876 01f0 4146     		mov	r1, r8
 1877 01f2 04F12800 		add	r0, r4, #40
 1878 01f6 FFF7FEFF 		bl	BodyFrameToEarthFrame
 1879              	.LVL121:
 125:Application/ins_task.c ****     memcpy(ins->Accel, QEKF_INS.Accel, sizeof(QEKF_INS.Accel));
 1880              		.loc 1 125 5 is_stmt 1 view .LVU665
 1881 01fa 1C4F     		ldr	r7, .L50+40
 1882 01fc 3B46     		mov	r3, r7
 1883 01fe 07CB     		ldmia	r3!, {r0, r1, r2}
 1884 0200 2061     		str	r0, [r4, #16]	@ unaligned
 1885 0202 7160     		str	r1, [r6, #4]	@ unaligned
 1886 0204 B260     		str	r2, [r6, #8]	@ unaligned
 126:Application/ins_task.c ****     memcpy(ins->q, QEKF_INS.q, sizeof(QEKF_INS.q));
 1887              		.loc 1 126 5 view .LVU666
 1888 0206 07CB     		ldmia	r3!, {r0, r1, r2}
 1889 0208 E061     		str	r0, [r4, #28]	@ unaligned
 1890 020a 6960     		str	r1, [r5, #4]	@ unaligned
 1891 020c AA60     		str	r2, [r5, #8]	@ unaligned
 127:Application/ins_task.c ****     ins->Yaw = QEKF_INS.Yaw;
 1892              		.loc 1 127 5 view .LVU667
 1893 020e A7F11C05 		sub	r5, r7, #28
 1894 0212 0FCD     		ldmia	r5!, {r0, r1, r2, r3}
 1895 0214 2060     		str	r0, [r4]	@ unaligned
 1896 0216 6160     		str	r1, [r4, #4]	@ unaligned
 1897 0218 A260     		str	r2, [r4, #8]	@ unaligned
 1898 021a E360     		str	r3, [r4, #12]	@ unaligned
ARM GAS  C:\Users\86152\AppData\Local\Temp\ccIGvTB4.s 			page 49


 128:Application/ins_task.c ****     ins->Pitch = QEKF_INS.Pitch;
 1899              		.loc 1 128 5 view .LVU668
 128:Application/ins_task.c ****     ins->Pitch = QEKF_INS.Pitch;
 1900              		.loc 1 128 24 is_stmt 0 view .LVU669
 1901 021c FB6B     		ldr	r3, [r7, #60]	@ float
 128:Application/ins_task.c ****     ins->Pitch = QEKF_INS.Pitch;
 1902              		.loc 1 128 14 view .LVU670
 1903 021e A367     		str	r3, [r4, #120]	@ float
 129:Application/ins_task.c ****     // ins->Roll = QEKF_INS.Roll;
 1904              		.loc 1 129 5 is_stmt 1 view .LVU671
 129:Application/ins_task.c ****     // ins->Roll = QEKF_INS.Roll;
 1905              		.loc 1 129 26 is_stmt 0 view .LVU672
 1906 0220 BB6B     		ldr	r3, [r7, #56]	@ float
 129:Application/ins_task.c ****     // ins->Roll = QEKF_INS.Roll;
 1907              		.loc 1 129 16 view .LVU673
 1908 0222 6367     		str	r3, [r4, #116]	@ float
 131:Application/ins_task.c **** 
 1909              		.loc 1 131 5 is_stmt 1 view .LVU674
 131:Application/ins_task.c **** 
 1910              		.loc 1 131 34 is_stmt 0 view .LVU675
 1911 0224 3B6C     		ldr	r3, [r7, #64]	@ float
 131:Application/ins_task.c **** 
 1912              		.loc 1 131 24 view .LVU676
 1913 0226 E367     		str	r3, [r4, #124]	@ float
 133:Application/ins_task.c **** 
 1914              		.loc 1 133 5 is_stmt 1 view .LVU677
 1915 0228 FFF7FEFF 		bl	HAL_GetTick
 1916              	.LVL122:
 1917 022c 0346     		mov	r3, r0
 1918 022e 4246     		mov	r2, r8
 1919 0230 2146     		mov	r1, r4
 1920 0232 0F48     		ldr	r0, .L50+44
 1921 0234 FFF7FEFF 		bl	InsertQuaternionFrame
 1922              	.LVL123:
 136:Application/ins_task.c **** 
 1923              		.loc 1 136 1 is_stmt 0 view .LVU678
 1924 0238 04B0     		add	sp, sp, #16
 1925              	.LCFI19:
 1926              		.cfi_def_cfa_offset 32
 1927              		@ sp needed
 1928 023a BDEC028B 		vldm	sp!, {d8}
 1929              	.LCFI20:
 1930              		.cfi_restore 80
 1931              		.cfi_restore 81
 1932              		.cfi_def_cfa_offset 24
 1933 023e BDE8F081 		pop	{r4, r5, r6, r7, r8, pc}
 1934              	.LVL124:
 1935              	.L51:
 136:Application/ins_task.c **** 
 1936              		.loc 1 136 1 view .LVU679
 1937 0242 00BF     		.align	2
 1938              	.L50:
 1939 0244 00003443 		.word	1127481344
 1940 0248 DB0F4940 		.word	1078530011
 1941 024c 00000000 		.word	.LANCHOR13
 1942 0250 00000000 		.word	QEKF_INS
 1943 0254 E12E6542 		.word	1113927393
ARM GAS  C:\Users\86152\AppData\Local\Temp\ccIGvTB4.s 			page 50


 1944 0258 00000000 		.word	.LANCHOR14
 1945 025c 00000000 		.word	.LANCHOR15
 1946 0260 00000000 		.word	.LANCHOR16
 1947 0264 00000000 		.word	.LANCHOR17
 1948 0268 00000000 		.word	.LANCHOR18
 1949 026c 6C010000 		.word	QEKF_INS+364
 1950 0270 00000000 		.word	.LANCHOR19
 1951              		.cfi_endproc
 1952              	.LFE173:
 1954              		.section	.text.IMU_Temperature_Ctrl,"ax",%progbits
 1955              		.align	1
 1956              		.global	IMU_Temperature_Ctrl
 1957              		.syntax unified
 1958              		.thumb
 1959              		.thumb_func
 1961              	IMU_Temperature_Ctrl:
 1962              	.LFB182:
 320:Application/ins_task.c **** 
 321:Application/ins_task.c **** void IMU_Temperature_Ctrl(void)
 322:Application/ins_task.c **** {
 1963              		.loc 1 322 1 is_stmt 1 view -0
 1964              		.cfi_startproc
 1965              		@ args = 0, pretend = 0, frame = 0
 1966              		@ frame_needed = 0, uses_anonymous_args = 0
 1967 0000 10B5     		push	{r4, lr}
 1968              	.LCFI21:
 1969              		.cfi_def_cfa_offset 8
 1970              		.cfi_offset 4, -8
 1971              		.cfi_offset 14, -4
 1972 0002 2DED028B 		vpush.64	{d8}
 1973              	.LCFI22:
 1974              		.cfi_def_cfa_offset 16
 1975              		.cfi_offset 80, -16
 1976              		.cfi_offset 81, -12
 323:Application/ins_task.c ****     PID_Calculate(&TempCtrl, BMI088.Temperature, 40 + 0 * float_constrain(BMI088.TempWhenCali, 37, 
 1977              		.loc 1 323 5 view .LVU681
 1978 0006 194B     		ldr	r3, .L54
 1979 0008 D3ED078A 		vldr.32	s17, [r3, #28]
 1980              		.loc 1 323 59 is_stmt 0 view .LVU682
 1981 000c 9FED181A 		vldr.32	s2, .L54+4
 1982 0010 DFED180A 		vldr.32	s1, .L54+8
 1983 0014 93ED060A 		vldr.32	s0, [r3, #24]
 1984 0018 FFF7FEFF 		bl	float_constrain
 1985              	.LVL125:
 1986              		.loc 1 323 57 view .LVU683
 1987 001c 9FED168A 		vldr.32	s16, .L54+12
 1988 0020 20EE080A 		vmul.f32	s0, s0, s16
 1989              		.loc 1 323 5 view .LVU684
 1990 0024 154C     		ldr	r4, .L54+16
 1991 0026 DFED160A 		vldr.32	s1, .L54+20
 1992 002a 70EE200A 		vadd.f32	s1, s0, s1
 1993 002e B0EE680A 		vmov.f32	s0, s17
 1994 0032 2046     		mov	r0, r4
 1995 0034 FFF7FEFF 		bl	PID_Calculate
 1996              	.LVL126:
 324:Application/ins_task.c **** 
 325:Application/ins_task.c ****     TIM_Set_PWM(&htim10, TIM_CHANNEL_1, float_constrain(float_rounding(TempCtrl.Output), 0, UINT32_
ARM GAS  C:\Users\86152\AppData\Local\Temp\ccIGvTB4.s 			page 51


 1997              		.loc 1 325 5 is_stmt 1 view .LVU685
 1998              		.loc 1 325 57 is_stmt 0 view .LVU686
 1999 0038 94ED0D0A 		vldr.32	s0, [r4, #52]
 2000 003c FFF7FEFF 		bl	float_rounding
 2001              	.LVL127:
 2002 0040 00EE100A 		vmov	s0, r0	@ int
 2003              		.loc 1 325 41 view .LVU687
 2004 0044 9FED0F1A 		vldr.32	s2, .L54+24
 2005 0048 F0EE480A 		vmov.f32	s1, s16
 2006 004c B8EEC00A 		vcvt.f32.s32	s0, s0
 2007 0050 FFF7FEFF 		bl	float_constrain
 2008              	.LVL128:
 2009              		.loc 1 325 5 view .LVU688
 2010 0054 BCEEC00A 		vcvt.u32.f32	s0, s0
 2011 0058 10EE103A 		vmov	r3, s0	@ int
 2012 005c 9AB2     		uxth	r2, r3
 2013 005e 0021     		movs	r1, #0
 2014 0060 0948     		ldr	r0, .L54+28
 2015 0062 FFF7FEFF 		bl	TIM_Set_PWM
 2016              	.LVL129:
 326:Application/ins_task.c **** }
 2017              		.loc 1 326 1 view .LVU689
 2018 0066 BDEC028B 		vldm	sp!, {d8}
 2019              	.LCFI23:
 2020              		.cfi_restore 80
 2021              		.cfi_restore 81
 2022              		.cfi_def_cfa_offset 8
 2023 006a 10BD     		pop	{r4, pc}
 2024              	.L55:
 2025              		.align	2
 2026              	.L54:
 2027 006c 00000000 		.word	BMI088
 2028 0070 00002842 		.word	1109917696
 2029 0074 00001442 		.word	1108606976
 2030 0078 00000000 		.word	0
 2031 007c 00000000 		.word	.LANCHOR12
 2032 0080 00002042 		.word	1109393408
 2033 0084 0000804F 		.word	1333788672
 2034 0088 00000000 		.word	htim10
 2035              		.cfi_endproc
 2036              	.LFE182:
 2038              		.section	.text.INS_Task,"ax",%progbits
 2039              		.align	1
 2040              		.global	INS_Task
 2041              		.syntax unified
 2042              		.thumb
 2043              		.thumb_func
 2045              	INS_Task:
 2046              	.LFB172:
  51:Application/ins_task.c ****     static uint32_t count = 0;
 2047              		.loc 1 51 1 is_stmt 1 view -0
 2048              		.cfi_startproc
 2049              		@ args = 0, pretend = 0, frame = 16
 2050              		@ frame_needed = 0, uses_anonymous_args = 0
 2051 0000 10B5     		push	{r4, lr}
 2052              	.LCFI24:
 2053              		.cfi_def_cfa_offset 8
ARM GAS  C:\Users\86152\AppData\Local\Temp\ccIGvTB4.s 			page 52


 2054              		.cfi_offset 4, -8
 2055              		.cfi_offset 14, -4
 2056 0002 84B0     		sub	sp, sp, #16
 2057              	.LCFI25:
 2058              		.cfi_def_cfa_offset 24
  52:Application/ins_task.c ****     const float gravity[3] = {0, 0, 9.81f};
 2059              		.loc 1 52 5 view .LVU691
  53:Application/ins_task.c ****     dt = DWT_GetDeltaT(&INS_DWT_Count);
 2060              		.loc 1 53 5 view .LVU692
  53:Application/ins_task.c ****     dt = DWT_GetDeltaT(&INS_DWT_Count);
 2061              		.loc 1 53 17 is_stmt 0 view .LVU693
 2062 0004 0023     		movs	r3, #0
 2063 0006 0193     		str	r3, [sp, #4]	@ float
 2064 0008 0293     		str	r3, [sp, #8]	@ float
 2065 000a 304B     		ldr	r3, .L64
 2066 000c 0393     		str	r3, [sp, #12]	@ float
  54:Application/ins_task.c ****     t += dt;
 2067              		.loc 1 54 5 is_stmt 1 view .LVU694
  54:Application/ins_task.c ****     t += dt;
 2068              		.loc 1 54 10 is_stmt 0 view .LVU695
 2069 000e 3048     		ldr	r0, .L64+4
 2070 0010 FFF7FEFF 		bl	DWT_GetDeltaT
 2071              	.LVL130:
  54:Application/ins_task.c ****     t += dt;
 2072              		.loc 1 54 8 view .LVU696
 2073 0014 2F4B     		ldr	r3, .L64+8
 2074 0016 83ED000A 		vstr.32	s0, [r3]
  55:Application/ins_task.c **** 
 2075              		.loc 1 55 5 is_stmt 1 view .LVU697
  55:Application/ins_task.c **** 
 2076              		.loc 1 55 7 is_stmt 0 view .LVU698
 2077 001a 2F4B     		ldr	r3, .L64+12
 2078 001c D3ED007A 		vldr.32	s15, [r3]
 2079 0020 37EE800A 		vadd.f32	s0, s15, s0
 2080 0024 83ED000A 		vstr.32	s0, [r3]
  58:Application/ins_task.c ****     {
 2081              		.loc 1 58 5 is_stmt 1 view .LVU699
  60:Application/ins_task.c ****         // INS.Accel[X] = -BMI088.Accel[Y];
 2082              		.loc 1 60 9 view .LVU700
 2083 0028 2C48     		ldr	r0, .L64+16
 2084 002a FFF7FEFF 		bl	BMI088_Read
 2085              	.LVL131:
  68:Application/ins_task.c ****             exo_controller.xzy_shoulder.dm_imu.send_reg = 0x02; // 0x01:accel, 0x02:gyro, 0x03:eule
 2086              		.loc 1 68 9 view .LVU701
  68:Application/ins_task.c ****             exo_controller.xzy_shoulder.dm_imu.send_reg = 0x02; // 0x01:accel, 0x02:gyro, 0x03:eule
 2087              		.loc 1 68 47 is_stmt 0 view .LVU702
 2088 002e 2C4B     		ldr	r3, .L64+20
 2089 0030 93F8803A 		ldrb	r3, [r3, #2688]	@ zero_extendqisi2
  68:Application/ins_task.c ****             exo_controller.xzy_shoulder.dm_imu.send_reg = 0x02; // 0x01:accel, 0x02:gyro, 0x03:eule
 2090              		.loc 1 68 12 view .LVU703
 2091 0034 012B     		cmp	r3, #1
 2092 0036 1BD0     		beq	.L61
  70:Application/ins_task.c ****             exo_controller.xzy_shoulder.dm_imu.send_reg = 0x01;
 2093              		.loc 1 70 14 is_stmt 1 view .LVU704
  70:Application/ins_task.c ****             exo_controller.xzy_shoulder.dm_imu.send_reg = 0x01;
 2094              		.loc 1 70 17 is_stmt 0 view .LVU705
 2095 0038 022B     		cmp	r3, #2
ARM GAS  C:\Users\86152\AppData\Local\Temp\ccIGvTB4.s 			page 53


 2096 003a 1ED0     		beq	.L62
 2097              	.L58:
  72:Application/ins_task.c ****         get_INS_from_imu(&exo_controller.xzy_shoulder.INS_shoulder,
 2098              		.loc 1 72 9 is_stmt 1 view .LVU706
 2099 003c 284C     		ldr	r4, .L64+20
 2100 003e 94F8802A 		ldrb	r2, [r4, #2688]	@ zero_extendqisi2
 2101 0042 0121     		movs	r1, #1
 2102 0044 2748     		ldr	r0, .L64+24
 2103 0046 FFF7FEFF 		bl	IMU_RequestData
 2104              	.LVL132:
  73:Application/ins_task.c ****                          exo_controller.xzy_shoulder.dm_imu.accel, exo_controller.xzy_shoulder.dm_i
 2105              		.loc 1 73 9 view .LVU707
 2106 004a 04F52962 		add	r2, r4, #2704
 2107 004e 04F69C21 		addw	r1, r4, #2716
 2108 0052 04F6DC20 		addw	r0, r4, #2780
 2109 0056 FFF7FEFF 		bl	get_INS_from_imu
 2110              	.LVL133:
  78:Application/ins_task.c ****     {
 2111              		.loc 1 78 5 view .LVU708
  78:Application/ins_task.c ****     {
 2112              		.loc 1 78 16 is_stmt 0 view .LVU709
 2113 005a 234B     		ldr	r3, .L64+28
 2114 005c 1B68     		ldr	r3, [r3]
  78:Application/ins_task.c ****     {
 2115              		.loc 1 78 8 view .LVU710
 2116 005e 13F0010F 		tst	r3, #1
 2117 0062 0FD0     		beq	.L63
 2118              	.L59:
  86:Application/ins_task.c ****     {
 2119              		.loc 1 86 5 is_stmt 1 view .LVU711
  86:Application/ins_task.c ****     {
 2120              		.loc 1 86 16 is_stmt 0 view .LVU712
 2121 0064 204A     		ldr	r2, .L64+28
 2122 0066 1368     		ldr	r3, [r2]
  89:Application/ins_task.c **** 
 2123              		.loc 1 89 5 is_stmt 1 view .LVU713
  91:Application/ins_task.c **** }
 2124              		.loc 1 91 5 view .LVU714
  91:Application/ins_task.c **** }
 2125              		.loc 1 91 10 is_stmt 0 view .LVU715
 2126 0068 0133     		adds	r3, r3, #1
 2127 006a 1360     		str	r3, [r2]
  92:Application/ins_task.c **** 
 2128              		.loc 1 92 1 view .LVU716
 2129 006c 04B0     		add	sp, sp, #16
 2130              	.LCFI26:
 2131              		.cfi_remember_state
 2132              		.cfi_def_cfa_offset 8
 2133              		@ sp needed
 2134 006e 10BD     		pop	{r4, pc}
 2135              	.L61:
 2136              	.LCFI27:
 2137              		.cfi_restore_state
  69:Application/ins_task.c ****         else if (exo_controller.xzy_shoulder.dm_imu.send_reg == 0x02)
 2138              		.loc 1 69 13 is_stmt 1 view .LVU717
  69:Application/ins_task.c ****         else if (exo_controller.xzy_shoulder.dm_imu.send_reg == 0x02)
 2139              		.loc 1 69 57 is_stmt 0 view .LVU718
ARM GAS  C:\Users\86152\AppData\Local\Temp\ccIGvTB4.s 			page 54


 2140 0070 1B4B     		ldr	r3, .L64+20
 2141 0072 0222     		movs	r2, #2
 2142 0074 83F8802A 		strb	r2, [r3, #2688]
 2143 0078 E0E7     		b	.L58
 2144              	.L62:
  71:Application/ins_task.c ****         IMU_RequestData(&hcan2, 0x01, exo_controller.xzy_shoulder.dm_imu.send_reg);
 2145              		.loc 1 71 13 is_stmt 1 view .LVU719
  71:Application/ins_task.c ****         IMU_RequestData(&hcan2, 0x01, exo_controller.xzy_shoulder.dm_imu.send_reg);
 2146              		.loc 1 71 57 is_stmt 0 view .LVU720
 2147 007a 194B     		ldr	r3, .L64+20
 2148 007c 0122     		movs	r2, #1
 2149 007e 83F8802A 		strb	r2, [r3, #2688]
 2150 0082 DBE7     		b	.L58
 2151              	.L63:
  81:Application/ins_task.c ****         if (GlobalDebugMode == IMU_HEAT_DEBUG)
 2152              		.loc 1 81 9 is_stmt 1 view .LVU721
 2153 0084 FFF7FEFF 		bl	IMU_Temperature_Ctrl
 2154              	.LVL134:
  82:Application/ins_task.c ****             Serial_Debug(&huart1, 1, RefTemp, BMI088.Temperature, TempCtrl.Output / 1000.0f, TempCt
 2155              		.loc 1 82 9 view .LVU722
  82:Application/ins_task.c ****             Serial_Debug(&huart1, 1, RefTemp, BMI088.Temperature, TempCtrl.Output / 1000.0f, TempCt
 2156              		.loc 1 82 29 is_stmt 0 view .LVU723
 2157 0088 184B     		ldr	r3, .L64+32
 2158 008a 1B78     		ldrb	r3, [r3]	@ zero_extendqisi2
  82:Application/ins_task.c ****             Serial_Debug(&huart1, 1, RefTemp, BMI088.Temperature, TempCtrl.Output / 1000.0f, TempCt
 2159              		.loc 1 82 12 view .LVU724
 2160 008c 052B     		cmp	r3, #5
 2161 008e E9D1     		bne	.L59
  83:Application/ins_task.c ****     }
 2162              		.loc 1 83 13 is_stmt 1 view .LVU725
  83:Application/ins_task.c ****     }
 2163              		.loc 1 83 75 is_stmt 0 view .LVU726
 2164 0090 174B     		ldr	r3, .L64+36
 2165 0092 93ED0D1A 		vldr.32	s2, [r3, #52]
  83:Application/ins_task.c ****     }
 2166              		.loc 1 83 102 view .LVU727
 2167 0096 D3ED091A 		vldr.32	s3, [r3, #36]
  83:Application/ins_task.c ****     }
 2168              		.loc 1 83 127 view .LVU728
 2169 009a 93ED0A2A 		vldr.32	s4, [r3, #40]
  83:Application/ins_task.c ****     }
 2170              		.loc 1 83 152 view .LVU729
 2171 009e D3ED0B2A 		vldr.32	s5, [r3, #44]
  83:Application/ins_task.c ****     }
 2172              		.loc 1 83 13 view .LVU730
 2173 00a2 DFED147A 		vldr.32	s15, .L64+40
 2174 00a6 C2EEA72A 		vdiv.f32	s5, s5, s15
 2175 00aa 82EE272A 		vdiv.f32	s4, s4, s15
 2176 00ae C1EEA71A 		vdiv.f32	s3, s3, s15
 2177 00b2 81EE271A 		vdiv.f32	s2, s2, s15
 2178 00b6 094B     		ldr	r3, .L64+16
 2179 00b8 D3ED070A 		vldr.32	s1, [r3, #28]
 2180 00bc 0E4B     		ldr	r3, .L64+44
 2181 00be 93ED000A 		vldr.32	s0, [r3]
 2182 00c2 0121     		movs	r1, #1
 2183 00c4 0D48     		ldr	r0, .L64+48
 2184 00c6 FFF7FEFF 		bl	Serial_Debug
ARM GAS  C:\Users\86152\AppData\Local\Temp\ccIGvTB4.s 			page 55


 2185              	.LVL135:
 2186 00ca CBE7     		b	.L59
 2187              	.L65:
 2188              		.align	2
 2189              	.L64:
 2190 00cc C3F51C41 		.word	1092416963
 2191 00d0 00000000 		.word	.LANCHOR20
 2192 00d4 00000000 		.word	.LANCHOR13
 2193 00d8 00000000 		.word	.LANCHOR21
 2194 00dc 00000000 		.word	BMI088
 2195 00e0 00000000 		.word	exo_controller
 2196 00e4 00000000 		.word	hcan2
 2197 00e8 00000000 		.word	.LANCHOR22
 2198 00ec 00000000 		.word	GlobalDebugMode
 2199 00f0 00000000 		.word	.LANCHOR12
 2200 00f4 00007A44 		.word	1148846080
 2201 00f8 00000000 		.word	.LANCHOR23
 2202 00fc 00000000 		.word	huart1
 2203              		.cfi_endproc
 2204              	.LFE172:
 2206              		.global	RefTemp
 2207              		.global	INS_DWT_Count
 2208              		.global	zb
 2209              		.global	yb
 2210              		.global	xb
 2211              		.global	gravity
 2212              		.global	TempCtrl
 2213              		.global	QuaternionBuffer
 2214              		.global	INS
 2215              		.section	.bss.INS,"aw",%nobits
 2216              		.align	2
 2217              		.set	.LANCHOR17,. + 0
 2220              	INS:
 2221 0000 00000000 		.space	168
 2221      00000000 
 2221      00000000 
 2221      00000000 
 2221      00000000 
 2222              		.section	.bss.INS_DWT_Count,"aw",%nobits
 2223              		.align	2
 2224              		.set	.LANCHOR20,. + 0
 2227              	INS_DWT_Count:
 2228 0000 00000000 		.space	4
 2229              		.section	.bss.QuaternionBuffer,"aw",%nobits
 2230              		.align	2
 2231              		.set	.LANCHOR19,. + 0
 2234              	QuaternionBuffer:
 2235 0000 00000000 		.space	1604
 2235      00000000 
 2235      00000000 
 2235      00000000 
 2235      00000000 
 2236              		.section	.bss.TempCtrl,"aw",%nobits
 2237              		.align	3
 2238              		.set	.LANCHOR12,. + 0
 2241              	TempCtrl:
 2242 0000 00000000 		.space	184
ARM GAS  C:\Users\86152\AppData\Local\Temp\ccIGvTB4.s 			page 56


 2242      00000000 
 2242      00000000 
 2242      00000000 
 2242      00000000 
 2243              		.section	.bss.c_11.8,"aw",%nobits
 2244              		.align	2
 2245              		.set	.LANCHOR3,. + 0
 2248              	c_11.8:
 2249 0000 00000000 		.space	4
 2250              		.section	.bss.c_12.7,"aw",%nobits
 2251              		.align	2
 2252              		.set	.LANCHOR4,. + 0
 2255              	c_12.7:
 2256 0000 00000000 		.space	4
 2257              		.section	.bss.c_13.6,"aw",%nobits
 2258              		.align	2
 2259              		.set	.LANCHOR5,. + 0
 2262              	c_13.6:
 2263 0000 00000000 		.space	4
 2264              		.section	.bss.c_21.5,"aw",%nobits
 2265              		.align	2
 2266              		.set	.LANCHOR6,. + 0
 2269              	c_21.5:
 2270 0000 00000000 		.space	4
 2271              		.section	.bss.c_22.4,"aw",%nobits
 2272              		.align	2
 2273              		.set	.LANCHOR7,. + 0
 2276              	c_22.4:
 2277 0000 00000000 		.space	4
 2278              		.section	.bss.c_23.3,"aw",%nobits
 2279              		.align	2
 2280              		.set	.LANCHOR8,. + 0
 2283              	c_23.3:
 2284 0000 00000000 		.space	4
 2285              		.section	.bss.c_31.2,"aw",%nobits
 2286              		.align	2
 2287              		.set	.LANCHOR9,. + 0
 2290              	c_31.2:
 2291 0000 00000000 		.space	4
 2292              		.section	.bss.c_32.1,"aw",%nobits
 2293              		.align	2
 2294              		.set	.LANCHOR10,. + 0
 2297              	c_32.1:
 2298 0000 00000000 		.space	4
 2299              		.section	.bss.c_33.0,"aw",%nobits
 2300              		.align	2
 2301              		.set	.LANCHOR11,. + 0
 2304              	c_33.0:
 2305 0000 00000000 		.space	4
 2306              		.section	.bss.count.12,"aw",%nobits
 2307              		.align	2
 2308              		.set	.LANCHOR22,. + 0
 2311              	count.12:
 2312 0000 00000000 		.space	4
 2313              		.section	.bss.dt,"aw",%nobits
 2314              		.align	2
 2315              		.set	.LANCHOR13,. + 0
ARM GAS  C:\Users\86152\AppData\Local\Temp\ccIGvTB4.s 			page 57


 2318              	dt:
 2319 0000 00000000 		.space	4
 2320              		.section	.bss.lastPitchOffset.10,"aw",%nobits
 2321              		.align	2
 2322              		.set	.LANCHOR1,. + 0
 2325              	lastPitchOffset.10:
 2326 0000 00000000 		.space	4
 2327              		.section	.bss.lastRollOffset.9,"aw",%nobits
 2328              		.align	2
 2329              		.set	.LANCHOR2,. + 0
 2332              	lastRollOffset.9:
 2333 0000 00000000 		.space	4
 2334              		.section	.bss.lastYawOffset.11,"aw",%nobits
 2335              		.align	2
 2336              		.set	.LANCHOR0,. + 0
 2339              	lastYawOffset.11:
 2340 0000 00000000 		.space	4
 2341              		.section	.bss.t,"aw",%nobits
 2342              		.align	2
 2343              		.set	.LANCHOR21,. + 0
 2346              	t:
 2347 0000 00000000 		.space	4
 2348              		.section	.data.RefTemp,"aw"
 2349              		.align	2
 2350              		.set	.LANCHOR23,. + 0
 2353              	RefTemp:
 2354 0000 00002042 		.word	1109393408
 2355              		.section	.rodata.gravity,"a"
 2356              		.align	2
 2357              		.set	.LANCHOR18,. + 0
 2360              	gravity:
 2361 0000 00000000 		.word	0
 2362 0004 00000000 		.word	0
 2363 0008 C3F51C41 		.word	1092416963
 2364              		.section	.rodata.xb,"a"
 2365              		.align	2
 2366              		.set	.LANCHOR14,. + 0
 2369              	xb:
 2370 0000 0000803F 		.word	1065353216
 2371 0004 00000000 		.word	0
 2372 0008 00000000 		.word	0
 2373              		.section	.rodata.yb,"a"
 2374              		.align	2
 2375              		.set	.LANCHOR15,. + 0
 2378              	yb:
 2379 0000 00000000 		.word	0
 2380 0004 0000803F 		.word	1065353216
 2381 0008 00000000 		.word	0
 2382              		.section	.rodata.zb,"a"
 2383              		.align	2
 2384              		.set	.LANCHOR16,. + 0
 2387              	zb:
 2388 0000 00000000 		.word	0
 2389 0004 00000000 		.word	0
 2390 0008 0000803F 		.word	1065353216
 2391              		.text
 2392              	.Letext0:
ARM GAS  C:\Users\86152\AppData\Local\Temp\ccIGvTB4.s 			page 58


 2393              		.file 2 "c:\\program files (x86)\\gnu arm embedded toolchain\\10 2021.10\\arm-none-eabi\\include\\
 2394              		.file 3 "c:\\program files (x86)\\gnu arm embedded toolchain\\10 2021.10\\arm-none-eabi\\include\\
 2395              		.file 4 "Drivers/CMSIS/Device/ST/STM32F4xx/Include/stm32f407xx.h"
 2396              		.file 5 "Drivers/CMSIS/Device/ST/STM32F4xx/Include/stm32f4xx.h"
 2397              		.file 6 "Drivers/STM32F4xx_HAL_Driver/Inc/stm32f4xx_hal_def.h"
 2398              		.file 7 "Drivers/STM32F4xx_HAL_Driver/Inc/stm32f4xx_hal_dma.h"
 2399              		.file 8 "Drivers/STM32F4xx_HAL_Driver/Inc/stm32f4xx_hal_can.h"
 2400              		.file 9 "Drivers/STM32F4xx_HAL_Driver/Inc/stm32f4xx_hal_tim.h"
 2401              		.file 10 "Drivers/STM32F4xx_HAL_Driver/Inc/stm32f4xx_hal_uart.h"
 2402              		.file 11 "Core/Inc/can.h"
 2403              		.file 12 "Core/Inc/tim.h"
 2404              		.file 13 "Core/Inc/usart.h"
 2405              		.file 14 "Components/Devices/BMI088driver.h"
 2406              		.file 15 "Components/user_lib.h"
 2407              		.file 16 "Components/Algorithm/Include/arm_math.h"
 2408              		.file 17 "Components/Controller/controller.h"
 2409              		.file 18 "Application/motor.h"
 2410              		.file 19 "Application/ins_task.h"
 2411              		.file 20 "Components/Devices/dm_imu.h"
 2412              		.file 21 "Application/motor_task.h"
 2413              		.file 22 "Components/kalman_filter.h"
 2414              		.file 23 "Components/Algorithm/QuaternionEKF.h"
 2415              		.file 24 "Bsp/bsp_PWM.h"
 2416              		.file 25 "c:\\program files (x86)\\gnu arm embedded toolchain\\10 2021.10\\arm-none-eabi\\include\
 2417              		.file 26 "Drivers/STM32F4xx_HAL_Driver/Inc/stm32f4xx_hal.h"
 2418              		.file 27 "Bsp/bsp_dwt.h"
 2419              		.file 28 "Application/SerialDebug.h"
ARM GAS  C:\Users\86152\AppData\Local\Temp\ccIGvTB4.s 			page 59

