ARM GAS  C:\Users\86152\AppData\Local\Temp\cclaUrwd.s 			page 1


   1              		.cpu cortex-m4
   2              		.arch armv7e-m
   3              		.fpu fpv4-sp-d16
   4              		.eabi_attribute 27, 1
   5              		.eabi_attribute 28, 1
   6              		.eabi_attribute 20, 1
   7              		.eabi_attribute 21, 1
   8              		.eabi_attribute 23, 3
   9              		.eabi_attribute 24, 1
  10              		.eabi_attribute 25, 1
  11              		.eabi_attribute 26, 1
  12              		.eabi_attribute 30, 1
  13              		.eabi_attribute 34, 1
  14              		.eabi_attribute 18, 4
  15              		.file	"ins_task.c"
  16              		.text
  17              	.Ltext0:
  18              		.cfi_sections	.debug_frame
  19              		.section	.text.IMU_Param_Correction,"ax",%progbits
  20              		.align	1
  21              		.syntax unified
  22              		.thumb
  23              		.thumb_func
  25              	IMU_Param_Correction:
  26              	.LVL0:
  27              	.LFB181:
  28              		.file 1 "Application/ins_task.c"
   1:Application/ins_task.c **** #include "ins_task.h"
   2:Application/ins_task.c **** #include "QuaternionAHRS.h"
   3:Application/ins_task.c **** #include "includes.h"
   4:Application/ins_task.c **** #include "exo_controller.h"
   5:Application/ins_task.c **** #include "QuaternionEKF.h"
   6:Application/ins_task.c **** #include "dm_imu.h"
   7:Application/ins_task.c **** #include "tim.h"
   8:Application/ins_task.c **** 
   9:Application/ins_task.c **** INS_t INS;
  10:Application/ins_task.c **** QuaternionBuf_t QuaternionBuffer;
  11:Application/ins_task.c **** PID_t TempCtrl = {0};
  12:Application/ins_task.c **** 
  13:Application/ins_task.c **** const float gravity[3] = {0, 0, 9.81f};
  14:Application/ins_task.c **** const float xb[3] = {1, 0, 0};
  15:Application/ins_task.c **** const float yb[3] = {0, 1, 0};
  16:Application/ins_task.c **** const float zb[3] = {0, 0, 1};
  17:Application/ins_task.c **** 
  18:Application/ins_task.c **** uint32_t INS_DWT_Count = 0;
  19:Application/ins_task.c **** static float dt = 0, t = 0;
  20:Application/ins_task.c **** float RefTemp = 40;
  21:Application/ins_task.c **** 
  22:Application/ins_task.c **** static void IMU_Param_Correction(imu_cali_param_t *param, float gyro[3], float accel[3]);
  23:Application/ins_task.c **** static void get_INS_from_imu(INS_t *ins, float *accel, float *gyro);
  24:Application/ins_task.c **** 
  25:Application/ins_task.c **** void INS_Init(void)
  26:Application/ins_task.c **** {
  27:Application/ins_task.c ****     // gEstimateKF_Init(0.01, 1000);
  28:Application/ins_task.c ****     BMI088_Read(&BMI088);
  29:Application/ins_task.c **** 
  30:Application/ins_task.c ****     exo_controller.xzy_shoulder.dm_imu.send_reg = 0x01;
ARM GAS  C:\Users\86152\AppData\Local\Temp\cclaUrwd.s 			page 2


  31:Application/ins_task.c ****     IMU_RequestData(&hcan2, 0x01, exo_controller.xzy_shoulder.dm_imu.send_reg);
  32:Application/ins_task.c **** 
  33:Application/ins_task.c ****     // exo_controller.xzy_shoulder.INS_shoulder.AccelLPF = 0.0085;
  34:Application/ins_task.c **** 
  35:Application/ins_task.c ****     exo_controller.xzy_shoulder.INS_shoulder.imu_cali_param.scale[X] = 1;
  36:Application/ins_task.c ****     exo_controller.xzy_shoulder.INS_shoulder.imu_cali_param.scale[Y] = 1;
  37:Application/ins_task.c ****     exo_controller.xzy_shoulder.INS_shoulder.imu_cali_param.scale[Z] = 1;
  38:Application/ins_task.c **** 
  39:Application/ins_task.c ****     exo_controller.xzy_shoulder.INS_shoulder.imu_cali_param.Yaw = 0;
  40:Application/ins_task.c ****     exo_controller.xzy_shoulder.INS_shoulder.imu_cali_param.Pitch = 0;
  41:Application/ins_task.c ****     exo_controller.xzy_shoulder.INS_shoulder.imu_cali_param.Roll = 0;
  42:Application/ins_task.c ****     exo_controller.xzy_shoulder.INS_shoulder.imu_cali_param.flag = 1;
  43:Application/ins_task.c **** 
  44:Application/ins_task.c ****     IMU_QuaternionEKF_Init(10, 0.001, 1000000 * 10, 0.9996 * 0 + 1, 0);
  45:Application/ins_task.c ****     // imu heat init
  46:Application/ins_task.c ****     PID_Init(&TempCtrl, 2000, 300, 0, 1000, 20, 0, 0, 0, 0, 0, 0, 0);
  47:Application/ins_task.c ****     HAL_TIM_PWM_Start(&htim10, TIM_CHANNEL_1);
  48:Application/ins_task.c **** }
  49:Application/ins_task.c **** 
  50:Application/ins_task.c **** void INS_Task(void)
  51:Application/ins_task.c **** {
  52:Application/ins_task.c ****     static uint32_t count = 0;
  53:Application/ins_task.c ****     const float gravity[3] = {0, 0, 9.81f};
  54:Application/ins_task.c ****     dt = DWT_GetDeltaT(&INS_DWT_Count);
  55:Application/ins_task.c ****     t += dt;
  56:Application/ins_task.c **** 
  57:Application/ins_task.c ****     // ins update
  58:Application/ins_task.c ****     if ((count % 1) == 0)
  59:Application/ins_task.c ****     {
  60:Application/ins_task.c ****         BMI088_Read(&BMI088);
  61:Application/ins_task.c ****         // INS.Accel[X] = -BMI088.Accel[Y];
  62:Application/ins_task.c ****         // INS.Accel[Y] = -BMI088.Accel[Z];
  63:Application/ins_task.c ****         // INS.Accel[Z] = BMI088.Accel[X];
  64:Application/ins_task.c ****         // INS.Gyro[X] = -BMI088.Gyro[Y];
  65:Application/ins_task.c ****         // INS.Gyro[Y] = -BMI088.Gyro[Z];
  66:Application/ins_task.c ****         // INS.Gyro[Z] = BMI088.Gyro[X];
  67:Application/ins_task.c **** 
  68:Application/ins_task.c ****         if (exo_controller.xzy_shoulder.dm_imu.send_reg == 0x01)
  69:Application/ins_task.c ****             exo_controller.xzy_shoulder.dm_imu.send_reg = 0x02; // 0x01:accel, 0x02:gyro, 0x03:eule
  70:Application/ins_task.c ****         else if (exo_controller.xzy_shoulder.dm_imu.send_reg == 0x02)
  71:Application/ins_task.c ****             exo_controller.xzy_shoulder.dm_imu.send_reg = 0x01;
  72:Application/ins_task.c ****         IMU_RequestData(&hcan2, 0x01, exo_controller.xzy_shoulder.dm_imu.send_reg);
  73:Application/ins_task.c ****         get_INS_from_imu(&exo_controller.xzy_shoulder.INS_shoulder,
  74:Application/ins_task.c ****                          exo_controller.xzy_shoulder.dm_imu.accel, exo_controller.xzy_shoulder.dm_i
  75:Application/ins_task.c ****     }
  76:Application/ins_task.c **** 
  77:Application/ins_task.c ****     // temperature control
  78:Application/ins_task.c ****     if ((count % 2) == 0)
  79:Application/ins_task.c ****     {
  80:Application/ins_task.c ****         // 500hz
  81:Application/ins_task.c ****         IMU_Temperature_Ctrl();
  82:Application/ins_task.c ****         if (GlobalDebugMode == IMU_HEAT_DEBUG)
  83:Application/ins_task.c ****             Serial_Debug(&huart1, 1, RefTemp, BMI088.Temperature, TempCtrl.Output / 1000.0f, TempCt
  84:Application/ins_task.c ****     }
  85:Application/ins_task.c **** 
  86:Application/ins_task.c ****     if ((count % 1000) == 0)
  87:Application/ins_task.c ****     {
ARM GAS  C:\Users\86152\AppData\Local\Temp\cclaUrwd.s 			page 3


  88:Application/ins_task.c ****         // 200hz
  89:Application/ins_task.c ****     }
  90:Application/ins_task.c **** 
  91:Application/ins_task.c ****     count++;
  92:Application/ins_task.c **** }
  93:Application/ins_task.c **** 
  94:Application/ins_task.c **** static void get_INS_from_imu(INS_t *ins, float *accel, float *gyro)
  95:Application/ins_task.c **** {
  96:Application/ins_task.c ****     ins->Accel[X] = -accel[Y];
  97:Application/ins_task.c ****     ins->Accel[Y] = -accel[Z];
  98:Application/ins_task.c ****     ins->Accel[Z] = accel[X];
  99:Application/ins_task.c ****     ins->Gyro[X] = -gyro[Y];
 100:Application/ins_task.c ****     ins->Gyro[Y] = -gyro[Z];
 101:Application/ins_task.c ****     ins->Gyro[Z] = gyro[X];
 102:Application/ins_task.c **** 
 103:Application/ins_task.c ****     IMU_Param_Correction(&ins->imu_cali_param, ins->Gyro, ins->Accel);
 104:Application/ins_task.c ****     ins->atanxz = -atan2f(ins->Accel[X], ins->Accel[Z]) * 180 / PI;
 105:Application/ins_task.c ****     ins->atanyz = atan2f(ins->Accel[Y], ins->Accel[Z]) * 180 / PI;
 106:Application/ins_task.c **** 
 107:Application/ins_task.c ****     // Quaternion_AHRS_UpdateIMU(ins->Gyro[X], ins->Gyro[Y], ins->Gyro[Z], ins->Accel[X], ins->Acce
 108:Application/ins_task.c ****     IMU_QuaternionEKF_Update(ins->Gyro[X], ins->Gyro[Y], ins->Gyro[Z], ins->Accel[X], ins->Accel[Y]
 109:Application/ins_task.c **** 
 110:Application/ins_task.c ****     float *q = QEKF_INS.q;
 111:Application/ins_task.c ****     ins->xzy_order_angle[1] = -asinf(2 * (q[1] * q[2] - q[0] * q[3])) * 57.295779513f;
 112:Application/ins_task.c ****     ins->xzy_order_angle[2] = atan2f(2.0f * (q[1] * q[3] + q[0] * q[2]), 1 - 2.0f * (q[2] * q[2] + 
 113:Application/ins_task.c ****     ins->xzy_order_angle[0] = atan2f(2.0f * (q[0] * q[1] + q[2] * q[3]), 1 - 2.0f * (q[1] * q[1] - 
 114:Application/ins_task.c **** 
 115:Application/ins_task.c ****     BodyFrameToEarthFrame(xb, ins->xn, ins->q);
 116:Application/ins_task.c ****     BodyFrameToEarthFrame(yb, ins->yn, ins->q);
 117:Application/ins_task.c ****     BodyFrameToEarthFrame(zb, ins->zn, ins->q);
 118:Application/ins_task.c **** 
 119:Application/ins_task.c ****     float gravity_b[3];
 120:Application/ins_task.c ****     EarthFrameToBodyFrame(gravity, gravity_b, INS.q);
 121:Application/ins_task.c ****     for (uint8_t i = 0; i < 3; i++)
 122:Application/ins_task.c ****         ins->MotionAccel_b[i] = (ins->Accel[i] - gravity_b[i]) * dt / (ins->AccelLPF + dt) + ins->M
 123:Application/ins_task.c ****     BodyFrameToEarthFrame(ins->MotionAccel_b, ins->MotionAccel_n, ins->q);
 124:Application/ins_task.c **** 
 125:Application/ins_task.c ****     memcpy(ins->Gyro, QEKF_INS.Gyro, sizeof(QEKF_INS.Gyro));
 126:Application/ins_task.c ****     memcpy(ins->Accel, QEKF_INS.Accel, sizeof(QEKF_INS.Accel));
 127:Application/ins_task.c ****     memcpy(ins->q, QEKF_INS.q, sizeof(QEKF_INS.q));
 128:Application/ins_task.c ****     ins->Yaw = QEKF_INS.Yaw;
 129:Application/ins_task.c ****     ins->Pitch = QEKF_INS.Pitch;
 130:Application/ins_task.c ****     // ins->Roll = QEKF_INS.Roll;
 131:Application/ins_task.c ****     ins->YawTotalAngle = QEKF_INS.YawTotalAngle;
 132:Application/ins_task.c **** 
 133:Application/ins_task.c ****     InsertQuaternionFrame(&QuaternionBuffer, ins->q, ins->MotionAccel_n, INS_GetTimeline());
 134:Application/ins_task.c **** 
 135:Application/ins_task.c ****     // Get_EulerAngle(AHRS.q);
 136:Application/ins_task.c **** }
 137:Application/ins_task.c **** 
 138:Application/ins_task.c **** /**
 139:Application/ins_task.c ****  * @brief        Update quaternion
 140:Application/ins_task.c ****  */
 141:Application/ins_task.c **** void QuaternionUpdate(float *q, float gx, float gy, float gz, float dt)
 142:Application/ins_task.c **** {
 143:Application/ins_task.c ****     float qa, qb, qc;
 144:Application/ins_task.c **** 
ARM GAS  C:\Users\86152\AppData\Local\Temp\cclaUrwd.s 			page 4


 145:Application/ins_task.c ****     gx *= 0.5f * dt;
 146:Application/ins_task.c ****     gy *= 0.5f * dt;
 147:Application/ins_task.c ****     gz *= 0.5f * dt;
 148:Application/ins_task.c ****     qa = q[0];
 149:Application/ins_task.c ****     qb = q[1];
 150:Application/ins_task.c ****     qc = q[2];
 151:Application/ins_task.c ****     q[0] += (-qb * gx - qc * gy - q[3] * gz);
 152:Application/ins_task.c ****     q[1] += (qa * gx + qc * gz - q[3] * gy);
 153:Application/ins_task.c ****     q[2] += (qa * gy - qb * gz + q[3] * gx);
 154:Application/ins_task.c ****     q[3] += (qa * gz + qb * gy - qc * gx);
 155:Application/ins_task.c **** }
 156:Application/ins_task.c **** 
 157:Application/ins_task.c **** /**
 158:Application/ins_task.c ****  * @brief        Convert quaternion to eular angle
 159:Application/ins_task.c ****  */
 160:Application/ins_task.c **** void QuaternionToEularAngle(float *q, float *Yaw, float *Pitch, float *Roll)
 161:Application/ins_task.c **** {
 162:Application/ins_task.c ****     *Yaw = atan2f(2.0f * (q[0] * q[3] + q[1] * q[2]), 2.0f * (q[0] * q[0] + q[1] * q[1]) - 1.0f) * 
 163:Application/ins_task.c ****     *Pitch = atan2f(2.0f * (q[0] * q[1] + q[2] * q[3]), 2.0f * (q[0] * q[0] + q[3] * q[3]) - 1.0f) 
 164:Application/ins_task.c ****     *Roll = asinf(2.0f * (q[0] * q[2] - q[1] * q[3])) * 57.295779513f;
 165:Application/ins_task.c **** }
 166:Application/ins_task.c **** 
 167:Application/ins_task.c **** /**
 168:Application/ins_task.c ****  * @brief        Convert eular angle to quaternion
 169:Application/ins_task.c ****  */
 170:Application/ins_task.c **** void EularAngleToQuaternion(float Yaw, float Pitch, float Roll, float *q)
 171:Application/ins_task.c **** {
 172:Application/ins_task.c ****     float cosPitch, cosYaw, cosRoll, sinPitch, sinYaw, sinRoll;
 173:Application/ins_task.c ****     Yaw /= 57.295779513f;
 174:Application/ins_task.c ****     Pitch /= 57.295779513f;
 175:Application/ins_task.c ****     Roll /= 57.295779513f;
 176:Application/ins_task.c ****     cosPitch = arm_cos_f32(Pitch / 2);
 177:Application/ins_task.c ****     cosYaw = arm_cos_f32(Yaw / 2);
 178:Application/ins_task.c ****     cosRoll = arm_cos_f32(Roll / 2);
 179:Application/ins_task.c ****     sinPitch = arm_sin_f32(Pitch / 2);
 180:Application/ins_task.c ****     sinYaw = arm_sin_f32(Yaw / 2);
 181:Application/ins_task.c ****     sinRoll = arm_sin_f32(Roll / 2);
 182:Application/ins_task.c ****     q[0] = cosPitch * cosRoll * cosYaw + sinPitch * sinRoll * sinYaw;
 183:Application/ins_task.c ****     q[1] = sinPitch * cosRoll * cosYaw - cosPitch * sinRoll * sinYaw;
 184:Application/ins_task.c ****     q[2] = sinPitch * cosRoll * sinYaw + cosPitch * sinRoll * cosYaw;
 185:Application/ins_task.c ****     q[3] = cosPitch * cosRoll * sinYaw - sinPitch * sinRoll * cosYaw;
 186:Application/ins_task.c **** }
 187:Application/ins_task.c **** 
 188:Application/ins_task.c **** void InsertQuaternionFrame(QuaternionBuf_t *qBuf, float *q, float *motion_acc_n, uint32_t time_stam
 189:Application/ins_task.c **** {
 190:Application/ins_task.c ****     if (qBuf->LatestNum == Q_FRAME_LEN - 1)
 191:Application/ins_task.c ****         qBuf->LatestNum = 0;
 192:Application/ins_task.c ****     else
 193:Application/ins_task.c ****         qBuf->LatestNum++;
 194:Application/ins_task.c **** 
 195:Application/ins_task.c ****     qBuf->qFrame[qBuf->LatestNum].TimeStamp_ms = time_stamp_ms;
 196:Application/ins_task.c ****     for (uint16_t i = 0; i < 4; i++)
 197:Application/ins_task.c ****         qBuf->qFrame[qBuf->LatestNum].q[i] = q[i];
 198:Application/ins_task.c ****     for (uint16_t i = 0; i < 3; i++)
 199:Application/ins_task.c ****         qBuf->qFrame[qBuf->LatestNum].MotionAccel_n[i] = motion_acc_n[i];
 200:Application/ins_task.c **** }
 201:Application/ins_task.c **** 
ARM GAS  C:\Users\86152\AppData\Local\Temp\cclaUrwd.s 			page 5


 202:Application/ins_task.c **** uint16_t FindTimeMatchFrame(QuaternionBuf_t *qBuf, uint32_t match_time_stamp_ms)
 203:Application/ins_task.c **** {
 204:Application/ins_task.c ****     int min_time_error = abs(qBuf->qFrame[0].TimeStamp_ms - match_time_stamp_ms);
 205:Application/ins_task.c ****     uint16_t num = 0;
 206:Application/ins_task.c ****     for (uint16_t i = 0; i < Q_FRAME_LEN; i++)
 207:Application/ins_task.c ****     {
 208:Application/ins_task.c ****         if (abs(qBuf->qFrame[i].TimeStamp_ms - match_time_stamp_ms) < min_time_error)
 209:Application/ins_task.c ****         {
 210:Application/ins_task.c ****             min_time_error = abs(qBuf->qFrame[i].TimeStamp_ms - match_time_stamp_ms);
 211:Application/ins_task.c ****             num = i;
 212:Application/ins_task.c ****         }
 213:Application/ins_task.c ****     }
 214:Application/ins_task.c ****     return num;
 215:Application/ins_task.c **** }
 216:Application/ins_task.c **** 
 217:Application/ins_task.c **** /**
 218:Application/ins_task.c ****  * @brief          Transform 3dvector from BodyFrame to EarthFrame
 219:Application/ins_task.c ****  * @param[1]       vector in BodyFrame
 220:Application/ins_task.c ****  * @param[2]       vector in EarthFrame
 221:Application/ins_task.c ****  * @param[3]       quaternion
 222:Application/ins_task.c ****  */
 223:Application/ins_task.c **** void BodyFrameToEarthFrame(const float *vecBF, float *vecEF, float *q)
 224:Application/ins_task.c **** {
 225:Application/ins_task.c ****     vecEF[0] = 2.0f * ((0.5f - q[2] * q[2] - q[3] * q[3]) * vecBF[0] +
 226:Application/ins_task.c ****                        (q[1] * q[2] - q[0] * q[3]) * vecBF[1] +
 227:Application/ins_task.c ****                        (q[1] * q[3] + q[0] * q[2]) * vecBF[2]);
 228:Application/ins_task.c **** 
 229:Application/ins_task.c ****     vecEF[1] = 2.0f * ((q[1] * q[2] + q[0] * q[3]) * vecBF[0] +
 230:Application/ins_task.c ****                        (0.5f - q[1] * q[1] - q[3] * q[3]) * vecBF[1] +
 231:Application/ins_task.c ****                        (q[2] * q[3] - q[0] * q[1]) * vecBF[2]);
 232:Application/ins_task.c **** 
 233:Application/ins_task.c ****     vecEF[2] = 2.0f * ((q[1] * q[3] - q[0] * q[2]) * vecBF[0] +
 234:Application/ins_task.c ****                        (q[2] * q[3] + q[0] * q[1]) * vecBF[1] +
 235:Application/ins_task.c ****                        (0.5f - q[1] * q[1] - q[2] * q[2]) * vecBF[2]);
 236:Application/ins_task.c **** }
 237:Application/ins_task.c **** 
 238:Application/ins_task.c **** /**
 239:Application/ins_task.c ****  * @brief          Transform 3dvector from EarthFrame to BodyFrame
 240:Application/ins_task.c ****  * @param[1]       vector in EarthFrame
 241:Application/ins_task.c ****  * @param[2]       vector in BodyFrame
 242:Application/ins_task.c ****  * @param[3]       quaternion
 243:Application/ins_task.c ****  */
 244:Application/ins_task.c **** void EarthFrameToBodyFrame(const float *vecEF, float *vecBF, float *q)
 245:Application/ins_task.c **** {
 246:Application/ins_task.c ****     vecBF[0] = 2.0f * ((0.5f - q[2] * q[2] - q[3] * q[3]) * vecEF[0] +
 247:Application/ins_task.c ****                        (q[1] * q[2] + q[0] * q[3]) * vecEF[1] +
 248:Application/ins_task.c ****                        (q[1] * q[3] - q[0] * q[2]) * vecEF[2]);
 249:Application/ins_task.c **** 
 250:Application/ins_task.c ****     vecBF[1] = 2.0f * ((q[1] * q[2] - q[0] * q[3]) * vecEF[0] +
 251:Application/ins_task.c ****                        (0.5f - q[1] * q[1] - q[3] * q[3]) * vecEF[1] +
 252:Application/ins_task.c ****                        (q[2] * q[3] + q[0] * q[1]) * vecEF[2]);
 253:Application/ins_task.c **** 
 254:Application/ins_task.c ****     vecBF[2] = 2.0f * ((q[1] * q[3] + q[0] * q[2]) * vecEF[0] +
 255:Application/ins_task.c ****                        (q[2] * q[3] - q[0] * q[1]) * vecEF[1] +
 256:Application/ins_task.c ****                        (0.5f - q[1] * q[1] - q[2] * q[2]) * vecEF[2]);
 257:Application/ins_task.c **** }
 258:Application/ins_task.c **** 
ARM GAS  C:\Users\86152\AppData\Local\Temp\cclaUrwd.s 			page 6


 259:Application/ins_task.c **** static void IMU_Param_Correction(imu_cali_param_t *param, float gyro[3], float accel[3])
 260:Application/ins_task.c **** {
  29              		.loc 1 260 1 view -0
  30              		.cfi_startproc
  31              		@ args = 0, pretend = 0, frame = 24
  32              		@ frame_needed = 0, uses_anonymous_args = 0
  33              		.loc 1 260 1 is_stmt 0 view .LVU1
  34 0000 70B5     		push	{r4, r5, r6, lr}
  35              	.LCFI0:
  36              		.cfi_def_cfa_offset 16
  37              		.cfi_offset 4, -16
  38              		.cfi_offset 5, -12
  39              		.cfi_offset 6, -8
  40              		.cfi_offset 14, -4
  41 0002 2DED068B 		vpush.64	{d8, d9, d10}
  42              	.LCFI1:
  43              		.cfi_def_cfa_offset 40
  44              		.cfi_offset 80, -40
  45              		.cfi_offset 81, -36
  46              		.cfi_offset 82, -32
  47              		.cfi_offset 83, -28
  48              		.cfi_offset 84, -24
  49              		.cfi_offset 85, -20
  50 0006 86B0     		sub	sp, sp, #24
  51              	.LCFI2:
  52              		.cfi_def_cfa_offset 64
  53 0008 0446     		mov	r4, r0
  54 000a 0D46     		mov	r5, r1
  55 000c 1646     		mov	r6, r2
 261:Application/ins_task.c ****     static float lastYawOffset, lastPitchOffset, lastRollOffset;
  56              		.loc 1 261 5 is_stmt 1 view .LVU2
 262:Application/ins_task.c ****     static float c_11, c_12, c_13, c_21, c_22, c_23, c_31, c_32, c_33;
  57              		.loc 1 262 5 view .LVU3
 263:Application/ins_task.c ****     float cosPitch, cosYaw, cosRoll, sinPitch, sinYaw, sinRoll;
  58              		.loc 1 263 5 view .LVU4
 264:Application/ins_task.c **** 
 265:Application/ins_task.c ****     if (fabsf(param->Yaw - lastYawOffset) > 0.001f ||
  59              		.loc 1 265 5 view .LVU5
  60              		.loc 1 265 20 is_stmt 0 view .LVU6
  61 000e 90ED040A 		vldr.32	s0, [r0, #16]
  62              		.loc 1 265 26 view .LVU7
  63 0012 9F4B     		ldr	r3, .L9
  64 0014 D3ED007A 		vldr.32	s15, [r3]
  65 0018 70EE677A 		vsub.f32	s15, s0, s15
  66              		.loc 1 265 9 view .LVU8
  67 001c F0EEE77A 		vabs.f32	s15, s15
  68              		.loc 1 265 8 view .LVU9
  69 0020 9FED9C7A 		vldr.32	s14, .L9+4
  70 0024 F4EEC77A 		vcmpe.f32	s15, s14
  71 0028 F1EE10FA 		vmrs	APSR_nzcv, FPSCR
  72 002c 22DC     		bgt	.L2
 266:Application/ins_task.c ****         fabsf(param->Pitch - lastPitchOffset) > 0.001f ||
  73              		.loc 1 266 20 discriminator 1 view .LVU10
  74 002e D0ED057A 		vldr.32	s15, [r0, #20]
  75              		.loc 1 266 28 discriminator 1 view .LVU11
  76 0032 994B     		ldr	r3, .L9+8
  77 0034 93ED007A 		vldr.32	s14, [r3]
ARM GAS  C:\Users\86152\AppData\Local\Temp\cclaUrwd.s 			page 7


  78 0038 77EEC77A 		vsub.f32	s15, s15, s14
  79              		.loc 1 266 9 discriminator 1 view .LVU12
  80 003c F0EEE77A 		vabs.f32	s15, s15
 265:Application/ins_task.c ****         fabsf(param->Pitch - lastPitchOffset) > 0.001f ||
  81              		.loc 1 265 52 discriminator 1 view .LVU13
  82 0040 9FED947A 		vldr.32	s14, .L9+4
  83 0044 F4EEC77A 		vcmpe.f32	s15, s14
  84 0048 F1EE10FA 		vmrs	APSR_nzcv, FPSCR
  85 004c 12DC     		bgt	.L2
 267:Application/ins_task.c ****         fabsf(param->Roll - lastRollOffset) > 0.001f || param->flag)
  86              		.loc 1 267 20 view .LVU14
  87 004e D0ED067A 		vldr.32	s15, [r0, #24]
  88              		.loc 1 267 27 view .LVU15
  89 0052 924B     		ldr	r3, .L9+12
  90 0054 93ED007A 		vldr.32	s14, [r3]
  91 0058 77EEC77A 		vsub.f32	s15, s15, s14
  92              		.loc 1 267 9 view .LVU16
  93 005c F0EEE77A 		vabs.f32	s15, s15
 266:Application/ins_task.c ****         fabsf(param->Pitch - lastPitchOffset) > 0.001f ||
  94              		.loc 1 266 56 view .LVU17
  95 0060 9FED8C7A 		vldr.32	s14, .L9+4
  96 0064 F4EEC77A 		vcmpe.f32	s15, s14
  97 0068 F1EE10FA 		vmrs	APSR_nzcv, FPSCR
  98 006c 02DC     		bgt	.L2
  99              		.loc 1 267 62 view .LVU18
 100 006e 0378     		ldrb	r3, [r0]	@ zero_extendqisi2
 101              		.loc 1 267 54 view .LVU19
 102 0070 002B     		cmp	r3, #0
 103 0072 6ED0     		beq	.L3
 104              	.L2:
 268:Application/ins_task.c ****     {
 269:Application/ins_task.c ****         cosYaw = arm_cos_f32(param->Yaw / 57.295779513f);
 105              		.loc 1 269 9 is_stmt 1 view .LVU20
 106              		.loc 1 269 18 is_stmt 0 view .LVU21
 107 0074 9FED8AAA 		vldr.32	s20, .L9+16
 108 0078 80EE0A0A 		vdiv.f32	s0, s0, s20
 109 007c FFF7FEFF 		bl	arm_cos_f32
 110              	.LVL1:
 111              		.loc 1 269 18 view .LVU22
 112 0080 B0EE409A 		vmov.f32	s18, s0
 113              	.LVL2:
 270:Application/ins_task.c ****         cosPitch = arm_cos_f32(param->Pitch / 57.295779513f);
 114              		.loc 1 270 9 is_stmt 1 view .LVU23
 115              		.loc 1 270 37 is_stmt 0 view .LVU24
 116 0084 94ED050A 		vldr.32	s0, [r4, #20]
 117              	.LVL3:
 118              		.loc 1 270 20 view .LVU25
 119 0088 80EE0A0A 		vdiv.f32	s0, s0, s20
 120 008c FFF7FEFF 		bl	arm_cos_f32
 121              	.LVL4:
 122 0090 F0EE408A 		vmov.f32	s17, s0
 123              	.LVL5:
 271:Application/ins_task.c ****         cosRoll = arm_cos_f32(param->Roll / 57.295779513f);
 124              		.loc 1 271 9 is_stmt 1 view .LVU26
 125              		.loc 1 271 36 is_stmt 0 view .LVU27
 126 0094 94ED060A 		vldr.32	s0, [r4, #24]
 127              	.LVL6:
ARM GAS  C:\Users\86152\AppData\Local\Temp\cclaUrwd.s 			page 8


 128              		.loc 1 271 19 view .LVU28
 129 0098 80EE0A0A 		vdiv.f32	s0, s0, s20
 130 009c FFF7FEFF 		bl	arm_cos_f32
 131              	.LVL7:
 132 00a0 F0EE40AA 		vmov.f32	s21, s0
 133              	.LVL8:
 272:Application/ins_task.c ****         sinYaw = arm_sin_f32(param->Yaw / 57.295779513f);
 134              		.loc 1 272 9 is_stmt 1 view .LVU29
 135              		.loc 1 272 35 is_stmt 0 view .LVU30
 136 00a4 94ED040A 		vldr.32	s0, [r4, #16]
 137              	.LVL9:
 138              		.loc 1 272 18 view .LVU31
 139 00a8 80EE0A0A 		vdiv.f32	s0, s0, s20
 140 00ac FFF7FEFF 		bl	arm_sin_f32
 141              	.LVL10:
 142 00b0 B0EE408A 		vmov.f32	s16, s0
 143              	.LVL11:
 273:Application/ins_task.c ****         sinPitch = arm_sin_f32(param->Pitch / 57.295779513f);
 144              		.loc 1 273 9 is_stmt 1 view .LVU32
 145              		.loc 1 273 37 is_stmt 0 view .LVU33
 146 00b4 94ED050A 		vldr.32	s0, [r4, #20]
 147              	.LVL12:
 148              		.loc 1 273 20 view .LVU34
 149 00b8 80EE0A0A 		vdiv.f32	s0, s0, s20
 150 00bc FFF7FEFF 		bl	arm_sin_f32
 151              	.LVL13:
 152 00c0 F0EE409A 		vmov.f32	s19, s0
 153              	.LVL14:
 274:Application/ins_task.c ****         sinRoll = arm_sin_f32(param->Roll / 57.295779513f);
 154              		.loc 1 274 9 is_stmt 1 view .LVU35
 155              		.loc 1 274 36 is_stmt 0 view .LVU36
 156 00c4 94ED060A 		vldr.32	s0, [r4, #24]
 157              	.LVL15:
 158              		.loc 1 274 19 view .LVU37
 159 00c8 80EE0A0A 		vdiv.f32	s0, s0, s20
 160 00cc FFF7FEFF 		bl	arm_sin_f32
 161              	.LVL16:
 275:Application/ins_task.c **** 
 276:Application/ins_task.c ****         // 1.yaw(alpha) 2.pitch(beta) 3.roll(gamma)
 277:Application/ins_task.c ****         c_11 = cosYaw * cosRoll + sinYaw * sinPitch * sinRoll;
 162              		.loc 1 277 9 is_stmt 1 view .LVU38
 163              		.loc 1 277 23 is_stmt 0 view .LVU39
 164 00d0 69EE2A6A 		vmul.f32	s13, s18, s21
 165              		.loc 1 277 42 view .LVU40
 166 00d4 28EE297A 		vmul.f32	s14, s16, s19
 167              		.loc 1 277 53 view .LVU41
 168 00d8 27EE007A 		vmul.f32	s14, s14, s0
 169              		.loc 1 277 33 view .LVU42
 170 00dc 36EE877A 		vadd.f32	s14, s13, s14
 171              		.loc 1 277 14 view .LVU43
 172 00e0 704B     		ldr	r3, .L9+20
 173 00e2 83ED007A 		vstr.32	s14, [r3]
 278:Application/ins_task.c ****         c_12 = cosPitch * sinYaw;
 174              		.loc 1 278 9 is_stmt 1 view .LVU44
 175              		.loc 1 278 25 is_stmt 0 view .LVU45
 176 00e6 28EE887A 		vmul.f32	s14, s17, s16
 177              		.loc 1 278 14 view .LVU46
ARM GAS  C:\Users\86152\AppData\Local\Temp\cclaUrwd.s 			page 9


 178 00ea 6F4B     		ldr	r3, .L9+24
 179 00ec 83ED007A 		vstr.32	s14, [r3]
 279:Application/ins_task.c ****         c_13 = cosYaw * sinRoll - cosRoll * sinYaw * sinPitch;
 180              		.loc 1 279 9 is_stmt 1 view .LVU47
 181              		.loc 1 279 23 is_stmt 0 view .LVU48
 182 00f0 29EE006A 		vmul.f32	s12, s18, s0
 183              		.loc 1 279 43 view .LVU49
 184 00f4 6AEE885A 		vmul.f32	s11, s21, s16
 185              		.loc 1 279 52 view .LVU50
 186 00f8 25EEA97A 		vmul.f32	s14, s11, s19
 187              		.loc 1 279 33 view .LVU51
 188 00fc 36EE476A 		vsub.f32	s12, s12, s14
 189              		.loc 1 279 14 view .LVU52
 190 0100 6A4B     		ldr	r3, .L9+28
 191 0102 83ED006A 		vstr.32	s12, [r3]
 280:Application/ins_task.c ****         c_21 = cosYaw * sinPitch * sinRoll - cosRoll * sinYaw;
 192              		.loc 1 280 9 is_stmt 1 view .LVU53
 193              		.loc 1 280 23 is_stmt 0 view .LVU54
 194 0106 29EE297A 		vmul.f32	s14, s18, s19
 195              		.loc 1 280 34 view .LVU55
 196 010a 27EE007A 		vmul.f32	s14, s14, s0
 197              		.loc 1 280 44 view .LVU56
 198 010e 37EE657A 		vsub.f32	s14, s14, s11
 199              		.loc 1 280 14 view .LVU57
 200 0112 674B     		ldr	r3, .L9+32
 201 0114 83ED007A 		vstr.32	s14, [r3]
 281:Application/ins_task.c ****         c_22 = cosYaw * cosPitch;
 202              		.loc 1 281 9 is_stmt 1 view .LVU58
 203              		.loc 1 281 23 is_stmt 0 view .LVU59
 204 0118 29EE289A 		vmul.f32	s18, s18, s17
 205              	.LVL17:
 206              		.loc 1 281 14 view .LVU60
 207 011c 654B     		ldr	r3, .L9+36
 208 011e 83ED009A 		vstr.32	s18, [r3]
 282:Application/ins_task.c ****         c_23 = -sinYaw * sinRoll - cosYaw * cosRoll * sinPitch;
 209              		.loc 1 282 9 is_stmt 1 view .LVU61
 210              		.loc 1 282 24 is_stmt 0 view .LVU62
 211 0122 28EE408A 		vnmul.f32	s16, s16, s0
 212              	.LVL18:
 213              		.loc 1 282 53 view .LVU63
 214 0126 66EEA96A 		vmul.f32	s13, s13, s19
 215              		.loc 1 282 34 view .LVU64
 216 012a 38EE668A 		vsub.f32	s16, s16, s13
 217              		.loc 1 282 14 view .LVU65
 218 012e 624B     		ldr	r3, .L9+40
 219 0130 83ED008A 		vstr.32	s16, [r3]
 283:Application/ins_task.c ****         c_31 = -cosPitch * sinRoll;
 220              		.loc 1 283 9 is_stmt 1 view .LVU66
 221              		.loc 1 283 26 is_stmt 0 view .LVU67
 222 0134 68EEC07A 		vnmul.f32	s15, s17, s0
 223              		.loc 1 283 14 view .LVU68
 224 0138 604B     		ldr	r3, .L9+44
 225 013a C3ED007A 		vstr.32	s15, [r3]
 284:Application/ins_task.c ****         c_32 = sinPitch;
 226              		.loc 1 284 9 is_stmt 1 view .LVU69
 227              		.loc 1 284 14 is_stmt 0 view .LVU70
 228 013e 604B     		ldr	r3, .L9+48
ARM GAS  C:\Users\86152\AppData\Local\Temp\cclaUrwd.s 			page 10


 229 0140 C3ED009A 		vstr.32	s19, [r3]
 285:Application/ins_task.c ****         c_33 = cosPitch * cosRoll;
 230              		.loc 1 285 9 is_stmt 1 view .LVU71
 231              		.loc 1 285 25 is_stmt 0 view .LVU72
 232 0144 68EEAA8A 		vmul.f32	s17, s17, s21
 233              	.LVL19:
 234              		.loc 1 285 14 view .LVU73
 235 0148 5E4B     		ldr	r3, .L9+52
 236 014a C3ED008A 		vstr.32	s17, [r3]
 286:Application/ins_task.c ****         param->flag = 0;
 237              		.loc 1 286 9 is_stmt 1 view .LVU74
 238              		.loc 1 286 21 is_stmt 0 view .LVU75
 239 014e 0023     		movs	r3, #0
 240 0150 2370     		strb	r3, [r4]
 241              	.LVL20:
 242              	.L3:
 260:Application/ins_task.c ****     static float lastYawOffset, lastPitchOffset, lastRollOffset;
 243              		.loc 1 260 1 discriminator 1 view .LVU76
 244 0152 0023     		movs	r3, #0
 245 0154 10E0     		b	.L4
 246              	.LVL21:
 247              	.L5:
 248              	.LBB2:
 287:Application/ins_task.c ****     }
 288:Application/ins_task.c ****     float gyro_temp[3];
 289:Application/ins_task.c ****     for (uint8_t i = 0; i < 3; i++)
 290:Application/ins_task.c ****         gyro_temp[i] = gyro[i] * param->scale[i];
 249              		.loc 1 290 9 is_stmt 1 discriminator 3 view .LVU77
 250              		.loc 1 290 28 is_stmt 0 discriminator 3 view .LVU78
 251 0156 05EB8302 		add	r2, r5, r3, lsl #2
 252 015a D2ED007A 		vldr.32	s15, [r2]
 253              		.loc 1 290 46 discriminator 3 view .LVU79
 254 015e 04EB8302 		add	r2, r4, r3, lsl #2
 255 0162 92ED017A 		vldr.32	s14, [r2, #4]
 256              		.loc 1 290 32 discriminator 3 view .LVU80
 257 0166 67EE877A 		vmul.f32	s15, s15, s14
 258              		.loc 1 290 22 discriminator 3 view .LVU81
 259 016a 06AA     		add	r2, sp, #24
 260 016c 02EB8302 		add	r2, r2, r3, lsl #2
 261 0170 42ED037A 		vstr.32	s15, [r2, #-12]
 289:Application/ins_task.c ****         gyro_temp[i] = gyro[i] * param->scale[i];
 262              		.loc 1 289 32 is_stmt 1 discriminator 3 view .LVU82
 289:Application/ins_task.c ****         gyro_temp[i] = gyro[i] * param->scale[i];
 263              		.loc 1 289 33 is_stmt 0 discriminator 3 view .LVU83
 264 0174 0133     		adds	r3, r3, #1
 265              	.LVL22:
 289:Application/ins_task.c ****         gyro_temp[i] = gyro[i] * param->scale[i];
 266              		.loc 1 289 33 discriminator 3 view .LVU84
 267 0176 DBB2     		uxtb	r3, r3
 268              	.LVL23:
 269              	.L4:
 289:Application/ins_task.c ****         gyro_temp[i] = gyro[i] * param->scale[i];
 270              		.loc 1 289 25 is_stmt 1 discriminator 1 view .LVU85
 289:Application/ins_task.c ****         gyro_temp[i] = gyro[i] * param->scale[i];
 271              		.loc 1 289 5 is_stmt 0 discriminator 1 view .LVU86
 272 0178 022B     		cmp	r3, #2
 273 017a ECD9     		bls	.L5
ARM GAS  C:\Users\86152\AppData\Local\Temp\cclaUrwd.s 			page 11


 274              	.LBE2:
 291:Application/ins_task.c **** 
 292:Application/ins_task.c ****     gyro[X] = c_11 * gyro_temp[X] +
 275              		.loc 1 292 5 is_stmt 1 view .LVU87
 276              		.loc 1 292 31 is_stmt 0 view .LVU88
 277 017c DDED037A 		vldr.32	s15, [sp, #12]
 278              		.loc 1 292 20 view .LVU89
 279 0180 484B     		ldr	r3, .L9+20
 280              	.LVL24:
 281              		.loc 1 292 20 view .LVU90
 282 0182 93ED006A 		vldr.32	s12, [r3]
 283 0186 27EE867A 		vmul.f32	s14, s15, s12
 293:Application/ins_task.c ****               c_12 * gyro_temp[Y] +
 284              		.loc 1 293 31 view .LVU91
 285 018a 9DED045A 		vldr.32	s10, [sp, #16]
 286              		.loc 1 293 20 view .LVU92
 287 018e 464B     		ldr	r3, .L9+24
 288 0190 D3ED002A 		vldr.32	s5, [r3]
 289 0194 65EE226A 		vmul.f32	s13, s10, s5
 292:Application/ins_task.c ****               c_12 * gyro_temp[Y] +
 290              		.loc 1 292 35 view .LVU93
 291 0198 37EE267A 		vadd.f32	s14, s14, s13
 294:Application/ins_task.c ****               c_13 * gyro_temp[Z];
 292              		.loc 1 294 31 view .LVU94
 293 019c DDED055A 		vldr.32	s11, [sp, #20]
 294              		.loc 1 294 20 view .LVU95
 295 01a0 424B     		ldr	r3, .L9+28
 296 01a2 93ED003A 		vldr.32	s6, [r3]
 297 01a6 65EE836A 		vmul.f32	s13, s11, s6
 293:Application/ins_task.c ****               c_12 * gyro_temp[Y] +
 298              		.loc 1 293 35 view .LVU96
 299 01aa 37EE267A 		vadd.f32	s14, s14, s13
 292:Application/ins_task.c ****               c_12 * gyro_temp[Y] +
 300              		.loc 1 292 13 view .LVU97
 301 01ae 85ED007A 		vstr.32	s14, [r5]
 295:Application/ins_task.c ****     gyro[Y] = c_21 * gyro_temp[X] +
 302              		.loc 1 295 5 is_stmt 1 view .LVU98
 303              		.loc 1 295 20 is_stmt 0 view .LVU99
 304 01b2 3F4B     		ldr	r3, .L9+32
 305 01b4 D3ED006A 		vldr.32	s13, [r3]
 306 01b8 27EEA67A 		vmul.f32	s14, s15, s13
 296:Application/ins_task.c ****               c_22 * gyro_temp[Y] +
 307              		.loc 1 296 20 view .LVU100
 308 01bc 3D4B     		ldr	r3, .L9+36
 309 01be D3ED003A 		vldr.32	s7, [r3]
 310 01c2 65EE234A 		vmul.f32	s9, s10, s7
 295:Application/ins_task.c ****     gyro[Y] = c_21 * gyro_temp[X] +
 311              		.loc 1 295 35 view .LVU101
 312 01c6 37EE247A 		vadd.f32	s14, s14, s9
 297:Application/ins_task.c ****               c_23 * gyro_temp[Z];
 313              		.loc 1 297 20 view .LVU102
 314 01ca 3B4B     		ldr	r3, .L9+40
 315 01cc 93ED004A 		vldr.32	s8, [r3]
 316 01d0 65EE844A 		vmul.f32	s9, s11, s8
 296:Application/ins_task.c ****               c_22 * gyro_temp[Y] +
 317              		.loc 1 296 35 view .LVU103
 318 01d4 37EE247A 		vadd.f32	s14, s14, s9
ARM GAS  C:\Users\86152\AppData\Local\Temp\cclaUrwd.s 			page 12


 295:Application/ins_task.c ****     gyro[Y] = c_21 * gyro_temp[X] +
 319              		.loc 1 295 13 view .LVU104
 320 01d8 85ED017A 		vstr.32	s14, [r5, #4]
 298:Application/ins_task.c ****     gyro[Z] = c_31 * gyro_temp[X] +
 321              		.loc 1 298 5 is_stmt 1 view .LVU105
 322              		.loc 1 298 20 is_stmt 0 view .LVU106
 323 01dc 374B     		ldr	r3, .L9+44
 324 01de 93ED007A 		vldr.32	s14, [r3]
 325 01e2 67EE877A 		vmul.f32	s15, s15, s14
 299:Application/ins_task.c ****               c_32 * gyro_temp[Y] +
 326              		.loc 1 299 20 view .LVU107
 327 01e6 364B     		ldr	r3, .L9+48
 328 01e8 D3ED004A 		vldr.32	s9, [r3]
 329 01ec 25EE245A 		vmul.f32	s10, s10, s9
 298:Application/ins_task.c ****     gyro[Z] = c_31 * gyro_temp[X] +
 330              		.loc 1 298 35 view .LVU108
 331 01f0 77EE857A 		vadd.f32	s15, s15, s10
 300:Application/ins_task.c ****               c_33 * gyro_temp[Z];
 332              		.loc 1 300 20 view .LVU109
 333 01f4 334B     		ldr	r3, .L9+52
 334 01f6 93ED005A 		vldr.32	s10, [r3]
 335 01fa 65EE855A 		vmul.f32	s11, s11, s10
 299:Application/ins_task.c ****               c_32 * gyro_temp[Y] +
 336              		.loc 1 299 35 view .LVU110
 337 01fe 77EEA57A 		vadd.f32	s15, s15, s11
 298:Application/ins_task.c ****     gyro[Z] = c_31 * gyro_temp[X] +
 338              		.loc 1 298 13 view .LVU111
 339 0202 C5ED027A 		vstr.32	s15, [r5, #8]
 301:Application/ins_task.c **** 
 302:Application/ins_task.c ****     float accel_temp[3];
 340              		.loc 1 302 5 is_stmt 1 view .LVU112
 303:Application/ins_task.c ****     for (uint8_t i = 0; i < 3; i++)
 341              		.loc 1 303 5 view .LVU113
 342              	.LBB3:
 343              		.loc 1 303 10 view .LVU114
 344              	.LVL25:
 345              		.loc 1 303 18 is_stmt 0 view .LVU115
 346 0206 0023     		movs	r3, #0
 347              		.loc 1 303 5 view .LVU116
 348 0208 09E0     		b	.L6
 349              	.LVL26:
 350              	.L7:
 304:Application/ins_task.c ****         accel_temp[i] = accel[i];
 351              		.loc 1 304 9 is_stmt 1 discriminator 3 view .LVU117
 352              		.loc 1 304 30 is_stmt 0 discriminator 3 view .LVU118
 353 020a 06EB8302 		add	r2, r6, r3, lsl #2
 354 020e 1168     		ldr	r1, [r2]	@ float
 355              		.loc 1 304 23 discriminator 3 view .LVU119
 356 0210 06AA     		add	r2, sp, #24
 357 0212 02EB8302 		add	r2, r2, r3, lsl #2
 358 0216 42F8181C 		str	r1, [r2, #-24]	@ float
 303:Application/ins_task.c ****     for (uint8_t i = 0; i < 3; i++)
 359              		.loc 1 303 32 is_stmt 1 discriminator 3 view .LVU120
 303:Application/ins_task.c ****     for (uint8_t i = 0; i < 3; i++)
 360              		.loc 1 303 33 is_stmt 0 discriminator 3 view .LVU121
 361 021a 0133     		adds	r3, r3, #1
 362              	.LVL27:
ARM GAS  C:\Users\86152\AppData\Local\Temp\cclaUrwd.s 			page 13


 303:Application/ins_task.c ****     for (uint8_t i = 0; i < 3; i++)
 363              		.loc 1 303 33 discriminator 3 view .LVU122
 364 021c DBB2     		uxtb	r3, r3
 365              	.LVL28:
 366              	.L6:
 303:Application/ins_task.c ****     for (uint8_t i = 0; i < 3; i++)
 367              		.loc 1 303 25 is_stmt 1 discriminator 1 view .LVU123
 303:Application/ins_task.c ****     for (uint8_t i = 0; i < 3; i++)
 368              		.loc 1 303 5 is_stmt 0 discriminator 1 view .LVU124
 369 021e 022B     		cmp	r3, #2
 370 0220 F3D9     		bls	.L7
 371              	.LBE3:
 305:Application/ins_task.c **** 
 306:Application/ins_task.c ****     accel[X] = c_11 * accel_temp[X] +
 372              		.loc 1 306 5 is_stmt 1 view .LVU125
 373              		.loc 1 306 33 is_stmt 0 view .LVU126
 374 0222 9DED002A 		vldr.32	s4, [sp]
 375              		.loc 1 306 21 view .LVU127
 376 0226 26EE026A 		vmul.f32	s12, s12, s4
 307:Application/ins_task.c ****                c_12 * accel_temp[Y] +
 377              		.loc 1 307 33 view .LVU128
 378 022a DDED015A 		vldr.32	s11, [sp, #4]
 379              		.loc 1 307 21 view .LVU129
 380 022e 62EEA52A 		vmul.f32	s5, s5, s11
 306:Application/ins_task.c ****                c_12 * accel_temp[Y] +
 381              		.loc 1 306 37 view .LVU130
 382 0232 36EE226A 		vadd.f32	s12, s12, s5
 308:Application/ins_task.c ****                c_13 * accel_temp[Z];
 383              		.loc 1 308 33 view .LVU131
 384 0236 DDED027A 		vldr.32	s15, [sp, #8]
 385              		.loc 1 308 21 view .LVU132
 386 023a 23EE273A 		vmul.f32	s6, s6, s15
 307:Application/ins_task.c ****                c_12 * accel_temp[Y] +
 387              		.loc 1 307 37 view .LVU133
 388 023e 36EE036A 		vadd.f32	s12, s12, s6
 306:Application/ins_task.c ****                c_12 * accel_temp[Y] +
 389              		.loc 1 306 14 view .LVU134
 390 0242 86ED006A 		vstr.32	s12, [r6]
 309:Application/ins_task.c ****     accel[Y] = c_21 * accel_temp[X] +
 391              		.loc 1 309 5 is_stmt 1 view .LVU135
 392              		.loc 1 309 21 is_stmt 0 view .LVU136
 393 0246 66EE826A 		vmul.f32	s13, s13, s4
 310:Application/ins_task.c ****                c_22 * accel_temp[Y] +
 394              		.loc 1 310 21 view .LVU137
 395 024a 63EEA53A 		vmul.f32	s7, s7, s11
 309:Application/ins_task.c ****     accel[Y] = c_21 * accel_temp[X] +
 396              		.loc 1 309 37 view .LVU138
 397 024e 76EEA36A 		vadd.f32	s13, s13, s7
 311:Application/ins_task.c ****                c_23 * accel_temp[Z];
 398              		.loc 1 311 21 view .LVU139
 399 0252 24EE274A 		vmul.f32	s8, s8, s15
 310:Application/ins_task.c ****                c_22 * accel_temp[Y] +
 400              		.loc 1 310 37 view .LVU140
 401 0256 76EE846A 		vadd.f32	s13, s13, s8
 309:Application/ins_task.c ****     accel[Y] = c_21 * accel_temp[X] +
 402              		.loc 1 309 14 view .LVU141
 403 025a C6ED016A 		vstr.32	s13, [r6, #4]
ARM GAS  C:\Users\86152\AppData\Local\Temp\cclaUrwd.s 			page 14


 312:Application/ins_task.c ****     accel[Z] = c_31 * accel_temp[X] +
 404              		.loc 1 312 5 is_stmt 1 view .LVU142
 405              		.loc 1 312 21 is_stmt 0 view .LVU143
 406 025e 27EE027A 		vmul.f32	s14, s14, s4
 313:Application/ins_task.c ****                c_32 * accel_temp[Y] +
 407              		.loc 1 313 21 view .LVU144
 408 0262 64EEA54A 		vmul.f32	s9, s9, s11
 312:Application/ins_task.c ****     accel[Z] = c_31 * accel_temp[X] +
 409              		.loc 1 312 37 view .LVU145
 410 0266 37EE247A 		vadd.f32	s14, s14, s9
 314:Application/ins_task.c ****                c_33 * accel_temp[Z];
 411              		.loc 1 314 21 view .LVU146
 412 026a 25EE275A 		vmul.f32	s10, s10, s15
 313:Application/ins_task.c ****                c_32 * accel_temp[Y] +
 413              		.loc 1 313 37 view .LVU147
 414 026e 37EE057A 		vadd.f32	s14, s14, s10
 312:Application/ins_task.c ****     accel[Z] = c_31 * accel_temp[X] +
 415              		.loc 1 312 14 view .LVU148
 416 0272 86ED027A 		vstr.32	s14, [r6, #8]
 315:Application/ins_task.c **** 
 316:Application/ins_task.c ****     lastYawOffset = param->Yaw;
 417              		.loc 1 316 5 is_stmt 1 view .LVU149
 418              		.loc 1 316 26 is_stmt 0 view .LVU150
 419 0276 2269     		ldr	r2, [r4, #16]	@ float
 420              		.loc 1 316 19 view .LVU151
 421 0278 054B     		ldr	r3, .L9
 422              	.LVL29:
 423              		.loc 1 316 19 view .LVU152
 424 027a 1A60     		str	r2, [r3]	@ float
 317:Application/ins_task.c ****     lastPitchOffset = param->Pitch;
 425              		.loc 1 317 5 is_stmt 1 view .LVU153
 426              		.loc 1 317 28 is_stmt 0 view .LVU154
 427 027c 6269     		ldr	r2, [r4, #20]	@ float
 428              		.loc 1 317 21 view .LVU155
 429 027e 064B     		ldr	r3, .L9+8
 430 0280 1A60     		str	r2, [r3]	@ float
 318:Application/ins_task.c ****     lastRollOffset = param->Roll;
 431              		.loc 1 318 5 is_stmt 1 view .LVU156
 432              		.loc 1 318 27 is_stmt 0 view .LVU157
 433 0282 A269     		ldr	r2, [r4, #24]	@ float
 434              		.loc 1 318 20 view .LVU158
 435 0284 054B     		ldr	r3, .L9+12
 436 0286 1A60     		str	r2, [r3]	@ float
 319:Application/ins_task.c **** }
 437              		.loc 1 319 1 view .LVU159
 438 0288 06B0     		add	sp, sp, #24
 439              	.LCFI3:
 440              		.cfi_def_cfa_offset 40
 441              		@ sp needed
 442 028a BDEC068B 		vldm	sp!, {d8-d10}
 443              	.LCFI4:
 444              		.cfi_restore 84
 445              		.cfi_restore 85
 446              		.cfi_restore 82
 447              		.cfi_restore 83
 448              		.cfi_restore 80
 449              		.cfi_restore 81
ARM GAS  C:\Users\86152\AppData\Local\Temp\cclaUrwd.s 			page 15


 450              		.cfi_def_cfa_offset 16
 451 028e 70BD     		pop	{r4, r5, r6, pc}
 452              	.LVL30:
 453              	.L10:
 454              		.loc 1 319 1 view .LVU160
 455              		.align	2
 456              	.L9:
 457 0290 00000000 		.word	.LANCHOR0
 458 0294 6F12833A 		.word	981668463
 459 0298 00000000 		.word	.LANCHOR1
 460 029c 00000000 		.word	.LANCHOR2
 461 02a0 E12E6542 		.word	1113927393
 462 02a4 00000000 		.word	.LANCHOR3
 463 02a8 00000000 		.word	.LANCHOR4
 464 02ac 00000000 		.word	.LANCHOR5
 465 02b0 00000000 		.word	.LANCHOR6
 466 02b4 00000000 		.word	.LANCHOR7
 467 02b8 00000000 		.word	.LANCHOR8
 468 02bc 00000000 		.word	.LANCHOR9
 469 02c0 00000000 		.word	.LANCHOR10
 470 02c4 00000000 		.word	.LANCHOR11
 471              		.cfi_endproc
 472              	.LFE181:
 474              		.section	.text.INS_Init,"ax",%progbits
 475              		.align	1
 476              		.global	INS_Init
 477              		.syntax unified
 478              		.thumb
 479              		.thumb_func
 481              	INS_Init:
 482              	.LFB171:
  26:Application/ins_task.c ****     // gEstimateKF_Init(0.01, 1000);
 483              		.loc 1 26 1 is_stmt 1 view -0
 484              		.cfi_startproc
 485              		@ args = 0, pretend = 0, frame = 0
 486              		@ frame_needed = 0, uses_anonymous_args = 0
 487 0000 38B5     		push	{r3, r4, r5, lr}
 488              	.LCFI5:
 489              		.cfi_def_cfa_offset 16
 490              		.cfi_offset 3, -16
 491              		.cfi_offset 4, -12
 492              		.cfi_offset 5, -8
 493              		.cfi_offset 14, -4
 494 0002 2DED028B 		vpush.64	{d8}
 495              	.LCFI6:
 496              		.cfi_def_cfa_offset 24
 497              		.cfi_offset 80, -24
 498              		.cfi_offset 81, -20
  28:Application/ins_task.c **** 
 499              		.loc 1 28 5 view .LVU162
 500 0006 2448     		ldr	r0, .L13
 501 0008 FFF7FEFF 		bl	BMI088_Read
 502              	.LVL31:
  30:Application/ins_task.c ****     IMU_RequestData(&hcan2, 0x01, exo_controller.xzy_shoulder.dm_imu.send_reg);
 503              		.loc 1 30 5 view .LVU163
  30:Application/ins_task.c ****     IMU_RequestData(&hcan2, 0x01, exo_controller.xzy_shoulder.dm_imu.send_reg);
 504              		.loc 1 30 49 is_stmt 0 view .LVU164
ARM GAS  C:\Users\86152\AppData\Local\Temp\cclaUrwd.s 			page 16


 505 000c 234C     		ldr	r4, .L13+4
 506 000e 0125     		movs	r5, #1
 507 0010 84F82050 		strb	r5, [r4, #32]
  31:Application/ins_task.c **** 
 508              		.loc 1 31 5 is_stmt 1 view .LVU165
 509 0014 2A46     		mov	r2, r5
 510 0016 2946     		mov	r1, r5
 511 0018 2148     		ldr	r0, .L13+8
 512 001a FFF7FEFF 		bl	IMU_RequestData
 513              	.LVL32:
  35:Application/ins_task.c ****     exo_controller.xzy_shoulder.INS_shoulder.imu_cali_param.scale[Y] = 1;
 514              		.loc 1 35 5 view .LVU166
  35:Application/ins_task.c ****     exo_controller.xzy_shoulder.INS_shoulder.imu_cali_param.scale[Y] = 1;
 515              		.loc 1 35 70 is_stmt 0 view .LVU167
 516 001e F7EE001A 		vmov.f32	s3, #1.0e+0
 517 0022 C4ED401A 		vstr.32	s3, [r4, #256]
  36:Application/ins_task.c ****     exo_controller.xzy_shoulder.INS_shoulder.imu_cali_param.scale[Z] = 1;
 518              		.loc 1 36 5 is_stmt 1 view .LVU168
  36:Application/ins_task.c ****     exo_controller.xzy_shoulder.INS_shoulder.imu_cali_param.scale[Z] = 1;
 519              		.loc 1 36 70 is_stmt 0 view .LVU169
 520 0026 C4ED411A 		vstr.32	s3, [r4, #260]
  37:Application/ins_task.c **** 
 521              		.loc 1 37 5 is_stmt 1 view .LVU170
  37:Application/ins_task.c **** 
 522              		.loc 1 37 70 is_stmt 0 view .LVU171
 523 002a C4ED421A 		vstr.32	s3, [r4, #264]
  39:Application/ins_task.c ****     exo_controller.xzy_shoulder.INS_shoulder.imu_cali_param.Pitch = 0;
 524              		.loc 1 39 5 is_stmt 1 view .LVU172
  39:Application/ins_task.c ****     exo_controller.xzy_shoulder.INS_shoulder.imu_cali_param.Pitch = 0;
 525              		.loc 1 39 65 is_stmt 0 view .LVU173
 526 002e 9FED1D8A 		vldr.32	s16, .L13+12
 527 0032 84ED438A 		vstr.32	s16, [r4, #268]
  40:Application/ins_task.c ****     exo_controller.xzy_shoulder.INS_shoulder.imu_cali_param.Roll = 0;
 528              		.loc 1 40 5 is_stmt 1 view .LVU174
  40:Application/ins_task.c ****     exo_controller.xzy_shoulder.INS_shoulder.imu_cali_param.Roll = 0;
 529              		.loc 1 40 67 is_stmt 0 view .LVU175
 530 0036 84ED448A 		vstr.32	s16, [r4, #272]
  41:Application/ins_task.c ****     exo_controller.xzy_shoulder.INS_shoulder.imu_cali_param.flag = 1;
 531              		.loc 1 41 5 is_stmt 1 view .LVU176
  41:Application/ins_task.c ****     exo_controller.xzy_shoulder.INS_shoulder.imu_cali_param.flag = 1;
 532              		.loc 1 41 66 is_stmt 0 view .LVU177
 533 003a 84ED458A 		vstr.32	s16, [r4, #276]
  42:Application/ins_task.c **** 
 534              		.loc 1 42 5 is_stmt 1 view .LVU178
  42:Application/ins_task.c **** 
 535              		.loc 1 42 66 is_stmt 0 view .LVU179
 536 003e 84F8FC50 		strb	r5, [r4, #252]
  44:Application/ins_task.c ****     // imu heat init
 537              		.loc 1 44 5 is_stmt 1 view .LVU180
 538 0042 B0EE482A 		vmov.f32	s4, s16
 539 0046 9FED181A 		vldr.32	s2, .L13+16
 540 004a DFED180A 		vldr.32	s1, .L13+20
 541 004e B2EE040A 		vmov.f32	s0, #1.0e+1
 542 0052 FFF7FEFF 		bl	IMU_QuaternionEKF_Init
 543              	.LVL33:
  46:Application/ins_task.c ****     HAL_TIM_PWM_Start(&htim10, TIM_CHANNEL_1);
 544              		.loc 1 46 5 view .LVU181
ARM GAS  C:\Users\86152\AppData\Local\Temp\cclaUrwd.s 			page 17


 545 0056 0022     		movs	r2, #0
 546 0058 1146     		mov	r1, r2
 547 005a F0EE484A 		vmov.f32	s9, s16
 548 005e B0EE484A 		vmov.f32	s8, s16
 549 0062 F0EE483A 		vmov.f32	s7, s16
 550 0066 B0EE483A 		vmov.f32	s6, s16
 551 006a F0EE482A 		vmov.f32	s5, s16
 552 006e B3EE042A 		vmov.f32	s4, #2.0e+1
 553 0072 DFED0F1A 		vldr.32	s3, .L13+24
 554 0076 B0EE481A 		vmov.f32	s2, s16
 555 007a DFED0E0A 		vldr.32	s1, .L13+28
 556 007e 9FED0E0A 		vldr.32	s0, .L13+32
 557 0082 0E48     		ldr	r0, .L13+36
 558 0084 FFF7FEFF 		bl	PID_Init
 559              	.LVL34:
  47:Application/ins_task.c **** }
 560              		.loc 1 47 5 view .LVU182
 561 0088 0021     		movs	r1, #0
 562 008a 0D48     		ldr	r0, .L13+40
 563 008c FFF7FEFF 		bl	HAL_TIM_PWM_Start
 564              	.LVL35:
  48:Application/ins_task.c **** 
 565              		.loc 1 48 1 is_stmt 0 view .LVU183
 566 0090 BDEC028B 		vldm	sp!, {d8}
 567              	.LCFI7:
 568              		.cfi_restore 80
 569              		.cfi_restore 81
 570              		.cfi_def_cfa_offset 16
 571 0094 38BD     		pop	{r3, r4, r5, pc}
 572              	.L14:
 573 0096 00BF     		.align	2
 574              	.L13:
 575 0098 00000000 		.word	BMI088
 576 009c 00000000 		.word	exo_controller
 577 00a0 00000000 		.word	hcan2
 578 00a4 00000000 		.word	0
 579 00a8 8096184B 		.word	1259902592
 580 00ac 6F12833A 		.word	981668463
 581 00b0 00007A44 		.word	1148846080
 582 00b4 00009643 		.word	1133903872
 583 00b8 0000FA44 		.word	1157234688
 584 00bc 00000000 		.word	.LANCHOR12
 585 00c0 00000000 		.word	htim10
 586              		.cfi_endproc
 587              	.LFE171:
 589              		.section	.text.QuaternionUpdate,"ax",%progbits
 590              		.align	1
 591              		.global	QuaternionUpdate
 592              		.syntax unified
 593              		.thumb
 594              		.thumb_func
 596              	QuaternionUpdate:
 597              	.LVL36:
 598              	.LFB174:
 142:Application/ins_task.c ****     float qa, qb, qc;
 599              		.loc 1 142 1 is_stmt 1 view -0
 600              		.cfi_startproc
ARM GAS  C:\Users\86152\AppData\Local\Temp\cclaUrwd.s 			page 18


 601              		@ args = 0, pretend = 0, frame = 0
 602              		@ frame_needed = 0, uses_anonymous_args = 0
 603              		@ link register save eliminated.
 143:Application/ins_task.c **** 
 604              		.loc 1 143 5 view .LVU185
 145:Application/ins_task.c ****     gy *= 0.5f * dt;
 605              		.loc 1 145 5 view .LVU186
 145:Application/ins_task.c ****     gy *= 0.5f * dt;
 606              		.loc 1 145 16 is_stmt 0 view .LVU187
 607 0000 F6EE007A 		vmov.f32	s15, #5.0e-1
 608 0004 61EEA71A 		vmul.f32	s3, s3, s15
 609              	.LVL37:
 145:Application/ins_task.c ****     gy *= 0.5f * dt;
 610              		.loc 1 145 8 view .LVU188
 611 0008 21EE800A 		vmul.f32	s0, s3, s0
 612              	.LVL38:
 146:Application/ins_task.c ****     gz *= 0.5f * dt;
 613              		.loc 1 146 5 is_stmt 1 view .LVU189
 146:Application/ins_task.c ****     gz *= 0.5f * dt;
 614              		.loc 1 146 8 is_stmt 0 view .LVU190
 615 000c 61EEA00A 		vmul.f32	s1, s3, s1
 616              	.LVL39:
 147:Application/ins_task.c ****     qa = q[0];
 617              		.loc 1 147 5 is_stmt 1 view .LVU191
 147:Application/ins_task.c ****     qa = q[0];
 618              		.loc 1 147 8 is_stmt 0 view .LVU192
 619 0010 21EE811A 		vmul.f32	s2, s3, s2
 620              	.LVL40:
 148:Application/ins_task.c ****     qb = q[1];
 621              		.loc 1 148 5 is_stmt 1 view .LVU193
 148:Application/ins_task.c ****     qb = q[1];
 622              		.loc 1 148 8 is_stmt 0 view .LVU194
 623 0014 D0ED001A 		vldr.32	s3, [r0]
 624              	.LVL41:
 149:Application/ins_task.c ****     qc = q[2];
 625              		.loc 1 149 5 is_stmt 1 view .LVU195
 149:Application/ins_task.c ****     qc = q[2];
 626              		.loc 1 149 8 is_stmt 0 view .LVU196
 627 0018 90ED016A 		vldr.32	s12, [r0, #4]
 628              	.LVL42:
 150:Application/ins_task.c ****     q[0] += (-qb * gx - qc * gy - q[3] * gz);
 629              		.loc 1 150 5 is_stmt 1 view .LVU197
 150:Application/ins_task.c ****     q[0] += (-qb * gx - qc * gy - q[3] * gz);
 630              		.loc 1 150 8 is_stmt 0 view .LVU198
 631 001c D0ED026A 		vldr.32	s13, [r0, #8]
 632              	.LVL43:
 151:Application/ins_task.c ****     q[1] += (qa * gx + qc * gz - q[3] * gy);
 633              		.loc 1 151 5 is_stmt 1 view .LVU199
 151:Application/ins_task.c ****     q[1] += (qa * gx + qc * gz - q[3] * gy);
 634              		.loc 1 151 18 is_stmt 0 view .LVU200
 635 0020 66EE407A 		vnmul.f32	s15, s12, s0
 151:Application/ins_task.c ****     q[1] += (qa * gx + qc * gz - q[3] * gy);
 636              		.loc 1 151 28 view .LVU201
 637 0024 20EEA67A 		vmul.f32	s14, s1, s13
 151:Application/ins_task.c ****     q[1] += (qa * gx + qc * gz - q[3] * gy);
 638              		.loc 1 151 23 view .LVU202
 639 0028 77EEC77A 		vsub.f32	s15, s15, s14
ARM GAS  C:\Users\86152\AppData\Local\Temp\cclaUrwd.s 			page 19


 151:Application/ins_task.c ****     q[1] += (qa * gx + qc * gz - q[3] * gy);
 640              		.loc 1 151 36 view .LVU203
 641 002c 90ED037A 		vldr.32	s14, [r0, #12]
 151:Application/ins_task.c ****     q[1] += (qa * gx + qc * gz - q[3] * gy);
 642              		.loc 1 151 40 view .LVU204
 643 0030 67EE015A 		vmul.f32	s11, s14, s2
 151:Application/ins_task.c ****     q[1] += (qa * gx + qc * gz - q[3] * gy);
 644              		.loc 1 151 33 view .LVU205
 645 0034 77EEE57A 		vsub.f32	s15, s15, s11
 151:Application/ins_task.c ****     q[1] += (qa * gx + qc * gz - q[3] * gy);
 646              		.loc 1 151 10 view .LVU206
 647 0038 77EEA17A 		vadd.f32	s15, s15, s3
 648 003c C0ED007A 		vstr.32	s15, [r0]
 152:Application/ins_task.c ****     q[2] += (qa * gy - qb * gz + q[3] * gx);
 649              		.loc 1 152 5 is_stmt 1 view .LVU207
 152:Application/ins_task.c ****     q[2] += (qa * gy - qb * gz + q[3] * gx);
 650              		.loc 1 152 17 is_stmt 0 view .LVU208
 651 0040 60EE217A 		vmul.f32	s15, s0, s3
 152:Application/ins_task.c ****     q[2] += (qa * gy - qb * gz + q[3] * gx);
 652              		.loc 1 152 27 view .LVU209
 653 0044 61EE265A 		vmul.f32	s11, s2, s13
 152:Application/ins_task.c ****     q[2] += (qa * gy - qb * gz + q[3] * gx);
 654              		.loc 1 152 22 view .LVU210
 655 0048 77EEA57A 		vadd.f32	s15, s15, s11
 152:Application/ins_task.c ****     q[2] += (qa * gy - qb * gz + q[3] * gx);
 656              		.loc 1 152 39 view .LVU211
 657 004c 67EE205A 		vmul.f32	s11, s14, s1
 152:Application/ins_task.c ****     q[2] += (qa * gy - qb * gz + q[3] * gx);
 658              		.loc 1 152 32 view .LVU212
 659 0050 77EEE57A 		vsub.f32	s15, s15, s11
 152:Application/ins_task.c ****     q[2] += (qa * gy - qb * gz + q[3] * gx);
 660              		.loc 1 152 10 view .LVU213
 661 0054 77EE867A 		vadd.f32	s15, s15, s12
 662 0058 C0ED017A 		vstr.32	s15, [r0, #4]
 153:Application/ins_task.c ****     q[3] += (qa * gz + qb * gy - qc * gx);
 663              		.loc 1 153 5 is_stmt 1 view .LVU214
 153:Application/ins_task.c ****     q[3] += (qa * gz + qb * gy - qc * gx);
 664              		.loc 1 153 17 is_stmt 0 view .LVU215
 665 005c 60EEA17A 		vmul.f32	s15, s1, s3
 153:Application/ins_task.c ****     q[3] += (qa * gz + qb * gy - qc * gx);
 666              		.loc 1 153 27 view .LVU216
 667 0060 61EE065A 		vmul.f32	s11, s2, s12
 153:Application/ins_task.c ****     q[3] += (qa * gz + qb * gy - qc * gx);
 668              		.loc 1 153 22 view .LVU217
 669 0064 77EEE57A 		vsub.f32	s15, s15, s11
 153:Application/ins_task.c ****     q[3] += (qa * gz + qb * gy - qc * gx);
 670              		.loc 1 153 39 view .LVU218
 671 0068 67EE005A 		vmul.f32	s11, s14, s0
 153:Application/ins_task.c ****     q[3] += (qa * gz + qb * gy - qc * gx);
 672              		.loc 1 153 32 view .LVU219
 673 006c 77EEA57A 		vadd.f32	s15, s15, s11
 153:Application/ins_task.c ****     q[3] += (qa * gz + qb * gy - qc * gx);
 674              		.loc 1 153 10 view .LVU220
 675 0070 77EEA67A 		vadd.f32	s15, s15, s13
 676 0074 C0ED027A 		vstr.32	s15, [r0, #8]
 154:Application/ins_task.c **** }
 677              		.loc 1 154 5 is_stmt 1 view .LVU221
ARM GAS  C:\Users\86152\AppData\Local\Temp\cclaUrwd.s 			page 20


 154:Application/ins_task.c **** }
 678              		.loc 1 154 17 is_stmt 0 view .LVU222
 679 0078 21EE211A 		vmul.f32	s2, s2, s3
 680              	.LVL44:
 154:Application/ins_task.c **** }
 681              		.loc 1 154 27 view .LVU223
 682 007c 60EE860A 		vmul.f32	s1, s1, s12
 683              	.LVL45:
 154:Application/ins_task.c **** }
 684              		.loc 1 154 22 view .LVU224
 685 0080 31EE201A 		vadd.f32	s2, s2, s1
 154:Application/ins_task.c **** }
 686              		.loc 1 154 37 view .LVU225
 687 0084 20EE260A 		vmul.f32	s0, s0, s13
 688              	.LVL46:
 154:Application/ins_task.c **** }
 689              		.loc 1 154 32 view .LVU226
 690 0088 31EE401A 		vsub.f32	s2, s2, s0
 154:Application/ins_task.c **** }
 691              		.loc 1 154 10 view .LVU227
 692 008c 37EE011A 		vadd.f32	s2, s14, s2
 693 0090 80ED031A 		vstr.32	s2, [r0, #12]
 155:Application/ins_task.c **** 
 694              		.loc 1 155 1 view .LVU228
 695 0094 7047     		bx	lr
 696              		.cfi_endproc
 697              	.LFE174:
 699              		.section	.text.QuaternionToEularAngle,"ax",%progbits
 700              		.align	1
 701              		.global	QuaternionToEularAngle
 702              		.syntax unified
 703              		.thumb
 704              		.thumb_func
 706              	QuaternionToEularAngle:
 707              	.LVL47:
 708              	.LFB175:
 161:Application/ins_task.c ****     *Yaw = atan2f(2.0f * (q[0] * q[3] + q[1] * q[2]), 2.0f * (q[0] * q[0] + q[1] * q[1]) - 1.0f) * 
 709              		.loc 1 161 1 is_stmt 1 view -0
 710              		.cfi_startproc
 711              		@ args = 0, pretend = 0, frame = 0
 712              		@ frame_needed = 0, uses_anonymous_args = 0
 161:Application/ins_task.c ****     *Yaw = atan2f(2.0f * (q[0] * q[3] + q[1] * q[2]), 2.0f * (q[0] * q[0] + q[1] * q[1]) - 1.0f) * 
 713              		.loc 1 161 1 is_stmt 0 view .LVU230
 714 0000 F8B5     		push	{r3, r4, r5, r6, r7, lr}
 715              	.LCFI8:
 716              		.cfi_def_cfa_offset 24
 717              		.cfi_offset 3, -24
 718              		.cfi_offset 4, -20
 719              		.cfi_offset 5, -16
 720              		.cfi_offset 6, -12
 721              		.cfi_offset 7, -8
 722              		.cfi_offset 14, -4
 723 0002 2DED028B 		vpush.64	{d8}
 724              	.LCFI9:
 725              		.cfi_def_cfa_offset 32
 726              		.cfi_offset 80, -32
 727              		.cfi_offset 81, -28
ARM GAS  C:\Users\86152\AppData\Local\Temp\cclaUrwd.s 			page 21


 728 0006 0446     		mov	r4, r0
 729 0008 0F46     		mov	r7, r1
 730 000a 1646     		mov	r6, r2
 731 000c 1D46     		mov	r5, r3
 162:Application/ins_task.c ****     *Pitch = atan2f(2.0f * (q[0] * q[1] + q[2] * q[3]), 2.0f * (q[0] * q[0] + q[3] * q[3]) - 1.0f) 
 732              		.loc 1 162 5 is_stmt 1 view .LVU231
 162:Application/ins_task.c ****     *Pitch = atan2f(2.0f * (q[0] * q[1] + q[2] * q[3]), 2.0f * (q[0] * q[0] + q[3] * q[3]) - 1.0f) 
 733              		.loc 1 162 28 is_stmt 0 view .LVU232
 734 000e D0ED000A 		vldr.32	s1, [r0]
 162:Application/ins_task.c ****     *Pitch = atan2f(2.0f * (q[0] * q[1] + q[2] * q[3]), 2.0f * (q[0] * q[0] + q[3] * q[3]) - 1.0f) 
 735              		.loc 1 162 35 view .LVU233
 736 0012 90ED030A 		vldr.32	s0, [r0, #12]
 162:Application/ins_task.c ****     *Pitch = atan2f(2.0f * (q[0] * q[1] + q[2] * q[3]), 2.0f * (q[0] * q[0] + q[3] * q[3]) - 1.0f) 
 737              		.loc 1 162 32 view .LVU234
 738 0016 20EE800A 		vmul.f32	s0, s1, s0
 162:Application/ins_task.c ****     *Pitch = atan2f(2.0f * (q[0] * q[1] + q[2] * q[3]), 2.0f * (q[0] * q[0] + q[3] * q[3]) - 1.0f) 
 739              		.loc 1 162 42 view .LVU235
 740 001a D0ED017A 		vldr.32	s15, [r0, #4]
 162:Application/ins_task.c ****     *Pitch = atan2f(2.0f * (q[0] * q[1] + q[2] * q[3]), 2.0f * (q[0] * q[0] + q[3] * q[3]) - 1.0f) 
 741              		.loc 1 162 49 view .LVU236
 742 001e 90ED027A 		vldr.32	s14, [r0, #8]
 162:Application/ins_task.c ****     *Pitch = atan2f(2.0f * (q[0] * q[1] + q[2] * q[3]), 2.0f * (q[0] * q[0] + q[3] * q[3]) - 1.0f) 
 743              		.loc 1 162 46 view .LVU237
 744 0022 27EE877A 		vmul.f32	s14, s15, s14
 162:Application/ins_task.c ****     *Pitch = atan2f(2.0f * (q[0] * q[1] + q[2] * q[3]), 2.0f * (q[0] * q[0] + q[3] * q[3]) - 1.0f) 
 745              		.loc 1 162 39 view .LVU238
 746 0026 30EE070A 		vadd.f32	s0, s0, s14
 162:Application/ins_task.c ****     *Pitch = atan2f(2.0f * (q[0] * q[1] + q[2] * q[3]), 2.0f * (q[0] * q[0] + q[3] * q[3]) - 1.0f) 
 747              		.loc 1 162 68 view .LVU239
 748 002a 60EEA00A 		vmul.f32	s1, s1, s1
 162:Application/ins_task.c ****     *Pitch = atan2f(2.0f * (q[0] * q[1] + q[2] * q[3]), 2.0f * (q[0] * q[0] + q[3] * q[3]) - 1.0f) 
 749              		.loc 1 162 82 view .LVU240
 750 002e 67EEA77A 		vmul.f32	s15, s15, s15
 162:Application/ins_task.c ****     *Pitch = atan2f(2.0f * (q[0] * q[1] + q[2] * q[3]), 2.0f * (q[0] * q[0] + q[3] * q[3]) - 1.0f) 
 751              		.loc 1 162 75 view .LVU241
 752 0032 70EEA70A 		vadd.f32	s1, s1, s15
 162:Application/ins_task.c ****     *Pitch = atan2f(2.0f * (q[0] * q[1] + q[2] * q[3]), 2.0f * (q[0] * q[0] + q[3] * q[3]) - 1.0f) 
 753              		.loc 1 162 60 view .LVU242
 754 0036 70EEA00A 		vadd.f32	s1, s1, s1
 162:Application/ins_task.c ****     *Pitch = atan2f(2.0f * (q[0] * q[1] + q[2] * q[3]), 2.0f * (q[0] * q[0] + q[3] * q[3]) - 1.0f) 
 755              		.loc 1 162 12 view .LVU243
 756 003a F7EE008A 		vmov.f32	s17, #1.0e+0
 757 003e 70EEE80A 		vsub.f32	s1, s1, s17
 758 0042 30EE000A 		vadd.f32	s0, s0, s0
 759 0046 FFF7FEFF 		bl	atan2f
 760              	.LVL48:
 162:Application/ins_task.c ****     *Pitch = atan2f(2.0f * (q[0] * q[1] + q[2] * q[3]), 2.0f * (q[0] * q[0] + q[3] * q[3]) - 1.0f) 
 761              		.loc 1 162 98 view .LVU244
 762 004a 9FED1F8A 		vldr.32	s16, .L18
 763 004e 20EE080A 		vmul.f32	s0, s0, s16
 162:Application/ins_task.c ****     *Pitch = atan2f(2.0f * (q[0] * q[1] + q[2] * q[3]), 2.0f * (q[0] * q[0] + q[3] * q[3]) - 1.0f) 
 764              		.loc 1 162 10 view .LVU245
 765 0052 87ED000A 		vstr.32	s0, [r7]
 163:Application/ins_task.c ****     *Roll = asinf(2.0f * (q[0] * q[2] - q[1] * q[3])) * 57.295779513f;
 766              		.loc 1 163 5 is_stmt 1 view .LVU246
 163:Application/ins_task.c ****     *Roll = asinf(2.0f * (q[0] * q[2] - q[1] * q[3])) * 57.295779513f;
 767              		.loc 1 163 30 is_stmt 0 view .LVU247
ARM GAS  C:\Users\86152\AppData\Local\Temp\cclaUrwd.s 			page 22


 768 0056 D4ED000A 		vldr.32	s1, [r4]
 163:Application/ins_task.c ****     *Roll = asinf(2.0f * (q[0] * q[2] - q[1] * q[3])) * 57.295779513f;
 769              		.loc 1 163 37 view .LVU248
 770 005a 94ED010A 		vldr.32	s0, [r4, #4]
 163:Application/ins_task.c ****     *Roll = asinf(2.0f * (q[0] * q[2] - q[1] * q[3])) * 57.295779513f;
 771              		.loc 1 163 34 view .LVU249
 772 005e 20EE800A 		vmul.f32	s0, s1, s0
 163:Application/ins_task.c ****     *Roll = asinf(2.0f * (q[0] * q[2] - q[1] * q[3])) * 57.295779513f;
 773              		.loc 1 163 44 view .LVU250
 774 0062 94ED027A 		vldr.32	s14, [r4, #8]
 163:Application/ins_task.c ****     *Roll = asinf(2.0f * (q[0] * q[2] - q[1] * q[3])) * 57.295779513f;
 775              		.loc 1 163 51 view .LVU251
 776 0066 D4ED037A 		vldr.32	s15, [r4, #12]
 163:Application/ins_task.c ****     *Roll = asinf(2.0f * (q[0] * q[2] - q[1] * q[3])) * 57.295779513f;
 777              		.loc 1 163 48 view .LVU252
 778 006a 27EE277A 		vmul.f32	s14, s14, s15
 163:Application/ins_task.c ****     *Roll = asinf(2.0f * (q[0] * q[2] - q[1] * q[3])) * 57.295779513f;
 779              		.loc 1 163 41 view .LVU253
 780 006e 30EE070A 		vadd.f32	s0, s0, s14
 163:Application/ins_task.c ****     *Roll = asinf(2.0f * (q[0] * q[2] - q[1] * q[3])) * 57.295779513f;
 781              		.loc 1 163 70 view .LVU254
 782 0072 60EEA00A 		vmul.f32	s1, s1, s1
 163:Application/ins_task.c ****     *Roll = asinf(2.0f * (q[0] * q[2] - q[1] * q[3])) * 57.295779513f;
 783              		.loc 1 163 84 view .LVU255
 784 0076 67EEA77A 		vmul.f32	s15, s15, s15
 163:Application/ins_task.c ****     *Roll = asinf(2.0f * (q[0] * q[2] - q[1] * q[3])) * 57.295779513f;
 785              		.loc 1 163 77 view .LVU256
 786 007a 70EEA70A 		vadd.f32	s1, s1, s15
 163:Application/ins_task.c ****     *Roll = asinf(2.0f * (q[0] * q[2] - q[1] * q[3])) * 57.295779513f;
 787              		.loc 1 163 62 view .LVU257
 788 007e 70EEA00A 		vadd.f32	s1, s1, s1
 163:Application/ins_task.c ****     *Roll = asinf(2.0f * (q[0] * q[2] - q[1] * q[3])) * 57.295779513f;
 789              		.loc 1 163 14 view .LVU258
 790 0082 70EEE80A 		vsub.f32	s1, s1, s17
 791 0086 30EE000A 		vadd.f32	s0, s0, s0
 792 008a FFF7FEFF 		bl	atan2f
 793              	.LVL49:
 163:Application/ins_task.c ****     *Roll = asinf(2.0f * (q[0] * q[2] - q[1] * q[3])) * 57.295779513f;
 794              		.loc 1 163 100 view .LVU259
 795 008e 20EE080A 		vmul.f32	s0, s0, s16
 163:Application/ins_task.c ****     *Roll = asinf(2.0f * (q[0] * q[2] - q[1] * q[3])) * 57.295779513f;
 796              		.loc 1 163 12 view .LVU260
 797 0092 86ED000A 		vstr.32	s0, [r6]
 164:Application/ins_task.c **** }
 798              		.loc 1 164 5 is_stmt 1 view .LVU261
 164:Application/ins_task.c **** }
 799              		.loc 1 164 28 is_stmt 0 view .LVU262
 800 0096 94ED000A 		vldr.32	s0, [r4]
 164:Application/ins_task.c **** }
 801              		.loc 1 164 35 view .LVU263
 802 009a D4ED027A 		vldr.32	s15, [r4, #8]
 164:Application/ins_task.c **** }
 803              		.loc 1 164 32 view .LVU264
 804 009e 20EE270A 		vmul.f32	s0, s0, s15
 164:Application/ins_task.c **** }
 805              		.loc 1 164 42 view .LVU265
 806 00a2 D4ED017A 		vldr.32	s15, [r4, #4]
ARM GAS  C:\Users\86152\AppData\Local\Temp\cclaUrwd.s 			page 23


 164:Application/ins_task.c **** }
 807              		.loc 1 164 49 view .LVU266
 808 00a6 94ED037A 		vldr.32	s14, [r4, #12]
 164:Application/ins_task.c **** }
 809              		.loc 1 164 46 view .LVU267
 810 00aa 67EE877A 		vmul.f32	s15, s15, s14
 164:Application/ins_task.c **** }
 811              		.loc 1 164 39 view .LVU268
 812 00ae 30EE670A 		vsub.f32	s0, s0, s15
 164:Application/ins_task.c **** }
 813              		.loc 1 164 13 view .LVU269
 814 00b2 30EE000A 		vadd.f32	s0, s0, s0
 815 00b6 FFF7FEFF 		bl	asinf
 816              	.LVL50:
 164:Application/ins_task.c **** }
 817              		.loc 1 164 55 view .LVU270
 818 00ba 20EE080A 		vmul.f32	s0, s0, s16
 164:Application/ins_task.c **** }
 819              		.loc 1 164 11 view .LVU271
 820 00be 85ED000A 		vstr.32	s0, [r5]
 165:Application/ins_task.c **** 
 821              		.loc 1 165 1 view .LVU272
 822 00c2 BDEC028B 		vldm	sp!, {d8}
 823              	.LCFI10:
 824              		.cfi_restore 80
 825              		.cfi_restore 81
 826              		.cfi_def_cfa_offset 24
 827 00c6 F8BD     		pop	{r3, r4, r5, r6, r7, pc}
 828              	.LVL51:
 829              	.L19:
 165:Application/ins_task.c **** 
 830              		.loc 1 165 1 view .LVU273
 831              		.align	2
 832              	.L18:
 833 00c8 E12E6542 		.word	1113927393
 834              		.cfi_endproc
 835              	.LFE175:
 837              		.section	.text.EularAngleToQuaternion,"ax",%progbits
 838              		.align	1
 839              		.global	EularAngleToQuaternion
 840              		.syntax unified
 841              		.thumb
 842              		.thumb_func
 844              	EularAngleToQuaternion:
 845              	.LVL52:
 846              	.LFB176:
 171:Application/ins_task.c ****     float cosPitch, cosYaw, cosRoll, sinPitch, sinYaw, sinRoll;
 847              		.loc 1 171 1 is_stmt 1 view -0
 848              		.cfi_startproc
 849              		@ args = 0, pretend = 0, frame = 0
 850              		@ frame_needed = 0, uses_anonymous_args = 0
 171:Application/ins_task.c ****     float cosPitch, cosYaw, cosRoll, sinPitch, sinYaw, sinRoll;
 851              		.loc 1 171 1 is_stmt 0 view .LVU275
 852 0000 10B5     		push	{r4, lr}
 853              	.LCFI11:
 854              		.cfi_def_cfa_offset 8
 855              		.cfi_offset 4, -8
ARM GAS  C:\Users\86152\AppData\Local\Temp\cclaUrwd.s 			page 24


 856              		.cfi_offset 14, -4
 857 0002 2DED088B 		vpush.64	{d8, d9, d10, d11}
 858              	.LCFI12:
 859              		.cfi_def_cfa_offset 40
 860              		.cfi_offset 80, -40
 861              		.cfi_offset 81, -36
 862              		.cfi_offset 82, -32
 863              		.cfi_offset 83, -28
 864              		.cfi_offset 84, -24
 865              		.cfi_offset 85, -20
 866              		.cfi_offset 86, -16
 867              		.cfi_offset 87, -12
 868 0006 0446     		mov	r4, r0
 172:Application/ins_task.c ****     Yaw /= 57.295779513f;
 869              		.loc 1 172 5 is_stmt 1 view .LVU276
 173:Application/ins_task.c ****     Pitch /= 57.295779513f;
 870              		.loc 1 173 5 view .LVU277
 173:Application/ins_task.c ****     Pitch /= 57.295779513f;
 871              		.loc 1 173 9 is_stmt 0 view .LVU278
 872 0008 DFED2E7A 		vldr.32	s15, .L22
 873 000c C0EE279A 		vdiv.f32	s19, s0, s15
 874              	.LVL53:
 174:Application/ins_task.c ****     Roll /= 57.295779513f;
 875              		.loc 1 174 5 is_stmt 1 view .LVU279
 174:Application/ins_task.c ****     Roll /= 57.295779513f;
 876              		.loc 1 174 11 is_stmt 0 view .LVU280
 877 0010 80EEA7AA 		vdiv.f32	s20, s1, s15
 878              	.LVL54:
 175:Application/ins_task.c ****     cosPitch = arm_cos_f32(Pitch / 2);
 879              		.loc 1 175 5 is_stmt 1 view .LVU281
 175:Application/ins_task.c ****     cosPitch = arm_cos_f32(Pitch / 2);
 880              		.loc 1 175 10 is_stmt 0 view .LVU282
 881 0014 C1EE27AA 		vdiv.f32	s21, s2, s15
 882              	.LVL55:
 176:Application/ins_task.c ****     cosYaw = arm_cos_f32(Yaw / 2);
 883              		.loc 1 176 5 is_stmt 1 view .LVU283
 176:Application/ins_task.c ****     cosYaw = arm_cos_f32(Yaw / 2);
 884              		.loc 1 176 16 is_stmt 0 view .LVU284
 885 0018 B6EE00BA 		vmov.f32	s22, #5.0e-1
 886 001c 2AEE0BAA 		vmul.f32	s20, s20, s22
 887              	.LVL56:
 176:Application/ins_task.c ****     cosYaw = arm_cos_f32(Yaw / 2);
 888              		.loc 1 176 16 view .LVU285
 889 0020 B0EE4A0A 		vmov.f32	s0, s20
 890 0024 FFF7FEFF 		bl	arm_cos_f32
 891              	.LVL57:
 176:Application/ins_task.c ****     cosYaw = arm_cos_f32(Yaw / 2);
 892              		.loc 1 176 16 view .LVU286
 893 0028 F0EE408A 		vmov.f32	s17, s0
 894              	.LVL58:
 177:Application/ins_task.c ****     cosRoll = arm_cos_f32(Roll / 2);
 895              		.loc 1 177 5 is_stmt 1 view .LVU287
 177:Application/ins_task.c ****     cosRoll = arm_cos_f32(Roll / 2);
 896              		.loc 1 177 14 is_stmt 0 view .LVU288
 897 002c 69EE8B9A 		vmul.f32	s19, s19, s22
 898              	.LVL59:
 177:Application/ins_task.c ****     cosRoll = arm_cos_f32(Roll / 2);
ARM GAS  C:\Users\86152\AppData\Local\Temp\cclaUrwd.s 			page 25


 899              		.loc 1 177 14 view .LVU289
 900 0030 B0EE690A 		vmov.f32	s0, s19
 901              	.LVL60:
 177:Application/ins_task.c ****     cosRoll = arm_cos_f32(Roll / 2);
 902              		.loc 1 177 14 view .LVU290
 903 0034 FFF7FEFF 		bl	arm_cos_f32
 904              	.LVL61:
 905 0038 B0EE409A 		vmov.f32	s18, s0
 906              	.LVL62:
 178:Application/ins_task.c ****     sinPitch = arm_sin_f32(Pitch / 2);
 907              		.loc 1 178 5 is_stmt 1 view .LVU291
 178:Application/ins_task.c ****     sinPitch = arm_sin_f32(Pitch / 2);
 908              		.loc 1 178 15 is_stmt 0 view .LVU292
 909 003c 6AEE8BAA 		vmul.f32	s21, s21, s22
 910              	.LVL63:
 178:Application/ins_task.c ****     sinPitch = arm_sin_f32(Pitch / 2);
 911              		.loc 1 178 15 view .LVU293
 912 0040 B0EE6A0A 		vmov.f32	s0, s21
 913              	.LVL64:
 178:Application/ins_task.c ****     sinPitch = arm_sin_f32(Pitch / 2);
 914              		.loc 1 178 15 view .LVU294
 915 0044 FFF7FEFF 		bl	arm_cos_f32
 916              	.LVL65:
 917 0048 B0EE408A 		vmov.f32	s16, s0
 918              	.LVL66:
 179:Application/ins_task.c ****     sinYaw = arm_sin_f32(Yaw / 2);
 919              		.loc 1 179 5 is_stmt 1 view .LVU295
 179:Application/ins_task.c ****     sinYaw = arm_sin_f32(Yaw / 2);
 920              		.loc 1 179 16 is_stmt 0 view .LVU296
 921 004c B0EE4A0A 		vmov.f32	s0, s20
 922              	.LVL67:
 179:Application/ins_task.c ****     sinYaw = arm_sin_f32(Yaw / 2);
 923              		.loc 1 179 16 view .LVU297
 924 0050 FFF7FEFF 		bl	arm_sin_f32
 925              	.LVL68:
 926 0054 B0EE40AA 		vmov.f32	s20, s0
 927              	.LVL69:
 180:Application/ins_task.c ****     sinRoll = arm_sin_f32(Roll / 2);
 928              		.loc 1 180 5 is_stmt 1 view .LVU298
 180:Application/ins_task.c ****     sinRoll = arm_sin_f32(Roll / 2);
 929              		.loc 1 180 14 is_stmt 0 view .LVU299
 930 0058 B0EE690A 		vmov.f32	s0, s19
 931              	.LVL70:
 180:Application/ins_task.c ****     sinRoll = arm_sin_f32(Roll / 2);
 932              		.loc 1 180 14 view .LVU300
 933 005c FFF7FEFF 		bl	arm_sin_f32
 934              	.LVL71:
 935 0060 F0EE409A 		vmov.f32	s19, s0
 936              	.LVL72:
 181:Application/ins_task.c ****     q[0] = cosPitch * cosRoll * cosYaw + sinPitch * sinRoll * sinYaw;
 937              		.loc 1 181 5 is_stmt 1 view .LVU301
 181:Application/ins_task.c ****     q[0] = cosPitch * cosRoll * cosYaw + sinPitch * sinRoll * sinYaw;
 938              		.loc 1 181 15 is_stmt 0 view .LVU302
 939 0064 B0EE6A0A 		vmov.f32	s0, s21
 940              	.LVL73:
 181:Application/ins_task.c ****     q[0] = cosPitch * cosRoll * cosYaw + sinPitch * sinRoll * sinYaw;
 941              		.loc 1 181 15 view .LVU303
ARM GAS  C:\Users\86152\AppData\Local\Temp\cclaUrwd.s 			page 26


 942 0068 FFF7FEFF 		bl	arm_sin_f32
 943              	.LVL74:
 182:Application/ins_task.c ****     q[1] = sinPitch * cosRoll * cosYaw - cosPitch * sinRoll * sinYaw;
 944              		.loc 1 182 5 is_stmt 1 view .LVU304
 182:Application/ins_task.c ****     q[1] = sinPitch * cosRoll * cosYaw - cosPitch * sinRoll * sinYaw;
 945              		.loc 1 182 21 is_stmt 0 view .LVU305
 946 006c 68EE887A 		vmul.f32	s15, s17, s16
 182:Application/ins_task.c ****     q[1] = sinPitch * cosRoll * cosYaw - cosPitch * sinRoll * sinYaw;
 947              		.loc 1 182 31 view .LVU306
 948 0070 67EE896A 		vmul.f32	s13, s15, s18
 182:Application/ins_task.c ****     q[1] = sinPitch * cosRoll * cosYaw - cosPitch * sinRoll * sinYaw;
 949              		.loc 1 182 51 view .LVU307
 950 0074 2AEE007A 		vmul.f32	s14, s20, s0
 182:Application/ins_task.c ****     q[1] = sinPitch * cosRoll * cosYaw - cosPitch * sinRoll * sinYaw;
 951              		.loc 1 182 61 view .LVU308
 952 0078 27EE296A 		vmul.f32	s12, s14, s19
 182:Application/ins_task.c ****     q[1] = sinPitch * cosRoll * cosYaw - cosPitch * sinRoll * sinYaw;
 953              		.loc 1 182 40 view .LVU309
 954 007c 76EE866A 		vadd.f32	s13, s13, s12
 182:Application/ins_task.c ****     q[1] = sinPitch * cosRoll * cosYaw - cosPitch * sinRoll * sinYaw;
 955              		.loc 1 182 10 view .LVU310
 956 0080 C4ED006A 		vstr.32	s13, [r4]
 183:Application/ins_task.c ****     q[2] = sinPitch * cosRoll * sinYaw + cosPitch * sinRoll * cosYaw;
 957              		.loc 1 183 5 is_stmt 1 view .LVU311
 183:Application/ins_task.c ****     q[2] = sinPitch * cosRoll * sinYaw + cosPitch * sinRoll * cosYaw;
 958              		.loc 1 183 21 is_stmt 0 view .LVU312
 959 0084 28EE0A8A 		vmul.f32	s16, s16, s20
 960              	.LVL75:
 183:Application/ins_task.c ****     q[2] = sinPitch * cosRoll * sinYaw + cosPitch * sinRoll * cosYaw;
 961              		.loc 1 183 31 view .LVU313
 962 0088 68EE096A 		vmul.f32	s13, s16, s18
 183:Application/ins_task.c ****     q[2] = sinPitch * cosRoll * sinYaw + cosPitch * sinRoll * cosYaw;
 963              		.loc 1 183 51 view .LVU314
 964 008c 68EE808A 		vmul.f32	s17, s17, s0
 965              	.LVL76:
 183:Application/ins_task.c ****     q[2] = sinPitch * cosRoll * sinYaw + cosPitch * sinRoll * cosYaw;
 966              		.loc 1 183 61 view .LVU315
 967 0090 28EEA96A 		vmul.f32	s12, s17, s19
 183:Application/ins_task.c ****     q[2] = sinPitch * cosRoll * sinYaw + cosPitch * sinRoll * cosYaw;
 968              		.loc 1 183 40 view .LVU316
 969 0094 76EEC66A 		vsub.f32	s13, s13, s12
 183:Application/ins_task.c ****     q[2] = sinPitch * cosRoll * sinYaw + cosPitch * sinRoll * cosYaw;
 970              		.loc 1 183 10 view .LVU317
 971 0098 C4ED016A 		vstr.32	s13, [r4, #4]
 184:Application/ins_task.c ****     q[3] = cosPitch * cosRoll * sinYaw - sinPitch * sinRoll * cosYaw;
 972              		.loc 1 184 5 is_stmt 1 view .LVU318
 184:Application/ins_task.c ****     q[3] = cosPitch * cosRoll * sinYaw - sinPitch * sinRoll * cosYaw;
 973              		.loc 1 184 31 is_stmt 0 view .LVU319
 974 009c 28EE298A 		vmul.f32	s16, s16, s19
 184:Application/ins_task.c ****     q[3] = cosPitch * cosRoll * sinYaw - sinPitch * sinRoll * cosYaw;
 975              		.loc 1 184 61 view .LVU320
 976 00a0 68EE898A 		vmul.f32	s17, s17, s18
 184:Application/ins_task.c ****     q[3] = cosPitch * cosRoll * sinYaw - sinPitch * sinRoll * cosYaw;
 977              		.loc 1 184 40 view .LVU321
 978 00a4 38EE288A 		vadd.f32	s16, s16, s17
 184:Application/ins_task.c ****     q[3] = cosPitch * cosRoll * sinYaw - sinPitch * sinRoll * cosYaw;
 979              		.loc 1 184 10 view .LVU322
ARM GAS  C:\Users\86152\AppData\Local\Temp\cclaUrwd.s 			page 27


 980 00a8 84ED028A 		vstr.32	s16, [r4, #8]
 185:Application/ins_task.c **** }
 981              		.loc 1 185 5 is_stmt 1 view .LVU323
 185:Application/ins_task.c **** }
 982              		.loc 1 185 31 is_stmt 0 view .LVU324
 983 00ac 67EEA97A 		vmul.f32	s15, s15, s19
 185:Application/ins_task.c **** }
 984              		.loc 1 185 61 view .LVU325
 985 00b0 27EE097A 		vmul.f32	s14, s14, s18
 185:Application/ins_task.c **** }
 986              		.loc 1 185 40 view .LVU326
 987 00b4 77EEC77A 		vsub.f32	s15, s15, s14
 185:Application/ins_task.c **** }
 988              		.loc 1 185 10 view .LVU327
 989 00b8 C4ED037A 		vstr.32	s15, [r4, #12]
 186:Application/ins_task.c **** 
 990              		.loc 1 186 1 view .LVU328
 991 00bc BDEC088B 		vldm	sp!, {d8-d11}
 992              	.LCFI13:
 993              		.cfi_restore 86
 994              		.cfi_restore 87
 995              		.cfi_restore 84
 996              		.cfi_restore 85
 997              		.cfi_restore 82
 998              		.cfi_restore 83
 999              		.cfi_restore 80
 1000              		.cfi_restore 81
 1001              		.cfi_def_cfa_offset 8
 1002              	.LVL77:
 186:Application/ins_task.c **** 
 1003              		.loc 1 186 1 view .LVU329
 1004 00c0 10BD     		pop	{r4, pc}
 1005              	.LVL78:
 1006              	.L23:
 186:Application/ins_task.c **** 
 1007              		.loc 1 186 1 view .LVU330
 1008 00c2 00BF     		.align	2
 1009              	.L22:
 1010 00c4 E12E6542 		.word	1113927393
 1011              		.cfi_endproc
 1012              	.LFE176:
 1014              		.section	.text.InsertQuaternionFrame,"ax",%progbits
 1015              		.align	1
 1016              		.global	InsertQuaternionFrame
 1017              		.syntax unified
 1018              		.thumb
 1019              		.thumb_func
 1021              	InsertQuaternionFrame:
 1022              	.LVL79:
 1023              	.LFB177:
 189:Application/ins_task.c ****     if (qBuf->LatestNum == Q_FRAME_LEN - 1)
 1024              		.loc 1 189 1 is_stmt 1 view -0
 1025              		.cfi_startproc
 1026              		@ args = 0, pretend = 0, frame = 0
 1027              		@ frame_needed = 0, uses_anonymous_args = 0
 189:Application/ins_task.c ****     if (qBuf->LatestNum == Q_FRAME_LEN - 1)
 1028              		.loc 1 189 1 is_stmt 0 view .LVU332
ARM GAS  C:\Users\86152\AppData\Local\Temp\cclaUrwd.s 			page 28


 1029 0000 00B5     		push	{lr}
 1030              	.LCFI14:
 1031              		.cfi_def_cfa_offset 4
 1032              		.cfi_offset 14, -4
 190:Application/ins_task.c ****         qBuf->LatestNum = 0;
 1033              		.loc 1 190 5 is_stmt 1 view .LVU333
 190:Application/ins_task.c ****         qBuf->LatestNum = 0;
 1034              		.loc 1 190 13 is_stmt 0 view .LVU334
 1035 0002 B0F840C6 		ldrh	ip, [r0, #1600]
 190:Application/ins_task.c ****         qBuf->LatestNum = 0;
 1036              		.loc 1 190 8 view .LVU335
 1037 0006 BCF1310F 		cmp	ip, #49
 1038 000a 0BD0     		beq	.L32
 193:Application/ins_task.c **** 
 1039              		.loc 1 193 9 is_stmt 1 view .LVU336
 193:Application/ins_task.c **** 
 1040              		.loc 1 193 24 is_stmt 0 view .LVU337
 1041 000c 0CF1010C 		add	ip, ip, #1
 1042 0010 A0F840C6 		strh	ip, [r0, #1600]	@ movhi
 1043              	.L26:
 195:Application/ins_task.c ****     for (uint16_t i = 0; i < 4; i++)
 1044              		.loc 1 195 5 is_stmt 1 view .LVU338
 195:Application/ins_task.c ****     for (uint16_t i = 0; i < 4; i++)
 1045              		.loc 1 195 22 is_stmt 0 view .LVU339
 1046 0014 B0F840E6 		ldrh	lr, [r0, #1600]
 195:Application/ins_task.c ****     for (uint16_t i = 0; i < 4; i++)
 1047              		.loc 1 195 48 view .LVU340
 1048 0018 00EB4E1C 		add	ip, r0, lr, lsl #5
 1049 001c CCF81C30 		str	r3, [ip, #28]
 196:Application/ins_task.c ****         qBuf->qFrame[qBuf->LatestNum].q[i] = q[i];
 1050              		.loc 1 196 5 is_stmt 1 view .LVU341
 1051              	.LBB4:
 196:Application/ins_task.c ****         qBuf->qFrame[qBuf->LatestNum].q[i] = q[i];
 1052              		.loc 1 196 10 view .LVU342
 1053              	.LVL80:
 196:Application/ins_task.c ****         qBuf->qFrame[qBuf->LatestNum].q[i] = q[i];
 1054              		.loc 1 196 19 is_stmt 0 view .LVU343
 1055 0020 0023     		movs	r3, #0
 1056              	.LVL81:
 196:Application/ins_task.c ****         qBuf->qFrame[qBuf->LatestNum].q[i] = q[i];
 1057              		.loc 1 196 5 view .LVU344
 1058 0022 10E0     		b	.L27
 1059              	.LVL82:
 1060              	.L32:
 196:Application/ins_task.c ****         qBuf->qFrame[qBuf->LatestNum].q[i] = q[i];
 1061              		.loc 1 196 5 view .LVU345
 1062              	.LBE4:
 191:Application/ins_task.c ****     else
 1063              		.loc 1 191 9 is_stmt 1 view .LVU346
 191:Application/ins_task.c ****     else
 1064              		.loc 1 191 25 is_stmt 0 view .LVU347
 1065 0024 4FF0000C 		mov	ip, #0
 1066 0028 A0F840C6 		strh	ip, [r0, #1600]	@ movhi
 1067 002c F2E7     		b	.L26
 1068              	.LVL83:
 1069              	.L28:
 1070              	.LBB5:
ARM GAS  C:\Users\86152\AppData\Local\Temp\cclaUrwd.s 			page 29


 197:Application/ins_task.c ****     for (uint16_t i = 0; i < 3; i++)
 1071              		.loc 1 197 9 is_stmt 1 discriminator 3 view .LVU348
 197:Application/ins_task.c ****     for (uint16_t i = 0; i < 3; i++)
 1072              		.loc 1 197 47 is_stmt 0 discriminator 3 view .LVU349
 1073 002e 01EB830C 		add	ip, r1, r3, lsl #2
 1074 0032 DCED007A 		vldr.32	s15, [ip]
 197:Application/ins_task.c ****     for (uint16_t i = 0; i < 3; i++)
 1075              		.loc 1 197 44 discriminator 3 view .LVU350
 1076 0036 03EBCE0C 		add	ip, r3, lr, lsl #3
 1077 003a 00EB8C0C 		add	ip, r0, ip, lsl #2
 1078 003e CCED007A 		vstr.32	s15, [ip]
 196:Application/ins_task.c ****         qBuf->qFrame[qBuf->LatestNum].q[i] = q[i];
 1079              		.loc 1 196 33 is_stmt 1 discriminator 3 view .LVU351
 196:Application/ins_task.c ****         qBuf->qFrame[qBuf->LatestNum].q[i] = q[i];
 1080              		.loc 1 196 34 is_stmt 0 discriminator 3 view .LVU352
 1081 0042 0133     		adds	r3, r3, #1
 1082              	.LVL84:
 196:Application/ins_task.c ****         qBuf->qFrame[qBuf->LatestNum].q[i] = q[i];
 1083              		.loc 1 196 34 discriminator 3 view .LVU353
 1084 0044 9BB2     		uxth	r3, r3
 1085              	.LVL85:
 1086              	.L27:
 196:Application/ins_task.c ****         qBuf->qFrame[qBuf->LatestNum].q[i] = q[i];
 1087              		.loc 1 196 26 is_stmt 1 discriminator 1 view .LVU354
 196:Application/ins_task.c ****         qBuf->qFrame[qBuf->LatestNum].q[i] = q[i];
 1088              		.loc 1 196 5 is_stmt 0 discriminator 1 view .LVU355
 1089 0046 032B     		cmp	r3, #3
 1090 0048 F1D9     		bls	.L28
 1091              	.LBE5:
 1092              	.LBB6:
 198:Application/ins_task.c ****         qBuf->qFrame[qBuf->LatestNum].MotionAccel_n[i] = motion_acc_n[i];
 1093              		.loc 1 198 19 view .LVU356
 1094 004a 0023     		movs	r3, #0
 1095              	.LVL86:
 198:Application/ins_task.c ****         qBuf->qFrame[qBuf->LatestNum].MotionAccel_n[i] = motion_acc_n[i];
 1096              		.loc 1 198 19 view .LVU357
 1097 004c 0CE0     		b	.L29
 1098              	.LVL87:
 1099              	.L30:
 199:Application/ins_task.c **** }
 1100              		.loc 1 199 9 is_stmt 1 discriminator 3 view .LVU358
 199:Application/ins_task.c **** }
 1101              		.loc 1 199 70 is_stmt 0 discriminator 3 view .LVU359
 1102 004e 02EB8301 		add	r1, r2, r3, lsl #2
 1103 0052 D1F800C0 		ldr	ip, [r1]	@ float
 199:Application/ins_task.c **** }
 1104              		.loc 1 199 56 discriminator 3 view .LVU360
 1105 0056 03EBCE01 		add	r1, r3, lr, lsl #3
 1106 005a 0431     		adds	r1, r1, #4
 1107 005c 00EB8101 		add	r1, r0, r1, lsl #2
 1108 0060 C1F800C0 		str	ip, [r1]	@ float
 198:Application/ins_task.c ****         qBuf->qFrame[qBuf->LatestNum].MotionAccel_n[i] = motion_acc_n[i];
 1109              		.loc 1 198 33 is_stmt 1 discriminator 3 view .LVU361
 198:Application/ins_task.c ****         qBuf->qFrame[qBuf->LatestNum].MotionAccel_n[i] = motion_acc_n[i];
 1110              		.loc 1 198 34 is_stmt 0 discriminator 3 view .LVU362
 1111 0064 0133     		adds	r3, r3, #1
 1112              	.LVL88:
ARM GAS  C:\Users\86152\AppData\Local\Temp\cclaUrwd.s 			page 30


 198:Application/ins_task.c ****         qBuf->qFrame[qBuf->LatestNum].MotionAccel_n[i] = motion_acc_n[i];
 1113              		.loc 1 198 34 discriminator 3 view .LVU363
 1114 0066 9BB2     		uxth	r3, r3
 1115              	.LVL89:
 1116              	.L29:
 198:Application/ins_task.c ****         qBuf->qFrame[qBuf->LatestNum].MotionAccel_n[i] = motion_acc_n[i];
 1117              		.loc 1 198 26 is_stmt 1 discriminator 1 view .LVU364
 198:Application/ins_task.c ****         qBuf->qFrame[qBuf->LatestNum].MotionAccel_n[i] = motion_acc_n[i];
 1118              		.loc 1 198 5 is_stmt 0 discriminator 1 view .LVU365
 1119 0068 022B     		cmp	r3, #2
 1120 006a F0D9     		bls	.L30
 1121              	.LBE6:
 200:Application/ins_task.c **** 
 1122              		.loc 1 200 1 view .LVU366
 1123 006c 5DF804FB 		ldr	pc, [sp], #4
 1124              		.cfi_endproc
 1125              	.LFE177:
 1127              		.section	.text.FindTimeMatchFrame,"ax",%progbits
 1128              		.align	1
 1129              		.global	FindTimeMatchFrame
 1130              		.syntax unified
 1131              		.thumb
 1132              		.thumb_func
 1134              	FindTimeMatchFrame:
 1135              	.LVL90:
 1136              	.LFB178:
 203:Application/ins_task.c ****     int min_time_error = abs(qBuf->qFrame[0].TimeStamp_ms - match_time_stamp_ms);
 1137              		.loc 1 203 1 is_stmt 1 view -0
 1138              		.cfi_startproc
 1139              		@ args = 0, pretend = 0, frame = 0
 1140              		@ frame_needed = 0, uses_anonymous_args = 0
 203:Application/ins_task.c ****     int min_time_error = abs(qBuf->qFrame[0].TimeStamp_ms - match_time_stamp_ms);
 1141              		.loc 1 203 1 is_stmt 0 view .LVU368
 1142 0000 10B5     		push	{r4, lr}
 1143              	.LCFI15:
 1144              		.cfi_def_cfa_offset 8
 1145              		.cfi_offset 4, -8
 1146              		.cfi_offset 14, -4
 1147 0002 0446     		mov	r4, r0
 204:Application/ins_task.c ****     uint16_t num = 0;
 1148              		.loc 1 204 5 is_stmt 1 view .LVU369
 204:Application/ins_task.c ****     uint16_t num = 0;
 1149              		.loc 1 204 26 is_stmt 0 view .LVU370
 1150 0004 C269     		ldr	r2, [r0, #28]
 1151 0006 8A42     		cmp	r2, r1
 1152 0008 04D0     		beq	.L34
 204:Application/ins_task.c ****     uint16_t num = 0;
 1153              		.loc 1 204 26 discriminator 1 view .LVU371
 1154 000a A2EB010E 		sub	lr, r2, r1
 1155              	.L36:
 1156              	.LBB7:
 211:Application/ins_task.c ****         }
 1157              		.loc 1 211 17 discriminator 1 view .LVU372
 1158 000e 0023     		movs	r3, #0
 1159 0010 1846     		mov	r0, r3
 1160              	.LVL91:
 211:Application/ins_task.c ****         }
ARM GAS  C:\Users\86152\AppData\Local\Temp\cclaUrwd.s 			page 31


 1161              		.loc 1 211 17 discriminator 1 view .LVU373
 1162 0012 0EE0     		b	.L35
 1163              	.LVL92:
 1164              	.L34:
 211:Application/ins_task.c ****         }
 1165              		.loc 1 211 17 discriminator 1 view .LVU374
 1166              	.LBE7:
 204:Application/ins_task.c ****     uint16_t num = 0;
 1167              		.loc 1 204 26 discriminator 2 view .LVU375
 1168 0014 5242     		rsbs	r2, r2, #0
 1169 0016 A2EB010E 		sub	lr, r2, r1
 1170 001a F8E7     		b	.L36
 1171              	.LVL93:
 1172              	.L37:
 1173              	.LBB8:
 208:Application/ins_task.c ****         {
 1174              		.loc 1 208 13 discriminator 2 view .LVU376
 1175 001c C2F1000C 		rsb	ip, r2, #0
 1176 0020 ACEB010C 		sub	ip, ip, r1
 1177 0024 0FE0     		b	.L38
 1178              	.L40:
 210:Application/ins_task.c ****             num = i;
 1179              		.loc 1 210 30 discriminator 2 view .LVU377
 1180 0026 5242     		rsbs	r2, r2, #0
 1181 0028 A2EB010E 		sub	lr, r2, r1
 1182              	.LVL94:
 211:Application/ins_task.c ****         }
 1183              		.loc 1 211 17 discriminator 2 view .LVU378
 1184 002c 1846     		mov	r0, r3
 1185              	.LVL95:
 1186              	.L39:
 206:Application/ins_task.c ****     {
 1187              		.loc 1 206 43 is_stmt 1 discriminator 2 view .LVU379
 206:Application/ins_task.c ****     {
 1188              		.loc 1 206 44 is_stmt 0 discriminator 2 view .LVU380
 1189 002e 0133     		adds	r3, r3, #1
 1190              	.LVL96:
 206:Application/ins_task.c ****     {
 1191              		.loc 1 206 44 discriminator 2 view .LVU381
 1192 0030 9BB2     		uxth	r3, r3
 1193              	.LVL97:
 1194              	.L35:
 206:Application/ins_task.c ****     {
 1195              		.loc 1 206 26 is_stmt 1 discriminator 1 view .LVU382
 206:Application/ins_task.c ****     {
 1196              		.loc 1 206 5 is_stmt 0 discriminator 1 view .LVU383
 1197 0032 312B     		cmp	r3, #49
 1198 0034 0FD8     		bhi	.L43
 208:Application/ins_task.c ****         {
 1199              		.loc 1 208 9 is_stmt 1 view .LVU384
 208:Application/ins_task.c ****         {
 1200              		.loc 1 208 13 is_stmt 0 view .LVU385
 1201 0036 04EB431C 		add	ip, r4, r3, lsl #5
 1202 003a DCF81C20 		ldr	r2, [ip, #28]
 1203 003e 8A42     		cmp	r2, r1
 1204 0040 ECD0     		beq	.L37
 208:Application/ins_task.c ****         {
ARM GAS  C:\Users\86152\AppData\Local\Temp\cclaUrwd.s 			page 32


 1205              		.loc 1 208 13 discriminator 1 view .LVU386
 1206 0042 A2EB010C 		sub	ip, r2, r1
 1207              	.L38:
 208:Application/ins_task.c ****         {
 1208              		.loc 1 208 12 discriminator 4 view .LVU387
 1209 0046 E645     		cmp	lr, ip
 1210 0048 F1D9     		bls	.L39
 210:Application/ins_task.c ****             num = i;
 1211              		.loc 1 210 13 is_stmt 1 view .LVU388
 210:Application/ins_task.c ****             num = i;
 1212              		.loc 1 210 30 is_stmt 0 view .LVU389
 1213 004a 8A42     		cmp	r2, r1
 1214 004c EBD0     		beq	.L40
 210:Application/ins_task.c ****             num = i;
 1215              		.loc 1 210 30 discriminator 1 view .LVU390
 1216 004e A2EB010E 		sub	lr, r2, r1
 1217              	.LVL98:
 211:Application/ins_task.c ****         }
 1218              		.loc 1 211 17 discriminator 1 view .LVU391
 1219 0052 1846     		mov	r0, r3
 1220              	.LVL99:
 211:Application/ins_task.c ****         }
 1221              		.loc 1 211 17 discriminator 1 view .LVU392
 1222 0054 EBE7     		b	.L39
 1223              	.LVL100:
 1224              	.L43:
 211:Application/ins_task.c ****         }
 1225              		.loc 1 211 17 discriminator 1 view .LVU393
 1226              	.LBE8:
 214:Application/ins_task.c **** }
 1227              		.loc 1 214 5 is_stmt 1 view .LVU394
 215:Application/ins_task.c **** 
 1228              		.loc 1 215 1 is_stmt 0 view .LVU395
 1229 0056 10BD     		pop	{r4, pc}
 215:Application/ins_task.c **** 
 1230              		.loc 1 215 1 view .LVU396
 1231              		.cfi_endproc
 1232              	.LFE178:
 1234              		.section	.text.BodyFrameToEarthFrame,"ax",%progbits
 1235              		.align	1
 1236              		.global	BodyFrameToEarthFrame
 1237              		.syntax unified
 1238              		.thumb
 1239              		.thumb_func
 1241              	BodyFrameToEarthFrame:
 1242              	.LVL101:
 1243              	.LFB179:
 224:Application/ins_task.c ****     vecEF[0] = 2.0f * ((0.5f - q[2] * q[2] - q[3] * q[3]) * vecBF[0] +
 1244              		.loc 1 224 1 is_stmt 1 view -0
 1245              		.cfi_startproc
 1246              		@ args = 0, pretend = 0, frame = 0
 1247              		@ frame_needed = 0, uses_anonymous_args = 0
 1248              		@ link register save eliminated.
 225:Application/ins_task.c ****                        (q[1] * q[2] - q[0] * q[3]) * vecBF[1] +
 1249              		.loc 1 225 5 view .LVU398
 225:Application/ins_task.c ****                        (q[1] * q[2] - q[0] * q[3]) * vecBF[1] +
 1250              		.loc 1 225 33 is_stmt 0 view .LVU399
ARM GAS  C:\Users\86152\AppData\Local\Temp\cclaUrwd.s 			page 33


 1251 0000 92ED026A 		vldr.32	s12, [r2, #8]
 225:Application/ins_task.c ****                        (q[1] * q[2] - q[0] * q[3]) * vecBF[1] +
 1252              		.loc 1 225 37 view .LVU400
 1253 0004 66EE067A 		vmul.f32	s15, s12, s12
 225:Application/ins_task.c ****                        (q[1] * q[2] - q[0] * q[3]) * vecBF[1] +
 1254              		.loc 1 225 30 view .LVU401
 1255 0008 F6EE006A 		vmov.f32	s13, #5.0e-1
 1256 000c 76EEE77A 		vsub.f32	s15, s13, s15
 225:Application/ins_task.c ****                        (q[1] * q[2] - q[0] * q[3]) * vecBF[1] +
 1257              		.loc 1 225 47 view .LVU402
 1258 0010 92ED037A 		vldr.32	s14, [r2, #12]
 225:Application/ins_task.c ****                        (q[1] * q[2] - q[0] * q[3]) * vecBF[1] +
 1259              		.loc 1 225 51 view .LVU403
 1260 0014 67EE075A 		vmul.f32	s11, s14, s14
 225:Application/ins_task.c ****                        (q[1] * q[2] - q[0] * q[3]) * vecBF[1] +
 1261              		.loc 1 225 44 view .LVU404
 1262 0018 77EEE57A 		vsub.f32	s15, s15, s11
 225:Application/ins_task.c ****                        (q[1] * q[2] - q[0] * q[3]) * vecBF[1] +
 1263              		.loc 1 225 66 view .LVU405
 1264 001c D0ED005A 		vldr.32	s11, [r0]
 225:Application/ins_task.c ****                        (q[1] * q[2] - q[0] * q[3]) * vecBF[1] +
 1265              		.loc 1 225 59 view .LVU406
 1266 0020 67EEA57A 		vmul.f32	s15, s15, s11
 226:Application/ins_task.c ****                        (q[1] * q[3] + q[0] * q[2]) * vecBF[2]);
 1267              		.loc 1 226 26 view .LVU407
 1268 0024 D2ED014A 		vldr.32	s9, [r2, #4]
 226:Application/ins_task.c ****                        (q[1] * q[3] + q[0] * q[2]) * vecBF[2]);
 1269              		.loc 1 226 30 view .LVU408
 1270 0028 66EE245A 		vmul.f32	s11, s12, s9
 226:Application/ins_task.c ****                        (q[1] * q[3] + q[0] * q[2]) * vecBF[2]);
 1271              		.loc 1 226 40 view .LVU409
 1272 002c 92ED005A 		vldr.32	s10, [r2]
 226:Application/ins_task.c ****                        (q[1] * q[3] + q[0] * q[2]) * vecBF[2]);
 1273              		.loc 1 226 44 view .LVU410
 1274 0030 27EE054A 		vmul.f32	s8, s14, s10
 226:Application/ins_task.c ****                        (q[1] * q[3] + q[0] * q[2]) * vecBF[2]);
 1275              		.loc 1 226 37 view .LVU411
 1276 0034 75EEC45A 		vsub.f32	s11, s11, s8
 226:Application/ins_task.c ****                        (q[1] * q[3] + q[0] * q[2]) * vecBF[2]);
 1277              		.loc 1 226 59 view .LVU412
 1278 0038 90ED014A 		vldr.32	s8, [r0, #4]
 226:Application/ins_task.c ****                        (q[1] * q[3] + q[0] * q[2]) * vecBF[2]);
 1279              		.loc 1 226 52 view .LVU413
 1280 003c 65EE845A 		vmul.f32	s11, s11, s8
 225:Application/ins_task.c ****                        (q[1] * q[2] - q[0] * q[3]) * vecBF[1] +
 1281              		.loc 1 225 70 view .LVU414
 1282 0040 77EEA57A 		vadd.f32	s15, s15, s11
 227:Application/ins_task.c **** 
 1283              		.loc 1 227 30 view .LVU415
 1284 0044 27EE247A 		vmul.f32	s14, s14, s9
 227:Application/ins_task.c **** 
 1285              		.loc 1 227 44 view .LVU416
 1286 0048 26EE056A 		vmul.f32	s12, s12, s10
 227:Application/ins_task.c **** 
 1287              		.loc 1 227 37 view .LVU417
 1288 004c 37EE067A 		vadd.f32	s14, s14, s12
 227:Application/ins_task.c **** 
ARM GAS  C:\Users\86152\AppData\Local\Temp\cclaUrwd.s 			page 34


 1289              		.loc 1 227 59 view .LVU418
 1290 0050 90ED026A 		vldr.32	s12, [r0, #8]
 227:Application/ins_task.c **** 
 1291              		.loc 1 227 52 view .LVU419
 1292 0054 27EE067A 		vmul.f32	s14, s14, s12
 226:Application/ins_task.c ****                        (q[1] * q[3] + q[0] * q[2]) * vecBF[2]);
 1293              		.loc 1 226 63 view .LVU420
 1294 0058 77EE877A 		vadd.f32	s15, s15, s14
 225:Application/ins_task.c ****                        (q[1] * q[2] - q[0] * q[3]) * vecBF[1] +
 1295              		.loc 1 225 21 view .LVU421
 1296 005c 77EEA77A 		vadd.f32	s15, s15, s15
 225:Application/ins_task.c ****                        (q[1] * q[2] - q[0] * q[3]) * vecBF[1] +
 1297              		.loc 1 225 14 view .LVU422
 1298 0060 C1ED007A 		vstr.32	s15, [r1]
 229:Application/ins_task.c ****                        (0.5f - q[1] * q[1] - q[3] * q[3]) * vecBF[1] +
 1299              		.loc 1 229 5 is_stmt 1 view .LVU423
 229:Application/ins_task.c ****                        (0.5f - q[1] * q[1] - q[3] * q[3]) * vecBF[1] +
 1300              		.loc 1 229 26 is_stmt 0 view .LVU424
 1301 0064 D2ED015A 		vldr.32	s11, [r2, #4]
 229:Application/ins_task.c ****                        (0.5f - q[1] * q[1] - q[3] * q[3]) * vecBF[1] +
 1302              		.loc 1 229 33 view .LVU425
 1303 0068 D2ED027A 		vldr.32	s15, [r2, #8]
 229:Application/ins_task.c ****                        (0.5f - q[1] * q[1] - q[3] * q[3]) * vecBF[1] +
 1304              		.loc 1 229 30 view .LVU426
 1305 006c 25EEA77A 		vmul.f32	s14, s11, s15
 229:Application/ins_task.c ****                        (0.5f - q[1] * q[1] - q[3] * q[3]) * vecBF[1] +
 1306              		.loc 1 229 40 view .LVU427
 1307 0070 D2ED004A 		vldr.32	s9, [r2]
 229:Application/ins_task.c ****                        (0.5f - q[1] * q[1] - q[3] * q[3]) * vecBF[1] +
 1308              		.loc 1 229 47 view .LVU428
 1309 0074 92ED035A 		vldr.32	s10, [r2, #12]
 229:Application/ins_task.c ****                        (0.5f - q[1] * q[1] - q[3] * q[3]) * vecBF[1] +
 1310              		.loc 1 229 44 view .LVU429
 1311 0078 24EE856A 		vmul.f32	s12, s9, s10
 229:Application/ins_task.c ****                        (0.5f - q[1] * q[1] - q[3] * q[3]) * vecBF[1] +
 1312              		.loc 1 229 37 view .LVU430
 1313 007c 37EE067A 		vadd.f32	s14, s14, s12
 229:Application/ins_task.c ****                        (0.5f - q[1] * q[1] - q[3] * q[3]) * vecBF[1] +
 1314              		.loc 1 229 59 view .LVU431
 1315 0080 90ED006A 		vldr.32	s12, [r0]
 229:Application/ins_task.c ****                        (0.5f - q[1] * q[1] - q[3] * q[3]) * vecBF[1] +
 1316              		.loc 1 229 52 view .LVU432
 1317 0084 27EE067A 		vmul.f32	s14, s14, s12
 230:Application/ins_task.c ****                        (q[2] * q[3] - q[0] * q[1]) * vecBF[2]);
 1318              		.loc 1 230 37 view .LVU433
 1319 0088 25EEA56A 		vmul.f32	s12, s11, s11
 230:Application/ins_task.c ****                        (q[2] * q[3] - q[0] * q[1]) * vecBF[2]);
 1320              		.loc 1 230 30 view .LVU434
 1321 008c 36EEC66A 		vsub.f32	s12, s13, s12
 230:Application/ins_task.c ****                        (q[2] * q[3] - q[0] * q[1]) * vecBF[2]);
 1322              		.loc 1 230 51 view .LVU435
 1323 0090 25EE054A 		vmul.f32	s8, s10, s10
 230:Application/ins_task.c ****                        (q[2] * q[3] - q[0] * q[1]) * vecBF[2]);
 1324              		.loc 1 230 44 view .LVU436
 1325 0094 36EE446A 		vsub.f32	s12, s12, s8
 230:Application/ins_task.c ****                        (q[2] * q[3] - q[0] * q[1]) * vecBF[2]);
 1326              		.loc 1 230 66 view .LVU437
ARM GAS  C:\Users\86152\AppData\Local\Temp\cclaUrwd.s 			page 35


 1327 0098 90ED014A 		vldr.32	s8, [r0, #4]
 230:Application/ins_task.c ****                        (q[2] * q[3] - q[0] * q[1]) * vecBF[2]);
 1328              		.loc 1 230 59 view .LVU438
 1329 009c 26EE046A 		vmul.f32	s12, s12, s8
 229:Application/ins_task.c ****                        (0.5f - q[1] * q[1] - q[3] * q[3]) * vecBF[1] +
 1330              		.loc 1 229 63 view .LVU439
 1331 00a0 37EE067A 		vadd.f32	s14, s14, s12
 231:Application/ins_task.c **** 
 1332              		.loc 1 231 30 view .LVU440
 1333 00a4 67EE857A 		vmul.f32	s15, s15, s10
 231:Application/ins_task.c **** 
 1334              		.loc 1 231 44 view .LVU441
 1335 00a8 65EEA45A 		vmul.f32	s11, s11, s9
 231:Application/ins_task.c **** 
 1336              		.loc 1 231 37 view .LVU442
 1337 00ac 77EEE57A 		vsub.f32	s15, s15, s11
 231:Application/ins_task.c **** 
 1338              		.loc 1 231 59 view .LVU443
 1339 00b0 90ED026A 		vldr.32	s12, [r0, #8]
 231:Application/ins_task.c **** 
 1340              		.loc 1 231 52 view .LVU444
 1341 00b4 67EE867A 		vmul.f32	s15, s15, s12
 230:Application/ins_task.c ****                        (q[2] * q[3] - q[0] * q[1]) * vecBF[2]);
 1342              		.loc 1 230 70 view .LVU445
 1343 00b8 37EE277A 		vadd.f32	s14, s14, s15
 229:Application/ins_task.c ****                        (0.5f - q[1] * q[1] - q[3] * q[3]) * vecBF[1] +
 1344              		.loc 1 229 21 view .LVU446
 1345 00bc 37EE077A 		vadd.f32	s14, s14, s14
 229:Application/ins_task.c ****                        (0.5f - q[1] * q[1] - q[3] * q[3]) * vecBF[1] +
 1346              		.loc 1 229 14 view .LVU447
 1347 00c0 81ED017A 		vstr.32	s14, [r1, #4]
 233:Application/ins_task.c ****                        (q[2] * q[3] + q[0] * q[1]) * vecBF[1] +
 1348              		.loc 1 233 5 is_stmt 1 view .LVU448
 233:Application/ins_task.c ****                        (q[2] * q[3] + q[0] * q[1]) * vecBF[1] +
 1349              		.loc 1 233 26 is_stmt 0 view .LVU449
 1350 00c4 D2ED015A 		vldr.32	s11, [r2, #4]
 233:Application/ins_task.c ****                        (q[2] * q[3] + q[0] * q[1]) * vecBF[1] +
 1351              		.loc 1 233 33 view .LVU450
 1352 00c8 92ED037A 		vldr.32	s14, [r2, #12]
 233:Application/ins_task.c ****                        (q[2] * q[3] + q[0] * q[1]) * vecBF[1] +
 1353              		.loc 1 233 30 view .LVU451
 1354 00cc 65EE877A 		vmul.f32	s15, s11, s14
 233:Application/ins_task.c ****                        (q[2] * q[3] + q[0] * q[1]) * vecBF[1] +
 1355              		.loc 1 233 40 view .LVU452
 1356 00d0 92ED005A 		vldr.32	s10, [r2]
 233:Application/ins_task.c ****                        (q[2] * q[3] + q[0] * q[1]) * vecBF[1] +
 1357              		.loc 1 233 47 view .LVU453
 1358 00d4 92ED026A 		vldr.32	s12, [r2, #8]
 233:Application/ins_task.c ****                        (q[2] * q[3] + q[0] * q[1]) * vecBF[1] +
 1359              		.loc 1 233 44 view .LVU454
 1360 00d8 65EE064A 		vmul.f32	s9, s10, s12
 233:Application/ins_task.c ****                        (q[2] * q[3] + q[0] * q[1]) * vecBF[1] +
 1361              		.loc 1 233 37 view .LVU455
 1362 00dc 77EEE47A 		vsub.f32	s15, s15, s9
 233:Application/ins_task.c ****                        (q[2] * q[3] + q[0] * q[1]) * vecBF[1] +
 1363              		.loc 1 233 59 view .LVU456
 1364 00e0 D0ED004A 		vldr.32	s9, [r0]
ARM GAS  C:\Users\86152\AppData\Local\Temp\cclaUrwd.s 			page 36


 233:Application/ins_task.c ****                        (q[2] * q[3] + q[0] * q[1]) * vecBF[1] +
 1365              		.loc 1 233 52 view .LVU457
 1366 00e4 67EEA47A 		vmul.f32	s15, s15, s9
 234:Application/ins_task.c ****                        (0.5f - q[1] * q[1] - q[2] * q[2]) * vecBF[2]);
 1367              		.loc 1 234 30 view .LVU458
 1368 00e8 27EE067A 		vmul.f32	s14, s14, s12
 234:Application/ins_task.c ****                        (0.5f - q[1] * q[1] - q[2] * q[2]) * vecBF[2]);
 1369              		.loc 1 234 44 view .LVU459
 1370 00ec 25EE855A 		vmul.f32	s10, s11, s10
 234:Application/ins_task.c ****                        (0.5f - q[1] * q[1] - q[2] * q[2]) * vecBF[2]);
 1371              		.loc 1 234 37 view .LVU460
 1372 00f0 37EE057A 		vadd.f32	s14, s14, s10
 234:Application/ins_task.c ****                        (0.5f - q[1] * q[1] - q[2] * q[2]) * vecBF[2]);
 1373              		.loc 1 234 59 view .LVU461
 1374 00f4 90ED015A 		vldr.32	s10, [r0, #4]
 234:Application/ins_task.c ****                        (0.5f - q[1] * q[1] - q[2] * q[2]) * vecBF[2]);
 1375              		.loc 1 234 52 view .LVU462
 1376 00f8 27EE057A 		vmul.f32	s14, s14, s10
 233:Application/ins_task.c ****                        (q[2] * q[3] + q[0] * q[1]) * vecBF[1] +
 1377              		.loc 1 233 63 view .LVU463
 1378 00fc 77EE877A 		vadd.f32	s15, s15, s14
 235:Application/ins_task.c **** }
 1379              		.loc 1 235 37 view .LVU464
 1380 0100 65EEA55A 		vmul.f32	s11, s11, s11
 235:Application/ins_task.c **** }
 1381              		.loc 1 235 30 view .LVU465
 1382 0104 76EEE56A 		vsub.f32	s13, s13, s11
 235:Application/ins_task.c **** }
 1383              		.loc 1 235 51 view .LVU466
 1384 0108 26EE066A 		vmul.f32	s12, s12, s12
 235:Application/ins_task.c **** }
 1385              		.loc 1 235 44 view .LVU467
 1386 010c 76EEC66A 		vsub.f32	s13, s13, s12
 235:Application/ins_task.c **** }
 1387              		.loc 1 235 66 view .LVU468
 1388 0110 90ED027A 		vldr.32	s14, [r0, #8]
 235:Application/ins_task.c **** }
 1389              		.loc 1 235 59 view .LVU469
 1390 0114 66EE876A 		vmul.f32	s13, s13, s14
 234:Application/ins_task.c ****                        (0.5f - q[1] * q[1] - q[2] * q[2]) * vecBF[2]);
 1391              		.loc 1 234 63 view .LVU470
 1392 0118 77EEA67A 		vadd.f32	s15, s15, s13
 233:Application/ins_task.c ****                        (q[2] * q[3] + q[0] * q[1]) * vecBF[1] +
 1393              		.loc 1 233 21 view .LVU471
 1394 011c 77EEA77A 		vadd.f32	s15, s15, s15
 233:Application/ins_task.c ****                        (q[2] * q[3] + q[0] * q[1]) * vecBF[1] +
 1395              		.loc 1 233 14 view .LVU472
 1396 0120 C1ED027A 		vstr.32	s15, [r1, #8]
 236:Application/ins_task.c **** 
 1397              		.loc 1 236 1 view .LVU473
 1398 0124 7047     		bx	lr
 1399              		.cfi_endproc
 1400              	.LFE179:
 1402              		.section	.text.EarthFrameToBodyFrame,"ax",%progbits
 1403              		.align	1
 1404              		.global	EarthFrameToBodyFrame
 1405              		.syntax unified
ARM GAS  C:\Users\86152\AppData\Local\Temp\cclaUrwd.s 			page 37


 1406              		.thumb
 1407              		.thumb_func
 1409              	EarthFrameToBodyFrame:
 1410              	.LVL102:
 1411              	.LFB180:
 245:Application/ins_task.c ****     vecBF[0] = 2.0f * ((0.5f - q[2] * q[2] - q[3] * q[3]) * vecEF[0] +
 1412              		.loc 1 245 1 is_stmt 1 view -0
 1413              		.cfi_startproc
 1414              		@ args = 0, pretend = 0, frame = 0
 1415              		@ frame_needed = 0, uses_anonymous_args = 0
 1416              		@ link register save eliminated.
 246:Application/ins_task.c ****                        (q[1] * q[2] + q[0] * q[3]) * vecEF[1] +
 1417              		.loc 1 246 5 view .LVU475
 246:Application/ins_task.c ****                        (q[1] * q[2] + q[0] * q[3]) * vecEF[1] +
 1418              		.loc 1 246 33 is_stmt 0 view .LVU476
 1419 0000 92ED026A 		vldr.32	s12, [r2, #8]
 246:Application/ins_task.c ****                        (q[1] * q[2] + q[0] * q[3]) * vecEF[1] +
 1420              		.loc 1 246 37 view .LVU477
 1421 0004 66EE067A 		vmul.f32	s15, s12, s12
 246:Application/ins_task.c ****                        (q[1] * q[2] + q[0] * q[3]) * vecEF[1] +
 1422              		.loc 1 246 30 view .LVU478
 1423 0008 F6EE006A 		vmov.f32	s13, #5.0e-1
 1424 000c 76EEE77A 		vsub.f32	s15, s13, s15
 246:Application/ins_task.c ****                        (q[1] * q[2] + q[0] * q[3]) * vecEF[1] +
 1425              		.loc 1 246 47 view .LVU479
 1426 0010 92ED037A 		vldr.32	s14, [r2, #12]
 246:Application/ins_task.c ****                        (q[1] * q[2] + q[0] * q[3]) * vecEF[1] +
 1427              		.loc 1 246 51 view .LVU480
 1428 0014 67EE075A 		vmul.f32	s11, s14, s14
 246:Application/ins_task.c ****                        (q[1] * q[2] + q[0] * q[3]) * vecEF[1] +
 1429              		.loc 1 246 44 view .LVU481
 1430 0018 77EEE57A 		vsub.f32	s15, s15, s11
 246:Application/ins_task.c ****                        (q[1] * q[2] + q[0] * q[3]) * vecEF[1] +
 1431              		.loc 1 246 66 view .LVU482
 1432 001c D0ED005A 		vldr.32	s11, [r0]
 246:Application/ins_task.c ****                        (q[1] * q[2] + q[0] * q[3]) * vecEF[1] +
 1433              		.loc 1 246 59 view .LVU483
 1434 0020 67EEA57A 		vmul.f32	s15, s15, s11
 247:Application/ins_task.c ****                        (q[1] * q[3] - q[0] * q[2]) * vecEF[2]);
 1435              		.loc 1 247 26 view .LVU484
 1436 0024 D2ED014A 		vldr.32	s9, [r2, #4]
 247:Application/ins_task.c ****                        (q[1] * q[3] - q[0] * q[2]) * vecEF[2]);
 1437              		.loc 1 247 30 view .LVU485
 1438 0028 66EE245A 		vmul.f32	s11, s12, s9
 247:Application/ins_task.c ****                        (q[1] * q[3] - q[0] * q[2]) * vecEF[2]);
 1439              		.loc 1 247 40 view .LVU486
 1440 002c 92ED005A 		vldr.32	s10, [r2]
 247:Application/ins_task.c ****                        (q[1] * q[3] - q[0] * q[2]) * vecEF[2]);
 1441              		.loc 1 247 44 view .LVU487
 1442 0030 27EE054A 		vmul.f32	s8, s14, s10
 247:Application/ins_task.c ****                        (q[1] * q[3] - q[0] * q[2]) * vecEF[2]);
 1443              		.loc 1 247 37 view .LVU488
 1444 0034 75EE845A 		vadd.f32	s11, s11, s8
 247:Application/ins_task.c ****                        (q[1] * q[3] - q[0] * q[2]) * vecEF[2]);
 1445              		.loc 1 247 59 view .LVU489
 1446 0038 90ED014A 		vldr.32	s8, [r0, #4]
 247:Application/ins_task.c ****                        (q[1] * q[3] - q[0] * q[2]) * vecEF[2]);
ARM GAS  C:\Users\86152\AppData\Local\Temp\cclaUrwd.s 			page 38


 1447              		.loc 1 247 52 view .LVU490
 1448 003c 65EE845A 		vmul.f32	s11, s11, s8
 246:Application/ins_task.c ****                        (q[1] * q[2] + q[0] * q[3]) * vecEF[1] +
 1449              		.loc 1 246 70 view .LVU491
 1450 0040 77EEA57A 		vadd.f32	s15, s15, s11
 248:Application/ins_task.c **** 
 1451              		.loc 1 248 30 view .LVU492
 1452 0044 27EE247A 		vmul.f32	s14, s14, s9
 248:Application/ins_task.c **** 
 1453              		.loc 1 248 44 view .LVU493
 1454 0048 26EE056A 		vmul.f32	s12, s12, s10
 248:Application/ins_task.c **** 
 1455              		.loc 1 248 37 view .LVU494
 1456 004c 37EE467A 		vsub.f32	s14, s14, s12
 248:Application/ins_task.c **** 
 1457              		.loc 1 248 59 view .LVU495
 1458 0050 90ED026A 		vldr.32	s12, [r0, #8]
 248:Application/ins_task.c **** 
 1459              		.loc 1 248 52 view .LVU496
 1460 0054 27EE067A 		vmul.f32	s14, s14, s12
 247:Application/ins_task.c ****                        (q[1] * q[3] - q[0] * q[2]) * vecEF[2]);
 1461              		.loc 1 247 63 view .LVU497
 1462 0058 77EE877A 		vadd.f32	s15, s15, s14
 246:Application/ins_task.c ****                        (q[1] * q[2] + q[0] * q[3]) * vecEF[1] +
 1463              		.loc 1 246 21 view .LVU498
 1464 005c 77EEA77A 		vadd.f32	s15, s15, s15
 246:Application/ins_task.c ****                        (q[1] * q[2] + q[0] * q[3]) * vecEF[1] +
 1465              		.loc 1 246 14 view .LVU499
 1466 0060 C1ED007A 		vstr.32	s15, [r1]
 250:Application/ins_task.c ****                        (0.5f - q[1] * q[1] - q[3] * q[3]) * vecEF[1] +
 1467              		.loc 1 250 5 is_stmt 1 view .LVU500
 250:Application/ins_task.c ****                        (0.5f - q[1] * q[1] - q[3] * q[3]) * vecEF[1] +
 1468              		.loc 1 250 26 is_stmt 0 view .LVU501
 1469 0064 D2ED015A 		vldr.32	s11, [r2, #4]
 250:Application/ins_task.c ****                        (0.5f - q[1] * q[1] - q[3] * q[3]) * vecEF[1] +
 1470              		.loc 1 250 33 view .LVU502
 1471 0068 D2ED027A 		vldr.32	s15, [r2, #8]
 250:Application/ins_task.c ****                        (0.5f - q[1] * q[1] - q[3] * q[3]) * vecEF[1] +
 1472              		.loc 1 250 30 view .LVU503
 1473 006c 25EEA77A 		vmul.f32	s14, s11, s15
 250:Application/ins_task.c ****                        (0.5f - q[1] * q[1] - q[3] * q[3]) * vecEF[1] +
 1474              		.loc 1 250 40 view .LVU504
 1475 0070 D2ED004A 		vldr.32	s9, [r2]
 250:Application/ins_task.c ****                        (0.5f - q[1] * q[1] - q[3] * q[3]) * vecEF[1] +
 1476              		.loc 1 250 47 view .LVU505
 1477 0074 92ED035A 		vldr.32	s10, [r2, #12]
 250:Application/ins_task.c ****                        (0.5f - q[1] * q[1] - q[3] * q[3]) * vecEF[1] +
 1478              		.loc 1 250 44 view .LVU506
 1479 0078 24EE856A 		vmul.f32	s12, s9, s10
 250:Application/ins_task.c ****                        (0.5f - q[1] * q[1] - q[3] * q[3]) * vecEF[1] +
 1480              		.loc 1 250 37 view .LVU507
 1481 007c 37EE467A 		vsub.f32	s14, s14, s12
 250:Application/ins_task.c ****                        (0.5f - q[1] * q[1] - q[3] * q[3]) * vecEF[1] +
 1482              		.loc 1 250 59 view .LVU508
 1483 0080 90ED006A 		vldr.32	s12, [r0]
 250:Application/ins_task.c ****                        (0.5f - q[1] * q[1] - q[3] * q[3]) * vecEF[1] +
 1484              		.loc 1 250 52 view .LVU509
ARM GAS  C:\Users\86152\AppData\Local\Temp\cclaUrwd.s 			page 39


 1485 0084 27EE067A 		vmul.f32	s14, s14, s12
 251:Application/ins_task.c ****                        (q[2] * q[3] + q[0] * q[1]) * vecEF[2]);
 1486              		.loc 1 251 37 view .LVU510
 1487 0088 25EEA56A 		vmul.f32	s12, s11, s11
 251:Application/ins_task.c ****                        (q[2] * q[3] + q[0] * q[1]) * vecEF[2]);
 1488              		.loc 1 251 30 view .LVU511
 1489 008c 36EEC66A 		vsub.f32	s12, s13, s12
 251:Application/ins_task.c ****                        (q[2] * q[3] + q[0] * q[1]) * vecEF[2]);
 1490              		.loc 1 251 51 view .LVU512
 1491 0090 25EE054A 		vmul.f32	s8, s10, s10
 251:Application/ins_task.c ****                        (q[2] * q[3] + q[0] * q[1]) * vecEF[2]);
 1492              		.loc 1 251 44 view .LVU513
 1493 0094 36EE446A 		vsub.f32	s12, s12, s8
 251:Application/ins_task.c ****                        (q[2] * q[3] + q[0] * q[1]) * vecEF[2]);
 1494              		.loc 1 251 66 view .LVU514
 1495 0098 90ED014A 		vldr.32	s8, [r0, #4]
 251:Application/ins_task.c ****                        (q[2] * q[3] + q[0] * q[1]) * vecEF[2]);
 1496              		.loc 1 251 59 view .LVU515
 1497 009c 26EE046A 		vmul.f32	s12, s12, s8
 250:Application/ins_task.c ****                        (0.5f - q[1] * q[1] - q[3] * q[3]) * vecEF[1] +
 1498              		.loc 1 250 63 view .LVU516
 1499 00a0 37EE067A 		vadd.f32	s14, s14, s12
 252:Application/ins_task.c **** 
 1500              		.loc 1 252 30 view .LVU517
 1501 00a4 67EE857A 		vmul.f32	s15, s15, s10
 252:Application/ins_task.c **** 
 1502              		.loc 1 252 44 view .LVU518
 1503 00a8 65EEA45A 		vmul.f32	s11, s11, s9
 252:Application/ins_task.c **** 
 1504              		.loc 1 252 37 view .LVU519
 1505 00ac 77EEA57A 		vadd.f32	s15, s15, s11
 252:Application/ins_task.c **** 
 1506              		.loc 1 252 59 view .LVU520
 1507 00b0 90ED026A 		vldr.32	s12, [r0, #8]
 252:Application/ins_task.c **** 
 1508              		.loc 1 252 52 view .LVU521
 1509 00b4 67EE867A 		vmul.f32	s15, s15, s12
 251:Application/ins_task.c ****                        (q[2] * q[3] + q[0] * q[1]) * vecEF[2]);
 1510              		.loc 1 251 70 view .LVU522
 1511 00b8 37EE277A 		vadd.f32	s14, s14, s15
 250:Application/ins_task.c ****                        (0.5f - q[1] * q[1] - q[3] * q[3]) * vecEF[1] +
 1512              		.loc 1 250 21 view .LVU523
 1513 00bc 37EE077A 		vadd.f32	s14, s14, s14
 250:Application/ins_task.c ****                        (0.5f - q[1] * q[1] - q[3] * q[3]) * vecEF[1] +
 1514              		.loc 1 250 14 view .LVU524
 1515 00c0 81ED017A 		vstr.32	s14, [r1, #4]
 254:Application/ins_task.c ****                        (q[2] * q[3] - q[0] * q[1]) * vecEF[1] +
 1516              		.loc 1 254 5 is_stmt 1 view .LVU525
 254:Application/ins_task.c ****                        (q[2] * q[3] - q[0] * q[1]) * vecEF[1] +
 1517              		.loc 1 254 26 is_stmt 0 view .LVU526
 1518 00c4 D2ED015A 		vldr.32	s11, [r2, #4]
 254:Application/ins_task.c ****                        (q[2] * q[3] - q[0] * q[1]) * vecEF[1] +
 1519              		.loc 1 254 33 view .LVU527
 1520 00c8 92ED037A 		vldr.32	s14, [r2, #12]
 254:Application/ins_task.c ****                        (q[2] * q[3] - q[0] * q[1]) * vecEF[1] +
 1521              		.loc 1 254 30 view .LVU528
 1522 00cc 65EE877A 		vmul.f32	s15, s11, s14
ARM GAS  C:\Users\86152\AppData\Local\Temp\cclaUrwd.s 			page 40


 254:Application/ins_task.c ****                        (q[2] * q[3] - q[0] * q[1]) * vecEF[1] +
 1523              		.loc 1 254 40 view .LVU529
 1524 00d0 92ED005A 		vldr.32	s10, [r2]
 254:Application/ins_task.c ****                        (q[2] * q[3] - q[0] * q[1]) * vecEF[1] +
 1525              		.loc 1 254 47 view .LVU530
 1526 00d4 92ED026A 		vldr.32	s12, [r2, #8]
 254:Application/ins_task.c ****                        (q[2] * q[3] - q[0] * q[1]) * vecEF[1] +
 1527              		.loc 1 254 44 view .LVU531
 1528 00d8 65EE064A 		vmul.f32	s9, s10, s12
 254:Application/ins_task.c ****                        (q[2] * q[3] - q[0] * q[1]) * vecEF[1] +
 1529              		.loc 1 254 37 view .LVU532
 1530 00dc 77EEA47A 		vadd.f32	s15, s15, s9
 254:Application/ins_task.c ****                        (q[2] * q[3] - q[0] * q[1]) * vecEF[1] +
 1531              		.loc 1 254 59 view .LVU533
 1532 00e0 D0ED004A 		vldr.32	s9, [r0]
 254:Application/ins_task.c ****                        (q[2] * q[3] - q[0] * q[1]) * vecEF[1] +
 1533              		.loc 1 254 52 view .LVU534
 1534 00e4 67EEA47A 		vmul.f32	s15, s15, s9
 255:Application/ins_task.c ****                        (0.5f - q[1] * q[1] - q[2] * q[2]) * vecEF[2]);
 1535              		.loc 1 255 30 view .LVU535
 1536 00e8 27EE067A 		vmul.f32	s14, s14, s12
 255:Application/ins_task.c ****                        (0.5f - q[1] * q[1] - q[2] * q[2]) * vecEF[2]);
 1537              		.loc 1 255 44 view .LVU536
 1538 00ec 25EE855A 		vmul.f32	s10, s11, s10
 255:Application/ins_task.c ****                        (0.5f - q[1] * q[1] - q[2] * q[2]) * vecEF[2]);
 1539              		.loc 1 255 37 view .LVU537
 1540 00f0 37EE457A 		vsub.f32	s14, s14, s10
 255:Application/ins_task.c ****                        (0.5f - q[1] * q[1] - q[2] * q[2]) * vecEF[2]);
 1541              		.loc 1 255 59 view .LVU538
 1542 00f4 90ED015A 		vldr.32	s10, [r0, #4]
 255:Application/ins_task.c ****                        (0.5f - q[1] * q[1] - q[2] * q[2]) * vecEF[2]);
 1543              		.loc 1 255 52 view .LVU539
 1544 00f8 27EE057A 		vmul.f32	s14, s14, s10
 254:Application/ins_task.c ****                        (q[2] * q[3] - q[0] * q[1]) * vecEF[1] +
 1545              		.loc 1 254 63 view .LVU540
 1546 00fc 77EE877A 		vadd.f32	s15, s15, s14
 256:Application/ins_task.c **** }
 1547              		.loc 1 256 37 view .LVU541
 1548 0100 65EEA55A 		vmul.f32	s11, s11, s11
 256:Application/ins_task.c **** }
 1549              		.loc 1 256 30 view .LVU542
 1550 0104 76EEE56A 		vsub.f32	s13, s13, s11
 256:Application/ins_task.c **** }
 1551              		.loc 1 256 51 view .LVU543
 1552 0108 26EE066A 		vmul.f32	s12, s12, s12
 256:Application/ins_task.c **** }
 1553              		.loc 1 256 44 view .LVU544
 1554 010c 76EEC66A 		vsub.f32	s13, s13, s12
 256:Application/ins_task.c **** }
 1555              		.loc 1 256 66 view .LVU545
 1556 0110 90ED027A 		vldr.32	s14, [r0, #8]
 256:Application/ins_task.c **** }
 1557              		.loc 1 256 59 view .LVU546
 1558 0114 66EE876A 		vmul.f32	s13, s13, s14
 255:Application/ins_task.c ****                        (0.5f - q[1] * q[1] - q[2] * q[2]) * vecEF[2]);
 1559              		.loc 1 255 63 view .LVU547
 1560 0118 77EEA67A 		vadd.f32	s15, s15, s13
ARM GAS  C:\Users\86152\AppData\Local\Temp\cclaUrwd.s 			page 41


 254:Application/ins_task.c ****                        (q[2] * q[3] - q[0] * q[1]) * vecEF[1] +
 1561              		.loc 1 254 21 view .LVU548
 1562 011c 77EEA77A 		vadd.f32	s15, s15, s15
 254:Application/ins_task.c ****                        (q[2] * q[3] - q[0] * q[1]) * vecEF[1] +
 1563              		.loc 1 254 14 view .LVU549
 1564 0120 C1ED027A 		vstr.32	s15, [r1, #8]
 257:Application/ins_task.c **** 
 1565              		.loc 1 257 1 view .LVU550
 1566 0124 7047     		bx	lr
 1567              		.cfi_endproc
 1568              	.LFE180:
 1570              		.section	.text.get_INS_from_imu,"ax",%progbits
 1571              		.align	1
 1572              		.syntax unified
 1573              		.thumb
 1574              		.thumb_func
 1576              	get_INS_from_imu:
 1577              	.LVL103:
 1578              	.LFB173:
  95:Application/ins_task.c ****     ins->Accel[X] = -accel[Y];
 1579              		.loc 1 95 1 is_stmt 1 view -0
 1580              		.cfi_startproc
 1581              		@ args = 0, pretend = 0, frame = 16
 1582              		@ frame_needed = 0, uses_anonymous_args = 0
  95:Application/ins_task.c ****     ins->Accel[X] = -accel[Y];
 1583              		.loc 1 95 1 is_stmt 0 view .LVU552
 1584 0000 2DE9F041 		push	{r4, r5, r6, r7, r8, lr}
 1585              	.LCFI16:
 1586              		.cfi_def_cfa_offset 24
 1587              		.cfi_offset 4, -24
 1588              		.cfi_offset 5, -20
 1589              		.cfi_offset 6, -16
 1590              		.cfi_offset 7, -12
 1591              		.cfi_offset 8, -8
 1592              		.cfi_offset 14, -4
 1593 0004 2DED028B 		vpush.64	{d8}
 1594              	.LCFI17:
 1595              		.cfi_def_cfa_offset 32
 1596              		.cfi_offset 80, -32
 1597              		.cfi_offset 81, -28
 1598 0008 84B0     		sub	sp, sp, #16
 1599              	.LCFI18:
 1600              		.cfi_def_cfa_offset 48
 1601 000a 0446     		mov	r4, r0
  96:Application/ins_task.c ****     ins->Accel[Y] = -accel[Z];
 1602              		.loc 1 96 5 is_stmt 1 view .LVU553
  96:Application/ins_task.c ****     ins->Accel[Y] = -accel[Z];
 1603              		.loc 1 96 27 is_stmt 0 view .LVU554
 1604 000c D1ED017A 		vldr.32	s15, [r1, #4]
  96:Application/ins_task.c ****     ins->Accel[Y] = -accel[Z];
 1605              		.loc 1 96 21 view .LVU555
 1606 0010 F1EE677A 		vneg.f32	s15, s15
  96:Application/ins_task.c ****     ins->Accel[Y] = -accel[Z];
 1607              		.loc 1 96 19 view .LVU556
 1608 0014 C0ED077A 		vstr.32	s15, [r0, #28]
  97:Application/ins_task.c ****     ins->Accel[Z] = accel[X];
 1609              		.loc 1 97 5 is_stmt 1 view .LVU557
ARM GAS  C:\Users\86152\AppData\Local\Temp\cclaUrwd.s 			page 42


  97:Application/ins_task.c ****     ins->Accel[Z] = accel[X];
 1610              		.loc 1 97 27 is_stmt 0 view .LVU558
 1611 0018 D1ED027A 		vldr.32	s15, [r1, #8]
  97:Application/ins_task.c ****     ins->Accel[Z] = accel[X];
 1612              		.loc 1 97 21 view .LVU559
 1613 001c F1EE677A 		vneg.f32	s15, s15
  97:Application/ins_task.c ****     ins->Accel[Z] = accel[X];
 1614              		.loc 1 97 19 view .LVU560
 1615 0020 C0ED087A 		vstr.32	s15, [r0, #32]
  98:Application/ins_task.c ****     ins->Gyro[X] = -gyro[Y];
 1616              		.loc 1 98 5 is_stmt 1 view .LVU561
  98:Application/ins_task.c ****     ins->Gyro[X] = -gyro[Y];
 1617              		.loc 1 98 26 is_stmt 0 view .LVU562
 1618 0024 0B68     		ldr	r3, [r1]	@ float
  98:Application/ins_task.c ****     ins->Gyro[X] = -gyro[Y];
 1619              		.loc 1 98 19 view .LVU563
 1620 0026 4362     		str	r3, [r0, #36]	@ float
  99:Application/ins_task.c ****     ins->Gyro[Y] = -gyro[Z];
 1621              		.loc 1 99 5 is_stmt 1 view .LVU564
  99:Application/ins_task.c ****     ins->Gyro[Y] = -gyro[Z];
 1622              		.loc 1 99 25 is_stmt 0 view .LVU565
 1623 0028 D2ED017A 		vldr.32	s15, [r2, #4]
  99:Application/ins_task.c ****     ins->Gyro[Y] = -gyro[Z];
 1624              		.loc 1 99 20 view .LVU566
 1625 002c F1EE677A 		vneg.f32	s15, s15
  99:Application/ins_task.c ****     ins->Gyro[Y] = -gyro[Z];
 1626              		.loc 1 99 18 view .LVU567
 1627 0030 C0ED047A 		vstr.32	s15, [r0, #16]
 100:Application/ins_task.c ****     ins->Gyro[Z] = gyro[X];
 1628              		.loc 1 100 5 is_stmt 1 view .LVU568
 100:Application/ins_task.c ****     ins->Gyro[Z] = gyro[X];
 1629              		.loc 1 100 25 is_stmt 0 view .LVU569
 1630 0034 D2ED027A 		vldr.32	s15, [r2, #8]
 100:Application/ins_task.c ****     ins->Gyro[Z] = gyro[X];
 1631              		.loc 1 100 20 view .LVU570
 1632 0038 F1EE677A 		vneg.f32	s15, s15
 100:Application/ins_task.c ****     ins->Gyro[Z] = gyro[X];
 1633              		.loc 1 100 18 view .LVU571
 1634 003c C0ED057A 		vstr.32	s15, [r0, #20]
 101:Application/ins_task.c **** 
 1635              		.loc 1 101 5 is_stmt 1 view .LVU572
 101:Application/ins_task.c **** 
 1636              		.loc 1 101 24 is_stmt 0 view .LVU573
 1637 0040 1368     		ldr	r3, [r2]	@ float
 101:Application/ins_task.c **** 
 1638              		.loc 1 101 18 view .LVU574
 1639 0042 8361     		str	r3, [r0, #24]	@ float
 103:Application/ins_task.c ****     ins->atanxz = -atan2f(ins->Accel[X], ins->Accel[Z]) * 180 / PI;
 1640              		.loc 1 103 5 is_stmt 1 view .LVU575
 103:Application/ins_task.c ****     ins->atanxz = -atan2f(ins->Accel[X], ins->Accel[Z]) * 180 / PI;
 1641              		.loc 1 103 51 is_stmt 0 view .LVU576
 1642 0044 00F11006 		add	r6, r0, #16
 103:Application/ins_task.c ****     ins->atanxz = -atan2f(ins->Accel[X], ins->Accel[Z]) * 180 / PI;
 1643              		.loc 1 103 62 view .LVU577
 1644 0048 00F11C05 		add	r5, r0, #28
 103:Application/ins_task.c ****     ins->atanxz = -atan2f(ins->Accel[X], ins->Accel[Z]) * 180 / PI;
 1645              		.loc 1 103 5 view .LVU578
ARM GAS  C:\Users\86152\AppData\Local\Temp\cclaUrwd.s 			page 43


 1646 004c 2A46     		mov	r2, r5
 1647              	.LVL104:
 103:Application/ins_task.c ****     ins->atanxz = -atan2f(ins->Accel[X], ins->Accel[Z]) * 180 / PI;
 1648              		.loc 1 103 5 view .LVU579
 1649 004e 3146     		mov	r1, r6
 1650              	.LVL105:
 103:Application/ins_task.c ****     ins->atanxz = -atan2f(ins->Accel[X], ins->Accel[Z]) * 180 / PI;
 1651              		.loc 1 103 5 view .LVU580
 1652 0050 8030     		adds	r0, r0, #128
 1653              	.LVL106:
 103:Application/ins_task.c ****     ins->atanxz = -atan2f(ins->Accel[X], ins->Accel[Z]) * 180 / PI;
 1654              		.loc 1 103 5 view .LVU581
 1655 0052 FFF7FEFF 		bl	IMU_Param_Correction
 1656              	.LVL107:
 104:Application/ins_task.c ****     ins->atanyz = atan2f(ins->Accel[Y], ins->Accel[Z]) * 180 / PI;
 1657              		.loc 1 104 5 is_stmt 1 view .LVU582
 104:Application/ins_task.c ****     ins->atanyz = atan2f(ins->Accel[Y], ins->Accel[Z]) * 180 / PI;
 1658              		.loc 1 104 20 is_stmt 0 view .LVU583
 1659 0056 D4ED090A 		vldr.32	s1, [r4, #36]
 1660 005a 94ED070A 		vldr.32	s0, [r4, #28]
 1661 005e FFF7FEFF 		bl	atan2f
 1662              	.LVL108:
 104:Application/ins_task.c ****     ins->atanyz = atan2f(ins->Accel[Y], ins->Accel[Z]) * 180 / PI;
 1663              		.loc 1 104 57 view .LVU584
 1664 0062 DFED788A 		vldr.32	s17, .L50
 1665 0066 20EE680A 		vnmul.f32	s0, s0, s17
 104:Application/ins_task.c ****     ins->atanyz = atan2f(ins->Accel[Y], ins->Accel[Z]) * 180 / PI;
 1666              		.loc 1 104 63 view .LVU585
 1667 006a 9FED778A 		vldr.32	s16, .L50+4
 1668 006e C0EE087A 		vdiv.f32	s15, s0, s16
 104:Application/ins_task.c ****     ins->atanyz = atan2f(ins->Accel[Y], ins->Accel[Z]) * 180 / PI;
 1669              		.loc 1 104 17 view .LVU586
 1670 0072 C4ED1A7A 		vstr.32	s15, [r4, #104]
 105:Application/ins_task.c **** 
 1671              		.loc 1 105 5 is_stmt 1 view .LVU587
 105:Application/ins_task.c **** 
 1672              		.loc 1 105 19 is_stmt 0 view .LVU588
 1673 0076 D4ED090A 		vldr.32	s1, [r4, #36]
 1674 007a 94ED080A 		vldr.32	s0, [r4, #32]
 1675 007e FFF7FEFF 		bl	atan2f
 1676              	.LVL109:
 105:Application/ins_task.c **** 
 1677              		.loc 1 105 56 view .LVU589
 1678 0082 20EE280A 		vmul.f32	s0, s0, s17
 105:Application/ins_task.c **** 
 1679              		.loc 1 105 62 view .LVU590
 1680 0086 C0EE087A 		vdiv.f32	s15, s0, s16
 105:Application/ins_task.c **** 
 1681              		.loc 1 105 17 view .LVU591
 1682 008a C4ED1B7A 		vstr.32	s15, [r4, #108]
 108:Application/ins_task.c **** 
 1683              		.loc 1 108 5 is_stmt 1 view .LVU592
 1684 008e 6F4B     		ldr	r3, .L50+8
 1685 0090 93ED003A 		vldr.32	s6, [r3]
 1686 0094 D4ED092A 		vldr.32	s5, [r4, #36]
 1687 0098 94ED082A 		vldr.32	s4, [r4, #32]
 1688 009c D4ED071A 		vldr.32	s3, [r4, #28]
ARM GAS  C:\Users\86152\AppData\Local\Temp\cclaUrwd.s 			page 44


 1689 00a0 94ED061A 		vldr.32	s2, [r4, #24]
 1690 00a4 D4ED050A 		vldr.32	s1, [r4, #20]
 1691 00a8 94ED040A 		vldr.32	s0, [r4, #16]
 1692 00ac FFF7FEFF 		bl	IMU_QuaternionEKF_Update
 1693              	.LVL110:
 110:Application/ins_task.c ****     ins->xzy_order_angle[1] = -asinf(2 * (q[1] * q[2] - q[0] * q[3])) * 57.295779513f;
 1694              		.loc 1 110 5 view .LVU593
 111:Application/ins_task.c ****     ins->xzy_order_angle[2] = atan2f(2.0f * (q[1] * q[3] + q[0] * q[2]), 1 - 2.0f * (q[2] * q[2] + 
 1695              		.loc 1 111 5 view .LVU594
 111:Application/ins_task.c ****     ins->xzy_order_angle[2] = atan2f(2.0f * (q[1] * q[3] + q[0] * q[2]), 1 - 2.0f * (q[2] * q[2] + 
 1696              		.loc 1 111 44 is_stmt 0 view .LVU595
 1697 00b0 674F     		ldr	r7, .L50+12
 1698 00b2 97ED550A 		vldr.32	s0, [r7, #340]
 111:Application/ins_task.c ****     ins->xzy_order_angle[2] = atan2f(2.0f * (q[1] * q[3] + q[0] * q[2]), 1 - 2.0f * (q[2] * q[2] + 
 1699              		.loc 1 111 51 view .LVU596
 1700 00b6 D7ED567A 		vldr.32	s15, [r7, #344]
 111:Application/ins_task.c ****     ins->xzy_order_angle[2] = atan2f(2.0f * (q[1] * q[3] + q[0] * q[2]), 1 - 2.0f * (q[2] * q[2] + 
 1701              		.loc 1 111 48 view .LVU597
 1702 00ba 20EE270A 		vmul.f32	s0, s0, s15
 111:Application/ins_task.c ****     ins->xzy_order_angle[2] = atan2f(2.0f * (q[1] * q[3] + q[0] * q[2]), 1 - 2.0f * (q[2] * q[2] + 
 1703              		.loc 1 111 58 view .LVU598
 1704 00be D7ED547A 		vldr.32	s15, [r7, #336]
 111:Application/ins_task.c ****     ins->xzy_order_angle[2] = atan2f(2.0f * (q[1] * q[3] + q[0] * q[2]), 1 - 2.0f * (q[2] * q[2] + 
 1705              		.loc 1 111 65 view .LVU599
 1706 00c2 97ED577A 		vldr.32	s14, [r7, #348]
 111:Application/ins_task.c ****     ins->xzy_order_angle[2] = atan2f(2.0f * (q[1] * q[3] + q[0] * q[2]), 1 - 2.0f * (q[2] * q[2] + 
 1707              		.loc 1 111 62 view .LVU600
 1708 00c6 67EE877A 		vmul.f32	s15, s15, s14
 111:Application/ins_task.c ****     ins->xzy_order_angle[2] = atan2f(2.0f * (q[1] * q[3] + q[0] * q[2]), 1 - 2.0f * (q[2] * q[2] + 
 1709              		.loc 1 111 55 view .LVU601
 1710 00ca 30EE670A 		vsub.f32	s0, s0, s15
 111:Application/ins_task.c ****     ins->xzy_order_angle[2] = atan2f(2.0f * (q[1] * q[3] + q[0] * q[2]), 1 - 2.0f * (q[2] * q[2] + 
 1711              		.loc 1 111 32 view .LVU602
 1712 00ce 30EE000A 		vadd.f32	s0, s0, s0
 1713 00d2 FFF7FEFF 		bl	asinf
 1714              	.LVL111:
 111:Application/ins_task.c ****     ins->xzy_order_angle[2] = atan2f(2.0f * (q[1] * q[3] + q[0] * q[2]), 1 - 2.0f * (q[2] * q[2] + 
 1715              		.loc 1 111 71 view .LVU603
 1716 00d6 9FED5F8A 		vldr.32	s16, .L50+16
 1717 00da 20EE480A 		vnmul.f32	s0, s0, s16
 111:Application/ins_task.c ****     ins->xzy_order_angle[2] = atan2f(2.0f * (q[1] * q[3] + q[0] * q[2]), 1 - 2.0f * (q[2] * q[2] + 
 1718              		.loc 1 111 29 view .LVU604
 1719 00de 84ED280A 		vstr.32	s0, [r4, #160]
 112:Application/ins_task.c ****     ins->xzy_order_angle[0] = atan2f(2.0f * (q[0] * q[1] + q[2] * q[3]), 1 - 2.0f * (q[1] * q[1] - 
 1720              		.loc 1 112 5 is_stmt 1 view .LVU605
 112:Application/ins_task.c ****     ins->xzy_order_angle[0] = atan2f(2.0f * (q[0] * q[1] + q[2] * q[3]), 1 - 2.0f * (q[1] * q[1] - 
 1721              		.loc 1 112 47 is_stmt 0 view .LVU606
 1722 00e2 97ED550A 		vldr.32	s0, [r7, #340]
 112:Application/ins_task.c ****     ins->xzy_order_angle[0] = atan2f(2.0f * (q[0] * q[1] + q[2] * q[3]), 1 - 2.0f * (q[1] * q[1] - 
 1723              		.loc 1 112 54 view .LVU607
 1724 00e6 D7ED577A 		vldr.32	s15, [r7, #348]
 112:Application/ins_task.c ****     ins->xzy_order_angle[0] = atan2f(2.0f * (q[0] * q[1] + q[2] * q[3]), 1 - 2.0f * (q[1] * q[1] - 
 1725              		.loc 1 112 51 view .LVU608
 1726 00ea 20EE270A 		vmul.f32	s0, s0, s15
 112:Application/ins_task.c ****     ins->xzy_order_angle[0] = atan2f(2.0f * (q[0] * q[1] + q[2] * q[3]), 1 - 2.0f * (q[1] * q[1] - 
 1727              		.loc 1 112 61 view .LVU609
 1728 00ee 97ED547A 		vldr.32	s14, [r7, #336]
ARM GAS  C:\Users\86152\AppData\Local\Temp\cclaUrwd.s 			page 45


 112:Application/ins_task.c ****     ins->xzy_order_angle[0] = atan2f(2.0f * (q[0] * q[1] + q[2] * q[3]), 1 - 2.0f * (q[1] * q[1] - 
 1729              		.loc 1 112 68 view .LVU610
 1730 00f2 D7ED560A 		vldr.32	s1, [r7, #344]
 112:Application/ins_task.c ****     ins->xzy_order_angle[0] = atan2f(2.0f * (q[0] * q[1] + q[2] * q[3]), 1 - 2.0f * (q[1] * q[1] - 
 1731              		.loc 1 112 65 view .LVU611
 1732 00f6 27EE207A 		vmul.f32	s14, s14, s1
 112:Application/ins_task.c ****     ins->xzy_order_angle[0] = atan2f(2.0f * (q[0] * q[1] + q[2] * q[3]), 1 - 2.0f * (q[1] * q[1] - 
 1733              		.loc 1 112 58 view .LVU612
 1734 00fa 30EE070A 		vadd.f32	s0, s0, s14
 112:Application/ins_task.c ****     ins->xzy_order_angle[0] = atan2f(2.0f * (q[0] * q[1] + q[2] * q[3]), 1 - 2.0f * (q[1] * q[1] - 
 1735              		.loc 1 112 91 view .LVU613
 1736 00fe 60EEA00A 		vmul.f32	s1, s1, s1
 112:Application/ins_task.c ****     ins->xzy_order_angle[0] = atan2f(2.0f * (q[0] * q[1] + q[2] * q[3]), 1 - 2.0f * (q[1] * q[1] - 
 1737              		.loc 1 112 105 view .LVU614
 1738 0102 67EEA77A 		vmul.f32	s15, s15, s15
 112:Application/ins_task.c ****     ins->xzy_order_angle[0] = atan2f(2.0f * (q[0] * q[1] + q[2] * q[3]), 1 - 2.0f * (q[1] * q[1] - 
 1739              		.loc 1 112 98 view .LVU615
 1740 0106 70EEA70A 		vadd.f32	s1, s1, s15
 112:Application/ins_task.c ****     ins->xzy_order_angle[0] = atan2f(2.0f * (q[0] * q[1] + q[2] * q[3]), 1 - 2.0f * (q[1] * q[1] - 
 1741              		.loc 1 112 83 view .LVU616
 1742 010a 70EEA00A 		vadd.f32	s1, s1, s1
 112:Application/ins_task.c ****     ins->xzy_order_angle[0] = atan2f(2.0f * (q[0] * q[1] + q[2] * q[3]), 1 - 2.0f * (q[1] * q[1] - 
 1743              		.loc 1 112 31 view .LVU617
 1744 010e F7EE008A 		vmov.f32	s17, #1.0e+0
 1745 0112 78EEE00A 		vsub.f32	s1, s17, s1
 1746 0116 30EE000A 		vadd.f32	s0, s0, s0
 1747 011a FFF7FEFF 		bl	atan2f
 1748              	.LVL112:
 112:Application/ins_task.c ****     ins->xzy_order_angle[0] = atan2f(2.0f * (q[0] * q[1] + q[2] * q[3]), 1 - 2.0f * (q[1] * q[1] - 
 1749              		.loc 1 112 114 view .LVU618
 1750 011e 20EE080A 		vmul.f32	s0, s0, s16
 112:Application/ins_task.c ****     ins->xzy_order_angle[0] = atan2f(2.0f * (q[0] * q[1] + q[2] * q[3]), 1 - 2.0f * (q[1] * q[1] - 
 1751              		.loc 1 112 29 view .LVU619
 1752 0122 84ED290A 		vstr.32	s0, [r4, #164]
 113:Application/ins_task.c **** 
 1753              		.loc 1 113 5 is_stmt 1 view .LVU620
 113:Application/ins_task.c **** 
 1754              		.loc 1 113 47 is_stmt 0 view .LVU621
 1755 0126 97ED540A 		vldr.32	s0, [r7, #336]
 113:Application/ins_task.c **** 
 1756              		.loc 1 113 54 view .LVU622
 1757 012a D7ED550A 		vldr.32	s1, [r7, #340]
 113:Application/ins_task.c **** 
 1758              		.loc 1 113 51 view .LVU623
 1759 012e 20EE200A 		vmul.f32	s0, s0, s1
 113:Application/ins_task.c **** 
 1760              		.loc 1 113 61 view .LVU624
 1761 0132 97ED567A 		vldr.32	s14, [r7, #344]
 113:Application/ins_task.c **** 
 1762              		.loc 1 113 68 view .LVU625
 1763 0136 D7ED577A 		vldr.32	s15, [r7, #348]
 113:Application/ins_task.c **** 
 1764              		.loc 1 113 65 view .LVU626
 1765 013a 27EE277A 		vmul.f32	s14, s14, s15
 113:Application/ins_task.c **** 
 1766              		.loc 1 113 58 view .LVU627
 1767 013e 30EE070A 		vadd.f32	s0, s0, s14
ARM GAS  C:\Users\86152\AppData\Local\Temp\cclaUrwd.s 			page 46


 113:Application/ins_task.c **** 
 1768              		.loc 1 113 91 view .LVU628
 1769 0142 60EEA00A 		vmul.f32	s1, s1, s1
 113:Application/ins_task.c **** 
 1770              		.loc 1 113 105 view .LVU629
 1771 0146 67EEA77A 		vmul.f32	s15, s15, s15
 113:Application/ins_task.c **** 
 1772              		.loc 1 113 98 view .LVU630
 1773 014a 70EEE70A 		vsub.f32	s1, s1, s15
 113:Application/ins_task.c **** 
 1774              		.loc 1 113 83 view .LVU631
 1775 014e 70EEA00A 		vadd.f32	s1, s1, s1
 113:Application/ins_task.c **** 
 1776              		.loc 1 113 31 view .LVU632
 1777 0152 78EEE00A 		vsub.f32	s1, s17, s1
 1778 0156 30EE000A 		vadd.f32	s0, s0, s0
 1779 015a FFF7FEFF 		bl	atan2f
 1780              	.LVL113:
 113:Application/ins_task.c **** 
 1781              		.loc 1 113 114 view .LVU633
 1782 015e 20EE088A 		vmul.f32	s16, s0, s16
 113:Application/ins_task.c **** 
 1783              		.loc 1 113 29 view .LVU634
 1784 0162 84ED278A 		vstr.32	s16, [r4, #156]
 115:Application/ins_task.c ****     BodyFrameToEarthFrame(yb, ins->yn, ins->q);
 1785              		.loc 1 115 5 is_stmt 1 view .LVU635
 1786 0166 2246     		mov	r2, r4
 1787 0168 04F14401 		add	r1, r4, #68
 1788 016c 3A48     		ldr	r0, .L50+20
 1789 016e FFF7FEFF 		bl	BodyFrameToEarthFrame
 1790              	.LVL114:
 116:Application/ins_task.c ****     BodyFrameToEarthFrame(zb, ins->zn, ins->q);
 1791              		.loc 1 116 5 view .LVU636
 1792 0172 2246     		mov	r2, r4
 1793 0174 04F15001 		add	r1, r4, #80
 1794 0178 3848     		ldr	r0, .L50+24
 1795 017a FFF7FEFF 		bl	BodyFrameToEarthFrame
 1796              	.LVL115:
 117:Application/ins_task.c **** 
 1797              		.loc 1 117 5 view .LVU637
 1798 017e 2246     		mov	r2, r4
 1799 0180 04F15C01 		add	r1, r4, #92
 1800 0184 3648     		ldr	r0, .L50+28
 1801 0186 FFF7FEFF 		bl	BodyFrameToEarthFrame
 1802              	.LVL116:
 119:Application/ins_task.c ****     EarthFrameToBodyFrame(gravity, gravity_b, INS.q);
 1803              		.loc 1 119 5 view .LVU638
 120:Application/ins_task.c ****     for (uint8_t i = 0; i < 3; i++)
 1804              		.loc 1 120 5 view .LVU639
 1805 018a 364A     		ldr	r2, .L50+32
 1806 018c 01A9     		add	r1, sp, #4
 1807 018e 3648     		ldr	r0, .L50+36
 1808 0190 FFF7FEFF 		bl	EarthFrameToBodyFrame
 1809              	.LVL117:
 121:Application/ins_task.c ****         ins->MotionAccel_b[i] = (ins->Accel[i] - gravity_b[i]) * dt / (ins->AccelLPF + dt) + ins->M
 1810              		.loc 1 121 5 view .LVU640
 1811              	.LBB9:
ARM GAS  C:\Users\86152\AppData\Local\Temp\cclaUrwd.s 			page 47


 121:Application/ins_task.c ****         ins->MotionAccel_b[i] = (ins->Accel[i] - gravity_b[i]) * dt / (ins->AccelLPF + dt) + ins->M
 1812              		.loc 1 121 10 view .LVU641
 121:Application/ins_task.c ****         ins->MotionAccel_b[i] = (ins->Accel[i] - gravity_b[i]) * dt / (ins->AccelLPF + dt) + ins->M
 1813              		.loc 1 121 18 is_stmt 0 view .LVU642
 1814 0194 0023     		movs	r3, #0
 121:Application/ins_task.c ****         ins->MotionAccel_b[i] = (ins->Accel[i] - gravity_b[i]) * dt / (ins->AccelLPF + dt) + ins->M
 1815              		.loc 1 121 5 view .LVU643
 1816 0196 26E0     		b	.L47
 1817              	.LVL118:
 1818              	.L48:
 122:Application/ins_task.c ****     BodyFrameToEarthFrame(ins->MotionAccel_b, ins->MotionAccel_n, ins->q);
 1819              		.loc 1 122 9 is_stmt 1 discriminator 3 view .LVU644
 122:Application/ins_task.c ****     BodyFrameToEarthFrame(ins->MotionAccel_b, ins->MotionAccel_n, ins->q);
 1820              		.loc 1 122 44 is_stmt 0 discriminator 3 view .LVU645
 1821 0198 9A1D     		adds	r2, r3, #6
 1822 019a 04EB8202 		add	r2, r4, r2, lsl #2
 1823 019e 92ED017A 		vldr.32	s14, [r2, #4]
 122:Application/ins_task.c ****     BodyFrameToEarthFrame(ins->MotionAccel_b, ins->MotionAccel_n, ins->q);
 1824              		.loc 1 122 59 discriminator 3 view .LVU646
 1825 01a2 04AA     		add	r2, sp, #16
 1826 01a4 02EB8302 		add	r2, r2, r3, lsl #2
 1827 01a8 52ED037A 		vldr.32	s15, [r2, #-12]
 122:Application/ins_task.c ****     BodyFrameToEarthFrame(ins->MotionAccel_b, ins->MotionAccel_n, ins->q);
 1828              		.loc 1 122 48 discriminator 3 view .LVU647
 1829 01ac 37EE677A 		vsub.f32	s14, s14, s15
 122:Application/ins_task.c ****     BodyFrameToEarthFrame(ins->MotionAccel_b, ins->MotionAccel_n, ins->q);
 1830              		.loc 1 122 64 discriminator 3 view .LVU648
 1831 01b0 264A     		ldr	r2, .L50+8
 1832 01b2 D2ED007A 		vldr.32	s15, [r2]
 1833 01b6 27EE277A 		vmul.f32	s14, s14, s15
 122:Application/ins_task.c ****     BodyFrameToEarthFrame(ins->MotionAccel_b, ins->MotionAccel_n, ins->q);
 1834              		.loc 1 122 75 discriminator 3 view .LVU649
 1835 01ba D4ED106A 		vldr.32	s13, [r4, #64]
 122:Application/ins_task.c ****     BodyFrameToEarthFrame(ins->MotionAccel_b, ins->MotionAccel_n, ins->q);
 1836              		.loc 1 122 86 discriminator 3 view .LVU650
 1837 01be 77EEA67A 		vadd.f32	s15, s15, s13
 122:Application/ins_task.c ****     BodyFrameToEarthFrame(ins->MotionAccel_b, ins->MotionAccel_n, ins->q);
 1838              		.loc 1 122 69 discriminator 3 view .LVU651
 1839 01c2 87EE276A 		vdiv.f32	s12, s14, s15
 122:Application/ins_task.c ****     BodyFrameToEarthFrame(ins->MotionAccel_b, ins->MotionAccel_n, ins->q);
 1840              		.loc 1 122 112 discriminator 3 view .LVU652
 1841 01c6 03F10A02 		add	r2, r3, #10
 1842 01ca 04EB8202 		add	r2, r4, r2, lsl #2
 1843 01ce 92ED007A 		vldr.32	s14, [r2]
 122:Application/ins_task.c ****     BodyFrameToEarthFrame(ins->MotionAccel_b, ins->MotionAccel_n, ins->q);
 1844              		.loc 1 122 116 discriminator 3 view .LVU653
 1845 01d2 66EE876A 		vmul.f32	s13, s13, s14
 122:Application/ins_task.c ****     BodyFrameToEarthFrame(ins->MotionAccel_b, ins->MotionAccel_n, ins->q);
 1846              		.loc 1 122 132 discriminator 3 view .LVU654
 1847 01d6 86EEA77A 		vdiv.f32	s14, s13, s15
 122:Application/ins_task.c ****     BodyFrameToEarthFrame(ins->MotionAccel_b, ins->MotionAccel_n, ins->q);
 1848              		.loc 1 122 92 discriminator 3 view .LVU655
 1849 01da 76EE077A 		vadd.f32	s15, s12, s14
 122:Application/ins_task.c ****     BodyFrameToEarthFrame(ins->MotionAccel_b, ins->MotionAccel_n, ins->q);
 1850              		.loc 1 122 31 discriminator 3 view .LVU656
 1851 01de C2ED007A 		vstr.32	s15, [r2]
 121:Application/ins_task.c ****         ins->MotionAccel_b[i] = (ins->Accel[i] - gravity_b[i]) * dt / (ins->AccelLPF + dt) + ins->M
ARM GAS  C:\Users\86152\AppData\Local\Temp\cclaUrwd.s 			page 48


 1852              		.loc 1 121 32 is_stmt 1 discriminator 3 view .LVU657
 121:Application/ins_task.c ****         ins->MotionAccel_b[i] = (ins->Accel[i] - gravity_b[i]) * dt / (ins->AccelLPF + dt) + ins->M
 1853              		.loc 1 121 33 is_stmt 0 discriminator 3 view .LVU658
 1854 01e2 0133     		adds	r3, r3, #1
 1855              	.LVL119:
 121:Application/ins_task.c ****         ins->MotionAccel_b[i] = (ins->Accel[i] - gravity_b[i]) * dt / (ins->AccelLPF + dt) + ins->M
 1856              		.loc 1 121 33 discriminator 3 view .LVU659
 1857 01e4 DBB2     		uxtb	r3, r3
 1858              	.LVL120:
 1859              	.L47:
 121:Application/ins_task.c ****         ins->MotionAccel_b[i] = (ins->Accel[i] - gravity_b[i]) * dt / (ins->AccelLPF + dt) + ins->M
 1860              		.loc 1 121 25 is_stmt 1 discriminator 1 view .LVU660
 121:Application/ins_task.c ****         ins->MotionAccel_b[i] = (ins->Accel[i] - gravity_b[i]) * dt / (ins->AccelLPF + dt) + ins->M
 1861              		.loc 1 121 5 is_stmt 0 discriminator 1 view .LVU661
 1862 01e6 022B     		cmp	r3, #2
 1863 01e8 D6D9     		bls	.L48
 1864              	.LBE9:
 123:Application/ins_task.c **** 
 1865              		.loc 1 123 5 is_stmt 1 view .LVU662
 123:Application/ins_task.c **** 
 1866              		.loc 1 123 50 is_stmt 0 view .LVU663
 1867 01ea 04F13408 		add	r8, r4, #52
 123:Application/ins_task.c **** 
 1868              		.loc 1 123 5 view .LVU664
 1869 01ee 2246     		mov	r2, r4
 1870 01f0 4146     		mov	r1, r8
 1871 01f2 04F12800 		add	r0, r4, #40
 1872 01f6 FFF7FEFF 		bl	BodyFrameToEarthFrame
 1873              	.LVL121:
 125:Application/ins_task.c ****     memcpy(ins->Accel, QEKF_INS.Accel, sizeof(QEKF_INS.Accel));
 1874              		.loc 1 125 5 is_stmt 1 view .LVU665
 1875 01fa 1C4F     		ldr	r7, .L50+40
 1876 01fc 3B46     		mov	r3, r7
 1877 01fe 07CB     		ldmia	r3!, {r0, r1, r2}
 1878 0200 2061     		str	r0, [r4, #16]	@ unaligned
 1879 0202 7160     		str	r1, [r6, #4]	@ unaligned
 1880 0204 B260     		str	r2, [r6, #8]	@ unaligned
 126:Application/ins_task.c ****     memcpy(ins->q, QEKF_INS.q, sizeof(QEKF_INS.q));
 1881              		.loc 1 126 5 view .LVU666
 1882 0206 07CB     		ldmia	r3!, {r0, r1, r2}
 1883 0208 E061     		str	r0, [r4, #28]	@ unaligned
 1884 020a 6960     		str	r1, [r5, #4]	@ unaligned
 1885 020c AA60     		str	r2, [r5, #8]	@ unaligned
 127:Application/ins_task.c ****     ins->Yaw = QEKF_INS.Yaw;
 1886              		.loc 1 127 5 view .LVU667
 1887 020e A7F11C05 		sub	r5, r7, #28
 1888 0212 0FCD     		ldmia	r5!, {r0, r1, r2, r3}
 1889 0214 2060     		str	r0, [r4]	@ unaligned
 1890 0216 6160     		str	r1, [r4, #4]	@ unaligned
 1891 0218 A260     		str	r2, [r4, #8]	@ unaligned
 1892 021a E360     		str	r3, [r4, #12]	@ unaligned
 128:Application/ins_task.c ****     ins->Pitch = QEKF_INS.Pitch;
 1893              		.loc 1 128 5 view .LVU668
 128:Application/ins_task.c ****     ins->Pitch = QEKF_INS.Pitch;
 1894              		.loc 1 128 24 is_stmt 0 view .LVU669
 1895 021c FB6B     		ldr	r3, [r7, #60]	@ float
 128:Application/ins_task.c ****     ins->Pitch = QEKF_INS.Pitch;
ARM GAS  C:\Users\86152\AppData\Local\Temp\cclaUrwd.s 			page 49


 1896              		.loc 1 128 14 view .LVU670
 1897 021e A367     		str	r3, [r4, #120]	@ float
 129:Application/ins_task.c ****     // ins->Roll = QEKF_INS.Roll;
 1898              		.loc 1 129 5 is_stmt 1 view .LVU671
 129:Application/ins_task.c ****     // ins->Roll = QEKF_INS.Roll;
 1899              		.loc 1 129 26 is_stmt 0 view .LVU672
 1900 0220 BB6B     		ldr	r3, [r7, #56]	@ float
 129:Application/ins_task.c ****     // ins->Roll = QEKF_INS.Roll;
 1901              		.loc 1 129 16 view .LVU673
 1902 0222 6367     		str	r3, [r4, #116]	@ float
 131:Application/ins_task.c **** 
 1903              		.loc 1 131 5 is_stmt 1 view .LVU674
 131:Application/ins_task.c **** 
 1904              		.loc 1 131 34 is_stmt 0 view .LVU675
 1905 0224 3B6C     		ldr	r3, [r7, #64]	@ float
 131:Application/ins_task.c **** 
 1906              		.loc 1 131 24 view .LVU676
 1907 0226 E367     		str	r3, [r4, #124]	@ float
 133:Application/ins_task.c **** 
 1908              		.loc 1 133 5 is_stmt 1 view .LVU677
 1909 0228 FFF7FEFF 		bl	HAL_GetTick
 1910              	.LVL122:
 1911 022c 0346     		mov	r3, r0
 1912 022e 4246     		mov	r2, r8
 1913 0230 2146     		mov	r1, r4
 1914 0232 0F48     		ldr	r0, .L50+44
 1915 0234 FFF7FEFF 		bl	InsertQuaternionFrame
 1916              	.LVL123:
 136:Application/ins_task.c **** 
 1917              		.loc 1 136 1 is_stmt 0 view .LVU678
 1918 0238 04B0     		add	sp, sp, #16
 1919              	.LCFI19:
 1920              		.cfi_def_cfa_offset 32
 1921              		@ sp needed
 1922 023a BDEC028B 		vldm	sp!, {d8}
 1923              	.LCFI20:
 1924              		.cfi_restore 80
 1925              		.cfi_restore 81
 1926              		.cfi_def_cfa_offset 24
 1927 023e BDE8F081 		pop	{r4, r5, r6, r7, r8, pc}
 1928              	.LVL124:
 1929              	.L51:
 136:Application/ins_task.c **** 
 1930              		.loc 1 136 1 view .LVU679
 1931 0242 00BF     		.align	2
 1932              	.L50:
 1933 0244 00003443 		.word	1127481344
 1934 0248 DB0F4940 		.word	1078530011
 1935 024c 00000000 		.word	.LANCHOR13
 1936 0250 00000000 		.word	QEKF_INS
 1937 0254 E12E6542 		.word	1113927393
 1938 0258 00000000 		.word	.LANCHOR14
 1939 025c 00000000 		.word	.LANCHOR15
 1940 0260 00000000 		.word	.LANCHOR16
 1941 0264 00000000 		.word	.LANCHOR17
 1942 0268 00000000 		.word	.LANCHOR18
 1943 026c 6C010000 		.word	QEKF_INS+364
ARM GAS  C:\Users\86152\AppData\Local\Temp\cclaUrwd.s 			page 50


 1944 0270 00000000 		.word	.LANCHOR19
 1945              		.cfi_endproc
 1946              	.LFE173:
 1948              		.section	.text.IMU_Temperature_Ctrl,"ax",%progbits
 1949              		.align	1
 1950              		.global	IMU_Temperature_Ctrl
 1951              		.syntax unified
 1952              		.thumb
 1953              		.thumb_func
 1955              	IMU_Temperature_Ctrl:
 1956              	.LFB182:
 320:Application/ins_task.c **** 
 321:Application/ins_task.c **** void IMU_Temperature_Ctrl(void)
 322:Application/ins_task.c **** {
 1957              		.loc 1 322 1 is_stmt 1 view -0
 1958              		.cfi_startproc
 1959              		@ args = 0, pretend = 0, frame = 0
 1960              		@ frame_needed = 0, uses_anonymous_args = 0
 1961 0000 10B5     		push	{r4, lr}
 1962              	.LCFI21:
 1963              		.cfi_def_cfa_offset 8
 1964              		.cfi_offset 4, -8
 1965              		.cfi_offset 14, -4
 1966 0002 2DED028B 		vpush.64	{d8}
 1967              	.LCFI22:
 1968              		.cfi_def_cfa_offset 16
 1969              		.cfi_offset 80, -16
 1970              		.cfi_offset 81, -12
 323:Application/ins_task.c ****     PID_Calculate(&TempCtrl, BMI088.Temperature, 40 + 0 * float_constrain(BMI088.TempWhenCali, 37, 
 1971              		.loc 1 323 5 view .LVU681
 1972 0006 194B     		ldr	r3, .L54
 1973 0008 D3ED078A 		vldr.32	s17, [r3, #28]
 1974              		.loc 1 323 59 is_stmt 0 view .LVU682
 1975 000c 9FED181A 		vldr.32	s2, .L54+4
 1976 0010 DFED180A 		vldr.32	s1, .L54+8
 1977 0014 93ED060A 		vldr.32	s0, [r3, #24]
 1978 0018 FFF7FEFF 		bl	float_constrain
 1979              	.LVL125:
 1980              		.loc 1 323 57 view .LVU683
 1981 001c 9FED168A 		vldr.32	s16, .L54+12
 1982 0020 20EE080A 		vmul.f32	s0, s0, s16
 1983              		.loc 1 323 5 view .LVU684
 1984 0024 154C     		ldr	r4, .L54+16
 1985 0026 DFED160A 		vldr.32	s1, .L54+20
 1986 002a 70EE200A 		vadd.f32	s1, s0, s1
 1987 002e B0EE680A 		vmov.f32	s0, s17
 1988 0032 2046     		mov	r0, r4
 1989 0034 FFF7FEFF 		bl	PID_Calculate
 1990              	.LVL126:
 324:Application/ins_task.c **** 
 325:Application/ins_task.c ****     TIM_Set_PWM(&htim10, TIM_CHANNEL_1, float_constrain(float_rounding(TempCtrl.Output), 0, UINT32_
 1991              		.loc 1 325 5 is_stmt 1 view .LVU685
 1992              		.loc 1 325 57 is_stmt 0 view .LVU686
 1993 0038 94ED0D0A 		vldr.32	s0, [r4, #52]
 1994 003c FFF7FEFF 		bl	float_rounding
 1995              	.LVL127:
 1996 0040 00EE100A 		vmov	s0, r0	@ int
ARM GAS  C:\Users\86152\AppData\Local\Temp\cclaUrwd.s 			page 51


 1997              		.loc 1 325 41 view .LVU687
 1998 0044 9FED0F1A 		vldr.32	s2, .L54+24
 1999 0048 F0EE480A 		vmov.f32	s1, s16
 2000 004c B8EEC00A 		vcvt.f32.s32	s0, s0
 2001 0050 FFF7FEFF 		bl	float_constrain
 2002              	.LVL128:
 2003              		.loc 1 325 5 view .LVU688
 2004 0054 BCEEC00A 		vcvt.u32.f32	s0, s0
 2005 0058 10EE103A 		vmov	r3, s0	@ int
 2006 005c 9AB2     		uxth	r2, r3
 2007 005e 0021     		movs	r1, #0
 2008 0060 0948     		ldr	r0, .L54+28
 2009 0062 FFF7FEFF 		bl	TIM_Set_PWM
 2010              	.LVL129:
 326:Application/ins_task.c **** }
 2011              		.loc 1 326 1 view .LVU689
 2012 0066 BDEC028B 		vldm	sp!, {d8}
 2013              	.LCFI23:
 2014              		.cfi_restore 80
 2015              		.cfi_restore 81
 2016              		.cfi_def_cfa_offset 8
 2017 006a 10BD     		pop	{r4, pc}
 2018              	.L55:
 2019              		.align	2
 2020              	.L54:
 2021 006c 00000000 		.word	BMI088
 2022 0070 00002842 		.word	1109917696
 2023 0074 00001442 		.word	1108606976
 2024 0078 00000000 		.word	0
 2025 007c 00000000 		.word	.LANCHOR12
 2026 0080 00002042 		.word	1109393408
 2027 0084 0000804F 		.word	1333788672
 2028 0088 00000000 		.word	htim10
 2029              		.cfi_endproc
 2030              	.LFE182:
 2032              		.section	.text.INS_Task,"ax",%progbits
 2033              		.align	1
 2034              		.global	INS_Task
 2035              		.syntax unified
 2036              		.thumb
 2037              		.thumb_func
 2039              	INS_Task:
 2040              	.LFB172:
  51:Application/ins_task.c ****     static uint32_t count = 0;
 2041              		.loc 1 51 1 is_stmt 1 view -0
 2042              		.cfi_startproc
 2043              		@ args = 0, pretend = 0, frame = 16
 2044              		@ frame_needed = 0, uses_anonymous_args = 0
 2045 0000 10B5     		push	{r4, lr}
 2046              	.LCFI24:
 2047              		.cfi_def_cfa_offset 8
 2048              		.cfi_offset 4, -8
 2049              		.cfi_offset 14, -4
 2050 0002 84B0     		sub	sp, sp, #16
 2051              	.LCFI25:
 2052              		.cfi_def_cfa_offset 24
  52:Application/ins_task.c ****     const float gravity[3] = {0, 0, 9.81f};
ARM GAS  C:\Users\86152\AppData\Local\Temp\cclaUrwd.s 			page 52


 2053              		.loc 1 52 5 view .LVU691
  53:Application/ins_task.c ****     dt = DWT_GetDeltaT(&INS_DWT_Count);
 2054              		.loc 1 53 5 view .LVU692
  53:Application/ins_task.c ****     dt = DWT_GetDeltaT(&INS_DWT_Count);
 2055              		.loc 1 53 17 is_stmt 0 view .LVU693
 2056 0004 0023     		movs	r3, #0
 2057 0006 0193     		str	r3, [sp, #4]	@ float
 2058 0008 0293     		str	r3, [sp, #8]	@ float
 2059 000a 304B     		ldr	r3, .L64
 2060 000c 0393     		str	r3, [sp, #12]	@ float
  54:Application/ins_task.c ****     t += dt;
 2061              		.loc 1 54 5 is_stmt 1 view .LVU694
  54:Application/ins_task.c ****     t += dt;
 2062              		.loc 1 54 10 is_stmt 0 view .LVU695
 2063 000e 3048     		ldr	r0, .L64+4
 2064 0010 FFF7FEFF 		bl	DWT_GetDeltaT
 2065              	.LVL130:
  54:Application/ins_task.c ****     t += dt;
 2066              		.loc 1 54 8 view .LVU696
 2067 0014 2F4B     		ldr	r3, .L64+8
 2068 0016 83ED000A 		vstr.32	s0, [r3]
  55:Application/ins_task.c **** 
 2069              		.loc 1 55 5 is_stmt 1 view .LVU697
  55:Application/ins_task.c **** 
 2070              		.loc 1 55 7 is_stmt 0 view .LVU698
 2071 001a 2F4B     		ldr	r3, .L64+12
 2072 001c D3ED007A 		vldr.32	s15, [r3]
 2073 0020 37EE800A 		vadd.f32	s0, s15, s0
 2074 0024 83ED000A 		vstr.32	s0, [r3]
  58:Application/ins_task.c ****     {
 2075              		.loc 1 58 5 is_stmt 1 view .LVU699
  60:Application/ins_task.c ****         // INS.Accel[X] = -BMI088.Accel[Y];
 2076              		.loc 1 60 9 view .LVU700
 2077 0028 2C48     		ldr	r0, .L64+16
 2078 002a FFF7FEFF 		bl	BMI088_Read
 2079              	.LVL131:
  68:Application/ins_task.c ****             exo_controller.xzy_shoulder.dm_imu.send_reg = 0x02; // 0x01:accel, 0x02:gyro, 0x03:eule
 2080              		.loc 1 68 9 view .LVU701
  68:Application/ins_task.c ****             exo_controller.xzy_shoulder.dm_imu.send_reg = 0x02; // 0x01:accel, 0x02:gyro, 0x03:eule
 2081              		.loc 1 68 47 is_stmt 0 view .LVU702
 2082 002e 2C4B     		ldr	r3, .L64+20
 2083 0030 93F82030 		ldrb	r3, [r3, #32]	@ zero_extendqisi2
  68:Application/ins_task.c ****             exo_controller.xzy_shoulder.dm_imu.send_reg = 0x02; // 0x01:accel, 0x02:gyro, 0x03:eule
 2084              		.loc 1 68 12 view .LVU703
 2085 0034 012B     		cmp	r3, #1
 2086 0036 1BD0     		beq	.L61
  70:Application/ins_task.c ****             exo_controller.xzy_shoulder.dm_imu.send_reg = 0x01;
 2087              		.loc 1 70 14 is_stmt 1 view .LVU704
  70:Application/ins_task.c ****             exo_controller.xzy_shoulder.dm_imu.send_reg = 0x01;
 2088              		.loc 1 70 17 is_stmt 0 view .LVU705
 2089 0038 022B     		cmp	r3, #2
 2090 003a 1ED0     		beq	.L62
 2091              	.L58:
  72:Application/ins_task.c ****         get_INS_from_imu(&exo_controller.xzy_shoulder.INS_shoulder,
 2092              		.loc 1 72 9 is_stmt 1 view .LVU706
 2093 003c 284C     		ldr	r4, .L64+20
 2094 003e 94F82020 		ldrb	r2, [r4, #32]	@ zero_extendqisi2
ARM GAS  C:\Users\86152\AppData\Local\Temp\cclaUrwd.s 			page 53


 2095 0042 0121     		movs	r1, #1
 2096 0044 2748     		ldr	r0, .L64+24
 2097 0046 FFF7FEFF 		bl	IMU_RequestData
 2098              	.LVL132:
  73:Application/ins_task.c ****                          exo_controller.xzy_shoulder.dm_imu.accel, exo_controller.xzy_shoulder.dm_i
 2099              		.loc 1 73 9 view .LVU707
 2100 004a 04F13002 		add	r2, r4, #48
 2101 004e 04F13C01 		add	r1, r4, #60
 2102 0052 04F17C00 		add	r0, r4, #124
 2103 0056 FFF7FEFF 		bl	get_INS_from_imu
 2104              	.LVL133:
  78:Application/ins_task.c ****     {
 2105              		.loc 1 78 5 view .LVU708
  78:Application/ins_task.c ****     {
 2106              		.loc 1 78 16 is_stmt 0 view .LVU709
 2107 005a 234B     		ldr	r3, .L64+28
 2108 005c 1B68     		ldr	r3, [r3]
  78:Application/ins_task.c ****     {
 2109              		.loc 1 78 8 view .LVU710
 2110 005e 13F0010F 		tst	r3, #1
 2111 0062 0FD0     		beq	.L63
 2112              	.L59:
  86:Application/ins_task.c ****     {
 2113              		.loc 1 86 5 is_stmt 1 view .LVU711
  86:Application/ins_task.c ****     {
 2114              		.loc 1 86 16 is_stmt 0 view .LVU712
 2115 0064 204A     		ldr	r2, .L64+28
 2116 0066 1368     		ldr	r3, [r2]
  89:Application/ins_task.c **** 
 2117              		.loc 1 89 5 is_stmt 1 view .LVU713
  91:Application/ins_task.c **** }
 2118              		.loc 1 91 5 view .LVU714
  91:Application/ins_task.c **** }
 2119              		.loc 1 91 10 is_stmt 0 view .LVU715
 2120 0068 0133     		adds	r3, r3, #1
 2121 006a 1360     		str	r3, [r2]
  92:Application/ins_task.c **** 
 2122              		.loc 1 92 1 view .LVU716
 2123 006c 04B0     		add	sp, sp, #16
 2124              	.LCFI26:
 2125              		.cfi_remember_state
 2126              		.cfi_def_cfa_offset 8
 2127              		@ sp needed
 2128 006e 10BD     		pop	{r4, pc}
 2129              	.L61:
 2130              	.LCFI27:
 2131              		.cfi_restore_state
  69:Application/ins_task.c ****         else if (exo_controller.xzy_shoulder.dm_imu.send_reg == 0x02)
 2132              		.loc 1 69 13 is_stmt 1 view .LVU717
  69:Application/ins_task.c ****         else if (exo_controller.xzy_shoulder.dm_imu.send_reg == 0x02)
 2133              		.loc 1 69 57 is_stmt 0 view .LVU718
 2134 0070 1B4B     		ldr	r3, .L64+20
 2135 0072 0222     		movs	r2, #2
 2136 0074 83F82020 		strb	r2, [r3, #32]
 2137 0078 E0E7     		b	.L58
 2138              	.L62:
  71:Application/ins_task.c ****         IMU_RequestData(&hcan2, 0x01, exo_controller.xzy_shoulder.dm_imu.send_reg);
ARM GAS  C:\Users\86152\AppData\Local\Temp\cclaUrwd.s 			page 54


 2139              		.loc 1 71 13 is_stmt 1 view .LVU719
  71:Application/ins_task.c ****         IMU_RequestData(&hcan2, 0x01, exo_controller.xzy_shoulder.dm_imu.send_reg);
 2140              		.loc 1 71 57 is_stmt 0 view .LVU720
 2141 007a 194B     		ldr	r3, .L64+20
 2142 007c 0122     		movs	r2, #1
 2143 007e 83F82020 		strb	r2, [r3, #32]
 2144 0082 DBE7     		b	.L58
 2145              	.L63:
  81:Application/ins_task.c ****         if (GlobalDebugMode == IMU_HEAT_DEBUG)
 2146              		.loc 1 81 9 is_stmt 1 view .LVU721
 2147 0084 FFF7FEFF 		bl	IMU_Temperature_Ctrl
 2148              	.LVL134:
  82:Application/ins_task.c ****             Serial_Debug(&huart1, 1, RefTemp, BMI088.Temperature, TempCtrl.Output / 1000.0f, TempCt
 2149              		.loc 1 82 9 view .LVU722
  82:Application/ins_task.c ****             Serial_Debug(&huart1, 1, RefTemp, BMI088.Temperature, TempCtrl.Output / 1000.0f, TempCt
 2150              		.loc 1 82 29 is_stmt 0 view .LVU723
 2151 0088 184B     		ldr	r3, .L64+32
 2152 008a 1B78     		ldrb	r3, [r3]	@ zero_extendqisi2
  82:Application/ins_task.c ****             Serial_Debug(&huart1, 1, RefTemp, BMI088.Temperature, TempCtrl.Output / 1000.0f, TempCt
 2153              		.loc 1 82 12 view .LVU724
 2154 008c 052B     		cmp	r3, #5
 2155 008e E9D1     		bne	.L59
  83:Application/ins_task.c ****     }
 2156              		.loc 1 83 13 is_stmt 1 view .LVU725
  83:Application/ins_task.c ****     }
 2157              		.loc 1 83 75 is_stmt 0 view .LVU726
 2158 0090 174B     		ldr	r3, .L64+36
 2159 0092 93ED0D1A 		vldr.32	s2, [r3, #52]
  83:Application/ins_task.c ****     }
 2160              		.loc 1 83 102 view .LVU727
 2161 0096 D3ED091A 		vldr.32	s3, [r3, #36]
  83:Application/ins_task.c ****     }
 2162              		.loc 1 83 127 view .LVU728
 2163 009a 93ED0A2A 		vldr.32	s4, [r3, #40]
  83:Application/ins_task.c ****     }
 2164              		.loc 1 83 152 view .LVU729
 2165 009e D3ED0B2A 		vldr.32	s5, [r3, #44]
  83:Application/ins_task.c ****     }
 2166              		.loc 1 83 13 view .LVU730
 2167 00a2 DFED147A 		vldr.32	s15, .L64+40
 2168 00a6 C2EEA72A 		vdiv.f32	s5, s5, s15
 2169 00aa 82EE272A 		vdiv.f32	s4, s4, s15
 2170 00ae C1EEA71A 		vdiv.f32	s3, s3, s15
 2171 00b2 81EE271A 		vdiv.f32	s2, s2, s15
 2172 00b6 094B     		ldr	r3, .L64+16
 2173 00b8 D3ED070A 		vldr.32	s1, [r3, #28]
 2174 00bc 0E4B     		ldr	r3, .L64+44
 2175 00be 93ED000A 		vldr.32	s0, [r3]
 2176 00c2 0121     		movs	r1, #1
 2177 00c4 0D48     		ldr	r0, .L64+48
 2178 00c6 FFF7FEFF 		bl	Serial_Debug
 2179              	.LVL135:
 2180 00ca CBE7     		b	.L59
 2181              	.L65:
 2182              		.align	2
 2183              	.L64:
 2184 00cc C3F51C41 		.word	1092416963
ARM GAS  C:\Users\86152\AppData\Local\Temp\cclaUrwd.s 			page 55


 2185 00d0 00000000 		.word	.LANCHOR20
 2186 00d4 00000000 		.word	.LANCHOR13
 2187 00d8 00000000 		.word	.LANCHOR21
 2188 00dc 00000000 		.word	BMI088
 2189 00e0 00000000 		.word	exo_controller
 2190 00e4 00000000 		.word	hcan2
 2191 00e8 00000000 		.word	.LANCHOR22
 2192 00ec 00000000 		.word	GlobalDebugMode
 2193 00f0 00000000 		.word	.LANCHOR12
 2194 00f4 00007A44 		.word	1148846080
 2195 00f8 00000000 		.word	.LANCHOR23
 2196 00fc 00000000 		.word	huart1
 2197              		.cfi_endproc
 2198              	.LFE172:
 2200              		.global	RefTemp
 2201              		.global	INS_DWT_Count
 2202              		.global	zb
 2203              		.global	yb
 2204              		.global	xb
 2205              		.global	gravity
 2206              		.global	TempCtrl
 2207              		.global	QuaternionBuffer
 2208              		.global	INS
 2209              		.section	.bss.INS,"aw",%nobits
 2210              		.align	2
 2211              		.set	.LANCHOR17,. + 0
 2214              	INS:
 2215 0000 00000000 		.space	168
 2215      00000000 
 2215      00000000 
 2215      00000000 
 2215      00000000 
 2216              		.section	.bss.INS_DWT_Count,"aw",%nobits
 2217              		.align	2
 2218              		.set	.LANCHOR20,. + 0
 2221              	INS_DWT_Count:
 2222 0000 00000000 		.space	4
 2223              		.section	.bss.QuaternionBuffer,"aw",%nobits
 2224              		.align	2
 2225              		.set	.LANCHOR19,. + 0
 2228              	QuaternionBuffer:
 2229 0000 00000000 		.space	1604
 2229      00000000 
 2229      00000000 
 2229      00000000 
 2229      00000000 
 2230              		.section	.bss.TempCtrl,"aw",%nobits
 2231              		.align	3
 2232              		.set	.LANCHOR12,. + 0
 2235              	TempCtrl:
 2236 0000 00000000 		.space	184
 2236      00000000 
 2236      00000000 
 2236      00000000 
 2236      00000000 
 2237              		.section	.bss.c_11.8,"aw",%nobits
 2238              		.align	2
ARM GAS  C:\Users\86152\AppData\Local\Temp\cclaUrwd.s 			page 56


 2239              		.set	.LANCHOR3,. + 0
 2242              	c_11.8:
 2243 0000 00000000 		.space	4
 2244              		.section	.bss.c_12.7,"aw",%nobits
 2245              		.align	2
 2246              		.set	.LANCHOR4,. + 0
 2249              	c_12.7:
 2250 0000 00000000 		.space	4
 2251              		.section	.bss.c_13.6,"aw",%nobits
 2252              		.align	2
 2253              		.set	.LANCHOR5,. + 0
 2256              	c_13.6:
 2257 0000 00000000 		.space	4
 2258              		.section	.bss.c_21.5,"aw",%nobits
 2259              		.align	2
 2260              		.set	.LANCHOR6,. + 0
 2263              	c_21.5:
 2264 0000 00000000 		.space	4
 2265              		.section	.bss.c_22.4,"aw",%nobits
 2266              		.align	2
 2267              		.set	.LANCHOR7,. + 0
 2270              	c_22.4:
 2271 0000 00000000 		.space	4
 2272              		.section	.bss.c_23.3,"aw",%nobits
 2273              		.align	2
 2274              		.set	.LANCHOR8,. + 0
 2277              	c_23.3:
 2278 0000 00000000 		.space	4
 2279              		.section	.bss.c_31.2,"aw",%nobits
 2280              		.align	2
 2281              		.set	.LANCHOR9,. + 0
 2284              	c_31.2:
 2285 0000 00000000 		.space	4
 2286              		.section	.bss.c_32.1,"aw",%nobits
 2287              		.align	2
 2288              		.set	.LANCHOR10,. + 0
 2291              	c_32.1:
 2292 0000 00000000 		.space	4
 2293              		.section	.bss.c_33.0,"aw",%nobits
 2294              		.align	2
 2295              		.set	.LANCHOR11,. + 0
 2298              	c_33.0:
 2299 0000 00000000 		.space	4
 2300              		.section	.bss.count.12,"aw",%nobits
 2301              		.align	2
 2302              		.set	.LANCHOR22,. + 0
 2305              	count.12:
 2306 0000 00000000 		.space	4
 2307              		.section	.bss.dt,"aw",%nobits
 2308              		.align	2
 2309              		.set	.LANCHOR13,. + 0
 2312              	dt:
 2313 0000 00000000 		.space	4
 2314              		.section	.bss.lastPitchOffset.10,"aw",%nobits
 2315              		.align	2
 2316              		.set	.LANCHOR1,. + 0
 2319              	lastPitchOffset.10:
ARM GAS  C:\Users\86152\AppData\Local\Temp\cclaUrwd.s 			page 57


 2320 0000 00000000 		.space	4
 2321              		.section	.bss.lastRollOffset.9,"aw",%nobits
 2322              		.align	2
 2323              		.set	.LANCHOR2,. + 0
 2326              	lastRollOffset.9:
 2327 0000 00000000 		.space	4
 2328              		.section	.bss.lastYawOffset.11,"aw",%nobits
 2329              		.align	2
 2330              		.set	.LANCHOR0,. + 0
 2333              	lastYawOffset.11:
 2334 0000 00000000 		.space	4
 2335              		.section	.bss.t,"aw",%nobits
 2336              		.align	2
 2337              		.set	.LANCHOR21,. + 0
 2340              	t:
 2341 0000 00000000 		.space	4
 2342              		.section	.data.RefTemp,"aw"
 2343              		.align	2
 2344              		.set	.LANCHOR23,. + 0
 2347              	RefTemp:
 2348 0000 00002042 		.word	1109393408
 2349              		.section	.rodata.gravity,"a"
 2350              		.align	2
 2351              		.set	.LANCHOR18,. + 0
 2354              	gravity:
 2355 0000 00000000 		.word	0
 2356 0004 00000000 		.word	0
 2357 0008 C3F51C41 		.word	1092416963
 2358              		.section	.rodata.xb,"a"
 2359              		.align	2
 2360              		.set	.LANCHOR14,. + 0
 2363              	xb:
 2364 0000 0000803F 		.word	1065353216
 2365 0004 00000000 		.word	0
 2366 0008 00000000 		.word	0
 2367              		.section	.rodata.yb,"a"
 2368              		.align	2
 2369              		.set	.LANCHOR15,. + 0
 2372              	yb:
 2373 0000 00000000 		.word	0
 2374 0004 0000803F 		.word	1065353216
 2375 0008 00000000 		.word	0
 2376              		.section	.rodata.zb,"a"
 2377              		.align	2
 2378              		.set	.LANCHOR16,. + 0
 2381              	zb:
 2382 0000 00000000 		.word	0
 2383 0004 00000000 		.word	0
 2384 0008 0000803F 		.word	1065353216
 2385              		.text
 2386              	.Letext0:
 2387              		.file 2 "c:\\program files (x86)\\gnu arm embedded toolchain\\10 2021.10\\arm-none-eabi\\include\\
 2388              		.file 3 "c:\\program files (x86)\\gnu arm embedded toolchain\\10 2021.10\\arm-none-eabi\\include\\
 2389              		.file 4 "Drivers/CMSIS/Device/ST/STM32F4xx/Include/stm32f407xx.h"
 2390              		.file 5 "Drivers/CMSIS/Device/ST/STM32F4xx/Include/stm32f4xx.h"
 2391              		.file 6 "Drivers/STM32F4xx_HAL_Driver/Inc/stm32f4xx_hal_def.h"
 2392              		.file 7 "Drivers/STM32F4xx_HAL_Driver/Inc/stm32f4xx_hal_dma.h"
ARM GAS  C:\Users\86152\AppData\Local\Temp\cclaUrwd.s 			page 58


 2393              		.file 8 "Drivers/STM32F4xx_HAL_Driver/Inc/stm32f4xx_hal_can.h"
 2394              		.file 9 "Drivers/STM32F4xx_HAL_Driver/Inc/stm32f4xx_hal_tim.h"
 2395              		.file 10 "Drivers/STM32F4xx_HAL_Driver/Inc/stm32f4xx_hal_uart.h"
 2396              		.file 11 "Core/Inc/can.h"
 2397              		.file 12 "Core/Inc/tim.h"
 2398              		.file 13 "Core/Inc/usart.h"
 2399              		.file 14 "Components/Devices/BMI088driver.h"
 2400              		.file 15 "Components/user_lib.h"
 2401              		.file 16 "Components/Algorithm/Include/arm_math.h"
 2402              		.file 17 "Components/Controller/controller.h"
 2403              		.file 18 "Application/motor.h"
 2404              		.file 19 "Application/ins_task.h"
 2405              		.file 20 "Components/Devices/dm_imu.h"
 2406              		.file 21 "Components/kalman_filter.h"
 2407              		.file 22 "Application/SSM_kinematics.h"
 2408              		.file 23 "Application/exo_dynamics.h"
 2409              		.file 24 "Application/exo_controller.h"
 2410              		.file 25 "Components/Algorithm/QuaternionEKF.h"
 2411              		.file 26 "Bsp/bsp_PWM.h"
 2412              		.file 27 "c:\\program files (x86)\\gnu arm embedded toolchain\\10 2021.10\\arm-none-eabi\\include\
 2413              		.file 28 "Drivers/STM32F4xx_HAL_Driver/Inc/stm32f4xx_hal.h"
 2414              		.file 29 "Bsp/bsp_dwt.h"
 2415              		.file 30 "Application/SerialDebug.h"
ARM GAS  C:\Users\86152\AppData\Local\Temp\cclaUrwd.s 			page 59


DEFINED SYMBOLS
                            *ABS*:00000000 ins_task.c
C:\Users\86152\AppData\Local\Temp\cclaUrwd.s:20     .text.IMU_Param_Correction:00000000 $t
C:\Users\86152\AppData\Local\Temp\cclaUrwd.s:25     .text.IMU_Param_Correction:00000000 IMU_Param_Correction
C:\Users\86152\AppData\Local\Temp\cclaUrwd.s:457    .text.IMU_Param_Correction:00000290 $d
C:\Users\86152\AppData\Local\Temp\cclaUrwd.s:475    .text.INS_Init:00000000 $t
C:\Users\86152\AppData\Local\Temp\cclaUrwd.s:481    .text.INS_Init:00000000 INS_Init
C:\Users\86152\AppData\Local\Temp\cclaUrwd.s:575    .text.INS_Init:00000098 $d
C:\Users\86152\AppData\Local\Temp\cclaUrwd.s:590    .text.QuaternionUpdate:00000000 $t
C:\Users\86152\AppData\Local\Temp\cclaUrwd.s:596    .text.QuaternionUpdate:00000000 QuaternionUpdate
C:\Users\86152\AppData\Local\Temp\cclaUrwd.s:700    .text.QuaternionToEularAngle:00000000 $t
C:\Users\86152\AppData\Local\Temp\cclaUrwd.s:706    .text.QuaternionToEularAngle:00000000 QuaternionToEularAngle
C:\Users\86152\AppData\Local\Temp\cclaUrwd.s:833    .text.QuaternionToEularAngle:000000c8 $d
C:\Users\86152\AppData\Local\Temp\cclaUrwd.s:838    .text.EularAngleToQuaternion:00000000 $t
C:\Users\86152\AppData\Local\Temp\cclaUrwd.s:844    .text.EularAngleToQuaternion:00000000 EularAngleToQuaternion
C:\Users\86152\AppData\Local\Temp\cclaUrwd.s:1010   .text.EularAngleToQuaternion:000000c4 $d
C:\Users\86152\AppData\Local\Temp\cclaUrwd.s:1015   .text.InsertQuaternionFrame:00000000 $t
C:\Users\86152\AppData\Local\Temp\cclaUrwd.s:1021   .text.InsertQuaternionFrame:00000000 InsertQuaternionFrame
C:\Users\86152\AppData\Local\Temp\cclaUrwd.s:1128   .text.FindTimeMatchFrame:00000000 $t
C:\Users\86152\AppData\Local\Temp\cclaUrwd.s:1134   .text.FindTimeMatchFrame:00000000 FindTimeMatchFrame
C:\Users\86152\AppData\Local\Temp\cclaUrwd.s:1235   .text.BodyFrameToEarthFrame:00000000 $t
C:\Users\86152\AppData\Local\Temp\cclaUrwd.s:1241   .text.BodyFrameToEarthFrame:00000000 BodyFrameToEarthFrame
C:\Users\86152\AppData\Local\Temp\cclaUrwd.s:1403   .text.EarthFrameToBodyFrame:00000000 $t
C:\Users\86152\AppData\Local\Temp\cclaUrwd.s:1409   .text.EarthFrameToBodyFrame:00000000 EarthFrameToBodyFrame
C:\Users\86152\AppData\Local\Temp\cclaUrwd.s:1571   .text.get_INS_from_imu:00000000 $t
C:\Users\86152\AppData\Local\Temp\cclaUrwd.s:1576   .text.get_INS_from_imu:00000000 get_INS_from_imu
C:\Users\86152\AppData\Local\Temp\cclaUrwd.s:1933   .text.get_INS_from_imu:00000244 $d
C:\Users\86152\AppData\Local\Temp\cclaUrwd.s:1949   .text.IMU_Temperature_Ctrl:00000000 $t
C:\Users\86152\AppData\Local\Temp\cclaUrwd.s:1955   .text.IMU_Temperature_Ctrl:00000000 IMU_Temperature_Ctrl
C:\Users\86152\AppData\Local\Temp\cclaUrwd.s:2021   .text.IMU_Temperature_Ctrl:0000006c $d
C:\Users\86152\AppData\Local\Temp\cclaUrwd.s:2033   .text.INS_Task:00000000 $t
C:\Users\86152\AppData\Local\Temp\cclaUrwd.s:2039   .text.INS_Task:00000000 INS_Task
C:\Users\86152\AppData\Local\Temp\cclaUrwd.s:2184   .text.INS_Task:000000cc $d
C:\Users\86152\AppData\Local\Temp\cclaUrwd.s:2347   .data.RefTemp:00000000 RefTemp
C:\Users\86152\AppData\Local\Temp\cclaUrwd.s:2221   .bss.INS_DWT_Count:00000000 INS_DWT_Count
C:\Users\86152\AppData\Local\Temp\cclaUrwd.s:2381   .rodata.zb:00000000 zb
C:\Users\86152\AppData\Local\Temp\cclaUrwd.s:2372   .rodata.yb:00000000 yb
C:\Users\86152\AppData\Local\Temp\cclaUrwd.s:2363   .rodata.xb:00000000 xb
C:\Users\86152\AppData\Local\Temp\cclaUrwd.s:2354   .rodata.gravity:00000000 gravity
C:\Users\86152\AppData\Local\Temp\cclaUrwd.s:2235   .bss.TempCtrl:00000000 TempCtrl
C:\Users\86152\AppData\Local\Temp\cclaUrwd.s:2228   .bss.QuaternionBuffer:00000000 QuaternionBuffer
C:\Users\86152\AppData\Local\Temp\cclaUrwd.s:2214   .bss.INS:00000000 INS
C:\Users\86152\AppData\Local\Temp\cclaUrwd.s:2210   .bss.INS:00000000 $d
C:\Users\86152\AppData\Local\Temp\cclaUrwd.s:2217   .bss.INS_DWT_Count:00000000 $d
C:\Users\86152\AppData\Local\Temp\cclaUrwd.s:2224   .bss.QuaternionBuffer:00000000 $d
C:\Users\86152\AppData\Local\Temp\cclaUrwd.s:2231   .bss.TempCtrl:00000000 $d
C:\Users\86152\AppData\Local\Temp\cclaUrwd.s:2238   .bss.c_11.8:00000000 $d
C:\Users\86152\AppData\Local\Temp\cclaUrwd.s:2242   .bss.c_11.8:00000000 c_11.8
C:\Users\86152\AppData\Local\Temp\cclaUrwd.s:2245   .bss.c_12.7:00000000 $d
C:\Users\86152\AppData\Local\Temp\cclaUrwd.s:2249   .bss.c_12.7:00000000 c_12.7
C:\Users\86152\AppData\Local\Temp\cclaUrwd.s:2252   .bss.c_13.6:00000000 $d
C:\Users\86152\AppData\Local\Temp\cclaUrwd.s:2256   .bss.c_13.6:00000000 c_13.6
C:\Users\86152\AppData\Local\Temp\cclaUrwd.s:2259   .bss.c_21.5:00000000 $d
C:\Users\86152\AppData\Local\Temp\cclaUrwd.s:2263   .bss.c_21.5:00000000 c_21.5
C:\Users\86152\AppData\Local\Temp\cclaUrwd.s:2266   .bss.c_22.4:00000000 $d
C:\Users\86152\AppData\Local\Temp\cclaUrwd.s:2270   .bss.c_22.4:00000000 c_22.4
C:\Users\86152\AppData\Local\Temp\cclaUrwd.s:2273   .bss.c_23.3:00000000 $d
ARM GAS  C:\Users\86152\AppData\Local\Temp\cclaUrwd.s 			page 60


C:\Users\86152\AppData\Local\Temp\cclaUrwd.s:2277   .bss.c_23.3:00000000 c_23.3
C:\Users\86152\AppData\Local\Temp\cclaUrwd.s:2280   .bss.c_31.2:00000000 $d
C:\Users\86152\AppData\Local\Temp\cclaUrwd.s:2284   .bss.c_31.2:00000000 c_31.2
C:\Users\86152\AppData\Local\Temp\cclaUrwd.s:2287   .bss.c_32.1:00000000 $d
C:\Users\86152\AppData\Local\Temp\cclaUrwd.s:2291   .bss.c_32.1:00000000 c_32.1
C:\Users\86152\AppData\Local\Temp\cclaUrwd.s:2294   .bss.c_33.0:00000000 $d
C:\Users\86152\AppData\Local\Temp\cclaUrwd.s:2298   .bss.c_33.0:00000000 c_33.0
C:\Users\86152\AppData\Local\Temp\cclaUrwd.s:2301   .bss.count.12:00000000 $d
C:\Users\86152\AppData\Local\Temp\cclaUrwd.s:2305   .bss.count.12:00000000 count.12
C:\Users\86152\AppData\Local\Temp\cclaUrwd.s:2308   .bss.dt:00000000 $d
C:\Users\86152\AppData\Local\Temp\cclaUrwd.s:2312   .bss.dt:00000000 dt
C:\Users\86152\AppData\Local\Temp\cclaUrwd.s:2315   .bss.lastPitchOffset.10:00000000 $d
C:\Users\86152\AppData\Local\Temp\cclaUrwd.s:2319   .bss.lastPitchOffset.10:00000000 lastPitchOffset.10
C:\Users\86152\AppData\Local\Temp\cclaUrwd.s:2322   .bss.lastRollOffset.9:00000000 $d
C:\Users\86152\AppData\Local\Temp\cclaUrwd.s:2326   .bss.lastRollOffset.9:00000000 lastRollOffset.9
C:\Users\86152\AppData\Local\Temp\cclaUrwd.s:2329   .bss.lastYawOffset.11:00000000 $d
C:\Users\86152\AppData\Local\Temp\cclaUrwd.s:2333   .bss.lastYawOffset.11:00000000 lastYawOffset.11
C:\Users\86152\AppData\Local\Temp\cclaUrwd.s:2336   .bss.t:00000000 $d
C:\Users\86152\AppData\Local\Temp\cclaUrwd.s:2340   .bss.t:00000000 t
C:\Users\86152\AppData\Local\Temp\cclaUrwd.s:2343   .data.RefTemp:00000000 $d
C:\Users\86152\AppData\Local\Temp\cclaUrwd.s:2350   .rodata.gravity:00000000 $d
C:\Users\86152\AppData\Local\Temp\cclaUrwd.s:2359   .rodata.xb:00000000 $d
C:\Users\86152\AppData\Local\Temp\cclaUrwd.s:2368   .rodata.yb:00000000 $d
C:\Users\86152\AppData\Local\Temp\cclaUrwd.s:2377   .rodata.zb:00000000 $d

UNDEFINED SYMBOLS
arm_cos_f32
arm_sin_f32
BMI088_Read
IMU_RequestData
IMU_QuaternionEKF_Init
PID_Init
HAL_TIM_PWM_Start
BMI088
exo_controller
hcan2
htim10
atan2f
asinf
IMU_QuaternionEKF_Update
HAL_GetTick
QEKF_INS
float_constrain
PID_Calculate
float_rounding
TIM_Set_PWM
DWT_GetDeltaT
Serial_Debug
GlobalDebugMode
huart1
