ARM GAS  C:\Users\86152\AppData\Local\Temp\cc7vityd.s 			page 1


   1              		.cpu cortex-m4
   2              		.arch armv7e-m
   3              		.fpu fpv4-sp-d16
   4              		.eabi_attribute 27, 1
   5              		.eabi_attribute 28, 1
   6              		.eabi_attribute 20, 1
   7              		.eabi_attribute 21, 1
   8              		.eabi_attribute 23, 3
   9              		.eabi_attribute 24, 1
  10              		.eabi_attribute 25, 1
  11              		.eabi_attribute 26, 1
  12              		.eabi_attribute 30, 1
  13              		.eabi_attribute 34, 1
  14              		.eabi_attribute 18, 4
  15              		.file	"motor_task.c"
  16              		.text
  17              	.Ltext0:
  18              		.cfi_sections	.debug_frame
  19              		.section	.text.set_exo_mode,"ax",%progbits
  20              		.align	1
  21              		.syntax unified
  22              		.thumb
  23              		.thumb_func
  25              	set_exo_mode:
  26              	.LFB173:
  27              		.file 1 "Application/motor_task.c"
   1:Application/motor_task.c **** #include "motor_task.h"
   2:Application/motor_task.c **** 
   3:Application/motor_task.c **** int16_t debugoutput = 0, debugoutput2 = 0;
   4:Application/motor_task.c **** uint8_t reg = 0x01; // 0x01:accel, 0x02:gyro, 0x03:euler, 0x04:quaternion
   5:Application/motor_task.c **** 
   6:Application/motor_task.c **** exo_controller_t exo_controller = {0};
   7:Application/motor_task.c **** 
   8:Application/motor_task.c **** float TargetVelocity = 0, TargetTorque = 0;
   9:Application/motor_task.c **** float TargetAngle1 = 0, TargetAngle2 = 0,
  10:Application/motor_task.c ****       TargetAngle3 = 0; // 目标角度
  11:Application/motor_task.c **** float a = 45.0f, b = 0.5f, c = 0.0f;
  12:Application/motor_task.c **** 
  13:Application/motor_task.c **** static void set_exo_mode(void);
  14:Application/motor_task.c **** static void get_exo_ctrl_value(void);
  15:Application/motor_task.c **** static void limit_exo_ctrl_value(void);
  16:Application/motor_task.c **** static void set_exo_control(void);
  17:Application/motor_task.c **** static void send_exo_motor_current(void);
  18:Application/motor_task.c **** 
  19:Application/motor_task.c **** void exo_init(void)
  20:Application/motor_task.c **** {
  21:Application/motor_task.c ****   // PID初始化
  22:Application/motor_task.c ****   PID_Init(&exo_controller.lk_motor.PID_Velocity, 2000, 1000, 0, 1.5, 0.1, 0, 0, 0, 0, 0, 0, Integr
  23:Application/motor_task.c ****   PID_Init(&exo_controller.lk_motor.PID_Angle, 8600, 4000, 0, 30, 1, 1, 0, 0, 0, 0, 0, Integral_Lim
  24:Application/motor_task.c ****   exo_controller.lk_motor.zero_offset = MOTOR_ZERO_OFFSET;
  25:Application/motor_task.c ****   exo_controller.lk_motor.max_out = 0;
  26:Application/motor_task.c **** 
  27:Application/motor_task.c ****   PID_Init(&exo_controller.dm_motor[0].PID_Velocity, 18, 10, 0, 0.7, 0, 0, 0, 0, 0, 0, 0, Integral_
  28:Application/motor_task.c ****   PID_Init(&exo_controller.dm_motor[0].PID_Angle, 50, 5, 0, 0.4, 0.05, 0.01, 0, 0, 0, 0, 0, Integra
  29:Application/motor_task.c ****   exo_controller.dm_motor[0].max_out = 0;
  30:Application/motor_task.c **** 
  31:Application/motor_task.c ****   PID_Init(&exo_controller.dm_motor[1].PID_Velocity, 18, 10, 0, 0.7, 0, 0, 0, 0, 0, 0, 0, Integral_
ARM GAS  C:\Users\86152\AppData\Local\Temp\cc7vityd.s 			page 2


  32:Application/motor_task.c ****   PID_Init(&exo_controller.dm_motor[1].PID_Angle, 50, 5, 0, 0.4, 0.05, 0.01, 0, 0, 0, 0, 0, Integra
  33:Application/motor_task.c ****   exo_controller.dm_motor[1].max_out = 0;
  34:Application/motor_task.c **** 
  35:Application/motor_task.c ****   PID_Init(&exo_controller.dm_motor[2].PID_Velocity, 2048, 1000, 0, 1.5, 0.1, 0, 0, 0, 0, 0, 0, Int
  36:Application/motor_task.c ****   PID_Init(&exo_controller.dm_motor[2].PID_Angle, 8600, 4000, 0, 30, 1, 1, 0, 0, 0, 0, 0, Integral_
  37:Application/motor_task.c ****   exo_controller.dm_motor[2].max_out = 0;
  38:Application/motor_task.c **** 
  39:Application/motor_task.c ****   exo_controller.lk_motor.reduction_ratio = 1.0f;
  40:Application/motor_task.c ****   exo_controller.dm_motor[0].reduction_ratio = 1.0f;
  41:Application/motor_task.c ****   exo_controller.dm_motor[1].reduction_ratio = 1.0f;
  42:Application/motor_task.c ****   exo_controller.dm_motor[2].reduction_ratio = 1.0f;
  43:Application/motor_task.c **** 
  44:Application/motor_task.c ****   DM_CANx_SendStdData(&hcan1, 0x01, ENABLE_MOTOR, 8);
  45:Application/motor_task.c ****   HAL_Delay(2);
  46:Application/motor_task.c ****   DM_CANx_SendStdData(&hcan1, 0x02, ENABLE_MOTOR, 8);
  47:Application/motor_task.c ****   HAL_Delay(2);
  48:Application/motor_task.c ****   DM_CANx_SendStdData(&hcan1, 0x03, ENABLE_MOTOR, 8);
  49:Application/motor_task.c ****   HAL_Delay(2);
  50:Application/motor_task.c **** 
  51:Application/motor_task.c ****   HAL_TIM_PWM_Start(&htim4, TIM_CHANNEL_3); // 启动PWM
  52:Application/motor_task.c **** }
  53:Application/motor_task.c **** 
  54:Application/motor_task.c **** void exo_task(void)
  55:Application/motor_task.c **** {
  56:Application/motor_task.c ****   exo_controller.dt = DWT_GetDeltaT(&exo_controller.DWT_count);
  57:Application/motor_task.c ****   exo_controller.t += exo_controller.dt;
  58:Application/motor_task.c **** 
  59:Application/motor_task.c ****   set_exo_mode();
  60:Application/motor_task.c ****   get_exo_ctrl_value();
  61:Application/motor_task.c **** 
  62:Application/motor_task.c ****   send_exo_motor_current();
  63:Application/motor_task.c **** }
  64:Application/motor_task.c **** 
  65:Application/motor_task.c **** static void set_exo_mode(void)
  66:Application/motor_task.c **** {
  28              		.loc 1 66 1 view -0
  29              		.cfi_startproc
  30              		@ args = 0, pretend = 0, frame = 0
  31              		@ frame_needed = 0, uses_anonymous_args = 0
  32 0000 08B5     		push	{r3, lr}
  33              	.LCFI0:
  34              		.cfi_def_cfa_offset 8
  35              		.cfi_offset 3, -8
  36              		.cfi_offset 14, -4
  67:Application/motor_task.c ****   static uint32_t reset_count = 0;
  37              		.loc 1 67 3 view .LVU1
  68:Application/motor_task.c ****   static float reset_timestamp = 0;
  38              		.loc 1 68 3 view .LVU2
  69:Application/motor_task.c ****   static uint8_t pin_state = 0, last_pin_state = 0;
  39              		.loc 1 69 3 view .LVU3
  70:Application/motor_task.c **** 
  71:Application/motor_task.c ****   pin_state = HAL_GPIO_ReadPin(KEY_GPIO_Port, KEY_Pin);
  40              		.loc 1 71 3 view .LVU4
  41              		.loc 1 71 15 is_stmt 0 view .LVU5
  42 0002 0121     		movs	r1, #1
  43 0004 2D48     		ldr	r0, .L15
  44 0006 FFF7FEFF 		bl	HAL_GPIO_ReadPin
ARM GAS  C:\Users\86152\AppData\Local\Temp\cc7vityd.s 			page 3


  45              	.LVL0:
  46              		.loc 1 71 13 view .LVU6
  47 000a 2D4B     		ldr	r3, .L15+4
  48 000c 1870     		strb	r0, [r3]
  72:Application/motor_task.c ****   // press the key
  73:Application/motor_task.c ****   if (pin_state == GPIO_PIN_RESET)
  49              		.loc 1 73 3 is_stmt 1 view .LVU7
  50              		.loc 1 73 6 is_stmt 0 view .LVU8
  51 000e 38B9     		cbnz	r0, .L2
  74:Application/motor_task.c ****   {
  75:Application/motor_task.c ****     reset_count++;
  52              		.loc 1 75 5 is_stmt 1 view .LVU9
  53              		.loc 1 75 16 is_stmt 0 view .LVU10
  54 0010 2C4A     		ldr	r2, .L15+8
  55 0012 1368     		ldr	r3, [r2]
  56 0014 0133     		adds	r3, r3, #1
  57 0016 1360     		str	r3, [r2]
  76:Application/motor_task.c ****     reset_timestamp = exo_controller.t;
  58              		.loc 1 76 5 is_stmt 1 view .LVU11
  59              		.loc 1 76 37 is_stmt 0 view .LVU12
  60 0018 2B4B     		ldr	r3, .L15+12
  61 001a 1A69     		ldr	r2, [r3, #16]	@ float
  62              		.loc 1 76 21 view .LVU13
  63 001c 2B4B     		ldr	r3, .L15+16
  64 001e 1A60     		str	r2, [r3]	@ float
  65              	.L2:
  77:Application/motor_task.c ****   }
  78:Application/motor_task.c **** 
  79:Application/motor_task.c ****   if (last_pin_state == GPIO_PIN_SET && pin_state == GPIO_PIN_RESET)
  66              		.loc 1 79 3 is_stmt 1 view .LVU14
  67              		.loc 1 79 22 is_stmt 0 view .LVU15
  68 0020 2B4B     		ldr	r3, .L15+20
  69 0022 1B78     		ldrb	r3, [r3]	@ zero_extendqisi2
  70              		.loc 1 79 6 view .LVU16
  71 0024 012B     		cmp	r3, #1
  72 0026 3AD0     		beq	.L14
  73              	.L3:
  80:Application/motor_task.c ****   {
  81:Application/motor_task.c ****     reset_count = 0;
  82:Application/motor_task.c ****     exo_controller.mode = SILENCE_MODE;
  83:Application/motor_task.c ****   }
  84:Application/motor_task.c **** 
  85:Application/motor_task.c ****   if (reset_count > 1000)
  74              		.loc 1 85 3 is_stmt 1 view .LVU17
  75              		.loc 1 85 19 is_stmt 0 view .LVU18
  76 0028 264B     		ldr	r3, .L15+8
  77 002a 1B68     		ldr	r3, [r3]
  78              		.loc 1 85 6 view .LVU19
  79 002c B3F57A7F 		cmp	r3, #1000
  80 0030 26D9     		bls	.L4
  86:Application/motor_task.c ****   {
  87:Application/motor_task.c ****     if ((exo_controller.t - reset_timestamp) < 2.0f)
  81              		.loc 1 87 5 is_stmt 1 view .LVU20
  82              		.loc 1 87 24 is_stmt 0 view .LVU21
  83 0032 254B     		ldr	r3, .L15+12
  84 0034 D3ED047A 		vldr.32	s15, [r3, #16]
  85              		.loc 1 87 27 view .LVU22
ARM GAS  C:\Users\86152\AppData\Local\Temp\cc7vityd.s 			page 4


  86 0038 244B     		ldr	r3, .L15+16
  87 003a 93ED007A 		vldr.32	s14, [r3]
  88 003e 77EEC77A 		vsub.f32	s15, s15, s14
  89              		.loc 1 87 8 view .LVU23
  90 0042 B0EE007A 		vmov.f32	s14, #2.0e+0
  91 0046 F4EEC77A 		vcmpe.f32	s15, s14
  92 004a F1EE10FA 		vmrs	APSR_nzcv, FPSCR
  93 004e 2ED5     		bpl	.L12
  88:Application/motor_task.c ****       TIM_Set_PWM(&htim4, TIM_CHANNEL_3, 2000);
  94              		.loc 1 88 7 is_stmt 1 view .LVU24
  95 0050 4FF4FA62 		mov	r2, #2000
  96 0054 0821     		movs	r1, #8
  97 0056 1F48     		ldr	r0, .L15+24
  98 0058 FFF7FEFF 		bl	TIM_Set_PWM
  99              	.LVL1:
 100              	.L7:
  89:Application/motor_task.c ****     else
  90:Application/motor_task.c ****       TIM_Set_PWM(&htim4, TIM_CHANNEL_3, 0);
  91:Application/motor_task.c **** 
  92:Application/motor_task.c ****     if ((exo_controller.t - reset_timestamp) > 5.0f)
 101              		.loc 1 92 5 view .LVU25
 102              		.loc 1 92 24 is_stmt 0 view .LVU26
 103 005c 1A4B     		ldr	r3, .L15+12
 104 005e D3ED047A 		vldr.32	s15, [r3, #16]
 105              		.loc 1 92 27 view .LVU27
 106 0062 1A4B     		ldr	r3, .L15+16
 107 0064 93ED007A 		vldr.32	s14, [r3]
 108 0068 77EEC77A 		vsub.f32	s15, s15, s14
 109              		.loc 1 92 8 view .LVU28
 110 006c B1EE047A 		vmov.f32	s14, #5.0e+0
 111 0070 F4EEC77A 		vcmpe.f32	s15, s14
 112 0074 F1EE10FA 		vmrs	APSR_nzcv, FPSCR
 113 0078 02DD     		ble	.L4
  93:Application/motor_task.c ****       exo_controller.mode = Angle;
 114              		.loc 1 93 7 is_stmt 1 view .LVU29
 115              		.loc 1 93 27 is_stmt 0 view .LVU30
 116 007a 134B     		ldr	r3, .L15+12
 117 007c 0122     		movs	r2, #1
 118 007e 1A70     		strb	r2, [r3]
 119              	.L4:
  94:Application/motor_task.c ****   }
  95:Application/motor_task.c **** 
  96:Application/motor_task.c ****   if (exo_controller.last_mode != exo_controller.mode)
 120              		.loc 1 96 3 is_stmt 1 view .LVU31
 121              		.loc 1 96 21 is_stmt 0 view .LVU32
 122 0080 114B     		ldr	r3, .L15+12
 123 0082 5A78     		ldrb	r2, [r3, #1]	@ zero_extendqisi2
 124              		.loc 1 96 49 view .LVU33
 125 0084 1B78     		ldrb	r3, [r3]	@ zero_extendqisi2
 126              		.loc 1 96 6 view .LVU34
 127 0086 9A42     		cmp	r2, r3
 128 0088 02D0     		beq	.L9
  97:Application/motor_task.c ****     exo_controller.mode_change_timestamp = exo_controller.t;
 129              		.loc 1 97 5 is_stmt 1 view .LVU35
 130              		.loc 1 97 58 is_stmt 0 view .LVU36
 131 008a 0F4A     		ldr	r2, .L15+12
 132 008c 1169     		ldr	r1, [r2, #16]	@ float
ARM GAS  C:\Users\86152\AppData\Local\Temp\cc7vityd.s 			page 5


 133              		.loc 1 97 42 view .LVU37
 134 008e 9160     		str	r1, [r2, #8]	@ float
 135              	.L9:
  98:Application/motor_task.c **** 
  99:Application/motor_task.c ****   last_pin_state = pin_state;
 136              		.loc 1 99 3 is_stmt 1 view .LVU38
 137              		.loc 1 99 18 is_stmt 0 view .LVU39
 138 0090 0B4A     		ldr	r2, .L15+4
 139 0092 1178     		ldrb	r1, [r2]	@ zero_extendqisi2
 140 0094 0E4A     		ldr	r2, .L15+20
 141 0096 1170     		strb	r1, [r2]
 100:Application/motor_task.c ****   exo_controller.last_mode = exo_controller.mode;
 142              		.loc 1 100 3 is_stmt 1 view .LVU40
 143              		.loc 1 100 28 is_stmt 0 view .LVU41
 144 0098 0B4A     		ldr	r2, .L15+12
 145 009a 5370     		strb	r3, [r2, #1]
 101:Application/motor_task.c **** }
 146              		.loc 1 101 1 view .LVU42
 147 009c 08BD     		pop	{r3, pc}
 148              	.L14:
  79:Application/motor_task.c ****   {
 149              		.loc 1 79 38 discriminator 1 view .LVU43
 150 009e 0028     		cmp	r0, #0
 151 00a0 C2D1     		bne	.L3
  81:Application/motor_task.c ****     exo_controller.mode = SILENCE_MODE;
 152              		.loc 1 81 5 is_stmt 1 view .LVU44
  81:Application/motor_task.c ****     exo_controller.mode = SILENCE_MODE;
 153              		.loc 1 81 17 is_stmt 0 view .LVU45
 154 00a2 0023     		movs	r3, #0
 155 00a4 074A     		ldr	r2, .L15+8
 156 00a6 1360     		str	r3, [r2]
  82:Application/motor_task.c ****   }
 157              		.loc 1 82 5 is_stmt 1 view .LVU46
  82:Application/motor_task.c ****   }
 158              		.loc 1 82 25 is_stmt 0 view .LVU47
 159 00a8 074A     		ldr	r2, .L15+12
 160 00aa 1370     		strb	r3, [r2]
 161 00ac BCE7     		b	.L3
 162              	.L12:
  90:Application/motor_task.c **** 
 163              		.loc 1 90 7 is_stmt 1 view .LVU48
 164 00ae 0022     		movs	r2, #0
 165 00b0 0821     		movs	r1, #8
 166 00b2 0848     		ldr	r0, .L15+24
 167 00b4 FFF7FEFF 		bl	TIM_Set_PWM
 168              	.LVL2:
 169 00b8 D0E7     		b	.L7
 170              	.L16:
 171 00ba 00BF     		.align	2
 172              	.L15:
 173 00bc 00000240 		.word	1073872896
 174 00c0 00000000 		.word	.LANCHOR0
 175 00c4 00000000 		.word	.LANCHOR1
 176 00c8 00000000 		.word	.LANCHOR2
 177 00cc 00000000 		.word	.LANCHOR3
 178 00d0 00000000 		.word	.LANCHOR4
 179 00d4 00000000 		.word	htim4
ARM GAS  C:\Users\86152\AppData\Local\Temp\cc7vityd.s 			page 6


 180              		.cfi_endproc
 181              	.LFE173:
 183              		.global	__aeabi_f2d
 184              		.global	__aeabi_dmul
 185              		.global	__aeabi_dadd
 186              		.global	__aeabi_d2f
 187              		.section	.text.get_exo_ctrl_value,"ax",%progbits
 188              		.align	1
 189              		.syntax unified
 190              		.thumb
 191              		.thumb_func
 193              	get_exo_ctrl_value:
 194              	.LFB174:
 102:Application/motor_task.c **** 
 103:Application/motor_task.c **** static void get_exo_ctrl_value(void)
 104:Application/motor_task.c **** {
 195              		.loc 1 104 1 view -0
 196              		.cfi_startproc
 197              		@ args = 0, pretend = 0, frame = 0
 198              		@ frame_needed = 0, uses_anonymous_args = 0
 199 0000 D0B5     		push	{r4, r6, r7, lr}
 200              	.LCFI1:
 201              		.cfi_def_cfa_offset 16
 202              		.cfi_offset 4, -16
 203              		.cfi_offset 6, -12
 204              		.cfi_offset 7, -8
 205              		.cfi_offset 14, -4
 105:Application/motor_task.c ****   switch (exo_controller.mode)
 206              		.loc 1 105 3 view .LVU50
 207              		.loc 1 105 25 is_stmt 0 view .LVU51
 208 0002 D44B     		ldr	r3, .L35
 209 0004 1B78     		ldrb	r3, [r3]	@ zero_extendqisi2
 210              		.loc 1 105 3 view .LVU52
 211 0006 052B     		cmp	r3, #5
 212 0008 1FD8     		bhi	.L17
 213 000a DFE813F0 		tbh	[pc, r3, lsl #1]
 214              	.L20:
 215 000e 0600     		.2byte	(.L24-.L20)/2
 216 0010 1F00     		.2byte	(.L23-.L20)/2
 217 0012 1C01     		.2byte	(.L22-.L20)/2
 218 0014 3F01     		.2byte	(.L21-.L20)/2
 219 0016 1E00     		.2byte	(.L17-.L20)/2
 220 0018 4D01     		.2byte	(.L19-.L20)/2
 221              		.p2align 1
 222              	.L24:
 223              	.LBB2:
 106:Application/motor_task.c ****   {
 107:Application/motor_task.c ****   case SILENCE_MODE:
 108:Application/motor_task.c ****     exo_controller.lk_motor.Output = 0;
 224              		.loc 1 108 5 is_stmt 1 view .LVU53
 225              		.loc 1 108 36 is_stmt 0 view .LVU54
 226 001a CE4B     		ldr	r3, .L35
 227 001c 0022     		movs	r2, #0
 228 001e C3F88420 		str	r2, [r3, #132]	@ float
 109:Application/motor_task.c ****     exo_controller.dm_motor[0].Output = 0;
 229              		.loc 1 109 5 is_stmt 1 view .LVU55
 230              		.loc 1 109 39 is_stmt 0 view .LVU56
ARM GAS  C:\Users\86152\AppData\Local\Temp\cc7vityd.s 			page 7


 231 0022 C3F81C23 		str	r2, [r3, #796]	@ float
 110:Application/motor_task.c ****     exo_controller.dm_motor[1].Output = 0;
 232              		.loc 1 110 5 is_stmt 1 view .LVU57
 233              		.loc 1 110 39 is_stmt 0 view .LVU58
 234 0026 03F2B451 		addw	r1, r3, #1460
 235 002a 0A60     		str	r2, [r1]	@ float
 111:Application/motor_task.c ****     exo_controller.dm_motor[2].Output = 0;
 236              		.loc 1 111 5 is_stmt 1 view .LVU59
 237              		.loc 1 111 39 is_stmt 0 view .LVU60
 238 002c 03F64C01 		addw	r1, r3, #2124
 239 0030 0A60     		str	r2, [r1]	@ float
 112:Application/motor_task.c ****     TargetAngle1 = exo_controller.dm_motor[0].angle_in_degree;
 240              		.loc 1 112 5 is_stmt 1 view .LVU61
 241              		.loc 1 112 46 is_stmt 0 view .LVU62
 242 0032 D3F8E012 		ldr	r1, [r3, #736]	@ float
 243              		.loc 1 112 18 view .LVU63
 244 0036 C84A     		ldr	r2, .L35+4
 245 0038 1160     		str	r1, [r2]	@ float
 113:Application/motor_task.c ****     TargetAngle2 = exo_controller.dm_motor[1].angle_in_degree;
 246              		.loc 1 113 5 is_stmt 1 view .LVU64
 247              		.loc 1 113 46 is_stmt 0 view .LVU65
 248 003a 03F5AF62 		add	r2, r3, #1400
 249 003e 1168     		ldr	r1, [r2]	@ float
 250              		.loc 1 113 18 view .LVU66
 251 0040 C64A     		ldr	r2, .L35+8
 252 0042 1160     		str	r1, [r2]	@ float
 114:Application/motor_task.c ****     TargetAngle3 = exo_controller.lk_motor.angle_in_degree;
 253              		.loc 1 114 5 is_stmt 1 view .LVU67
 254              		.loc 1 114 43 is_stmt 0 view .LVU68
 255 0044 9A6C     		ldr	r2, [r3, #72]	@ float
 256              		.loc 1 114 18 view .LVU69
 257 0046 C64B     		ldr	r3, .L35+12
 258 0048 1A60     		str	r2, [r3]	@ float
 115:Application/motor_task.c ****     break;
 259              		.loc 1 115 5 is_stmt 1 view .LVU70
 260              	.L17:
 261              	.LBE2:
 116:Application/motor_task.c **** 
 117:Application/motor_task.c ****   case Angle:
 118:Application/motor_task.c ****     // 角度控制
 119:Application/motor_task.c ****     // Motor_Angle_Calculate(&exo_controller.lk_motor, exo_controller.lk_motor.total_angle, exo_con
 120:Application/motor_task.c ****     if (exo_controller.t - exo_controller.mode_change_timestamp < 1)
 121:Application/motor_task.c ****     {
 122:Application/motor_task.c ****       TargetAngle1 = exo_controller.dm_motor[0].angle_in_degree;
 123:Application/motor_task.c ****       TargetAngle2 = exo_controller.dm_motor[1].angle_in_degree;
 124:Application/motor_task.c ****       TargetAngle3 = exo_controller.lk_motor.angle_in_degree;
 125:Application/motor_task.c ****     }
 126:Application/motor_task.c ****     else if (exo_controller.debug_mode == 6)
 127:Application/motor_task.c ****     {
 128:Application/motor_task.c ****       TargetAngle3 = a * sin(b * exo_controller.t + PI) + c;
 129:Application/motor_task.c ****     }
 130:Application/motor_task.c **** 
 131:Application/motor_task.c ****     // TargetAngle1 = float_constrain(TargetAngle1, MOTOR1_MIN, MOTOR1_MAX);
 132:Application/motor_task.c ****     // TargetAngle2 = float_constrain(TargetAngle2, MOTOR2_MIN, MOTOR2_MAX);
 133:Application/motor_task.c **** 
 134:Application/motor_task.c ****     /* -------------------------------- lk motor -------------------------------- */
 135:Application/motor_task.c ****     if (exo_controller.debug_mode == 6)
ARM GAS  C:\Users\86152\AppData\Local\Temp\cc7vityd.s 			page 8


 136:Application/motor_task.c ****       PID_Calculate(&exo_controller.lk_motor.PID_Angle, -INS.xzy_order_angle[2], TargetAngle3);
 137:Application/motor_task.c ****     else
 138:Application/motor_task.c ****       PID_Calculate(&exo_controller.lk_motor.PID_Angle, exo_controller.lk_motor.angle_in_degree, Ta
 139:Application/motor_task.c ****     float VelocityLoopInput = float_constrain(exo_controller.lk_motor.PID_Angle.Output,
 140:Application/motor_task.c ****                                               -exo_controller.lk_motor.PID_Angle.MaxOut, exo_contro
 141:Application/motor_task.c ****     PID_Calculate(&exo_controller.lk_motor.PID_Velocity, exo_controller.lk_motor.velocity_in_rpm, V
 142:Application/motor_task.c ****     float TorqueLoopInput = float_constrain(exo_controller.lk_motor.PID_Velocity.Output,
 143:Application/motor_task.c ****                                             -exo_controller.lk_motor.PID_Velocity.MaxOut, exo_contr
 144:Application/motor_task.c ****     exo_controller.lk_motor.Output = float_constrain(TorqueLoopInput, -exo_controller.lk_motor.max_
 145:Application/motor_task.c **** 
 146:Application/motor_task.c ****     /* --------------------------------- dm motor -------------------------------- */
 147:Application/motor_task.c ****     PID_Calculate(&exo_controller.dm_motor[0].PID_Angle, exo_controller.dm_motor[0].angle_in_degree
 148:Application/motor_task.c ****     VelocityLoopInput = float_constrain(exo_controller.dm_motor[0].PID_Angle.Output,
 149:Application/motor_task.c ****                                         -exo_controller.dm_motor[0].PID_Angle.MaxOut, exo_controlle
 150:Application/motor_task.c **** 
 151:Application/motor_task.c ****     PID_Calculate(&exo_controller.dm_motor[0].PID_Velocity, exo_controller.dm_motor[0].velocity_in_
 152:Application/motor_task.c ****     TorqueLoopInput = float_constrain(exo_controller.dm_motor[0].PID_Velocity.Output,
 153:Application/motor_task.c ****                                       -exo_controller.dm_motor[0].PID_Velocity.MaxOut, exo_controll
 154:Application/motor_task.c **** 
 155:Application/motor_task.c ****     exo_controller.dm_motor[0].Output = float_constrain(TorqueLoopInput, -exo_controller.dm_motor[0
 156:Application/motor_task.c **** 
 157:Application/motor_task.c ****     PID_Calculate(&exo_controller.dm_motor[1].PID_Angle, exo_controller.dm_motor[1].angle_in_degree
 158:Application/motor_task.c ****     VelocityLoopInput = float_constrain(exo_controller.dm_motor[1].PID_Angle.Output,
 159:Application/motor_task.c ****                                         -exo_controller.dm_motor[1].PID_Angle.MaxOut, exo_controlle
 160:Application/motor_task.c **** 
 161:Application/motor_task.c ****     PID_Calculate(&exo_controller.dm_motor[1].PID_Velocity, exo_controller.dm_motor[1].velocity_in_
 162:Application/motor_task.c ****     TorqueLoopInput = float_constrain(exo_controller.dm_motor[1].PID_Velocity.Output,
 163:Application/motor_task.c ****                                       -exo_controller.dm_motor[1].PID_Velocity.MaxOut, exo_controll
 164:Application/motor_task.c **** 
 165:Application/motor_task.c ****     exo_controller.dm_motor[1].Output = float_constrain(TorqueLoopInput, -exo_controller.dm_motor[1
 166:Application/motor_task.c **** 
 167:Application/motor_task.c ****     Motor_Angle_Calculate(&exo_controller.dm_motor[0], exo_controller.dm_motor[0].angle_in_degree,
 168:Application/motor_task.c ****                           exo_controller.dm_motor[0].velocity_in_radps, TargetAngle1);
 169:Application/motor_task.c **** 
 170:Application/motor_task.c ****     break;
 171:Application/motor_task.c **** 
 172:Application/motor_task.c ****   case Velocity:
 173:Application/motor_task.c ****     // 速度控制
 174:Application/motor_task.c ****     // Motor_Speed_Calculate(&exo_controller.lk_motor, exo_controller.lk_motor.velocity_in_rpm, Tar
 175:Application/motor_task.c **** 
 176:Application/motor_task.c ****     // PID_Calculate(&exo_controller.lk_motor.PID_Velocity, exo_controller.lk_motor.velocity_in_rpm
 177:Application/motor_task.c ****     // TorqueLoopInput = float_constrain(exo_controller.lk_motor.PID_Velocity.Output,
 178:Application/motor_task.c ****     //                                   -exo_controller.lk_motor.PID_Velocity.MaxOut, exo_controll
 179:Application/motor_task.c **** 
 180:Application/motor_task.c ****     // exo_controller.lk_motor.Output = float_constrain(TorqueLoopInput, -exo_controller.lk_motor.m
 181:Application/motor_task.c **** 
 182:Application/motor_task.c ****     /* --------------------------------- dm motor -------------------------------- */
 183:Application/motor_task.c ****     PID_Calculate(&exo_controller.dm_motor[0].PID_Velocity, exo_controller.dm_motor[0].velocity_in_
 184:Application/motor_task.c ****     TorqueLoopInput = float_constrain(exo_controller.dm_motor[0].PID_Velocity.Output,
 185:Application/motor_task.c ****                                       -exo_controller.dm_motor[0].PID_Velocity.MaxOut, exo_controll
 186:Application/motor_task.c **** 
 187:Application/motor_task.c ****     exo_controller.dm_motor[0].Output = float_constrain(TorqueLoopInput, -exo_controller.dm_motor[0
 188:Application/motor_task.c **** 
 189:Application/motor_task.c ****     // 避免模式切换疯掉
 190:Application/motor_task.c ****     TargetAngle1 = exo_controller.dm_motor[0].angle_in_degree;
 191:Application/motor_task.c ****     break;
 192:Application/motor_task.c **** 
ARM GAS  C:\Users\86152\AppData\Local\Temp\cc7vityd.s 			page 9


 193:Application/motor_task.c ****   case Debug:
 194:Application/motor_task.c ****     exo_controller.lk_motor.Output = debugoutput;
 195:Application/motor_task.c ****     TargetAngle1 = exo_controller.lk_motor.angle_in_degree;
 196:Application/motor_task.c ****     break;
 197:Application/motor_task.c **** 
 198:Application/motor_task.c ****   case 5:
 199:Application/motor_task.c ****     TargetAngle1 = a * sin(b * exo_controller.t) + c;
 200:Application/motor_task.c ****     PID_Calculate(&exo_controller.lk_motor.PID_Angle, exo_controller.lk_motor.angle_in_degree, Targ
 201:Application/motor_task.c ****     VelocityLoopInput = float_constrain(exo_controller.lk_motor.PID_Angle.Output,
 202:Application/motor_task.c ****                                         -exo_controller.lk_motor.PID_Angle.MaxOut, exo_controller.l
 203:Application/motor_task.c **** 
 204:Application/motor_task.c ****     PID_Calculate(&exo_controller.lk_motor.PID_Velocity, exo_controller.lk_motor.velocity_in_rpm, V
 205:Application/motor_task.c ****     TorqueLoopInput = float_constrain(exo_controller.lk_motor.PID_Velocity.Output,
 206:Application/motor_task.c ****                                       -exo_controller.lk_motor.PID_Velocity.MaxOut, exo_controller.
 207:Application/motor_task.c **** 
 208:Application/motor_task.c ****     exo_controller.lk_motor.Output = float_constrain(TorqueLoopInput, -exo_controller.lk_motor.max_
 209:Application/motor_task.c ****     break;
 210:Application/motor_task.c ****   }
 211:Application/motor_task.c **** }
 262              		.loc 1 211 1 is_stmt 0 view .LVU71
 263 004a D0BD     		pop	{r4, r6, r7, pc}
 264              	.L23:
 265              	.LBB3:
 120:Application/motor_task.c ****     {
 266              		.loc 1 120 5 is_stmt 1 view .LVU72
 120:Application/motor_task.c ****     {
 267              		.loc 1 120 23 is_stmt 0 view .LVU73
 268 004c C14B     		ldr	r3, .L35
 269 004e 93ED047A 		vldr.32	s14, [r3, #16]
 120:Application/motor_task.c ****     {
 270              		.loc 1 120 42 view .LVU74
 271 0052 D3ED027A 		vldr.32	s15, [r3, #8]
 120:Application/motor_task.c ****     {
 272              		.loc 1 120 26 view .LVU75
 273 0056 77EE677A 		vsub.f32	s15, s14, s15
 120:Application/motor_task.c ****     {
 274              		.loc 1 120 8 view .LVU76
 275 005a F7EE006A 		vmov.f32	s13, #1.0e+0
 276 005e F4EEE67A 		vcmpe.f32	s15, s13
 277 0062 F1EE10FA 		vmrs	APSR_nzcv, FPSCR
 278 0066 2DD4     		bmi	.L33
 126:Application/motor_task.c ****     {
 279              		.loc 1 126 10 is_stmt 1 view .LVU77
 126:Application/motor_task.c ****     {
 280              		.loc 1 126 28 is_stmt 0 view .LVU78
 281 0068 BA4B     		ldr	r3, .L35
 282 006a 9B78     		ldrb	r3, [r3, #2]	@ zero_extendqisi2
 126:Application/motor_task.c ****     {
 283              		.loc 1 126 13 view .LVU79
 284 006c 062B     		cmp	r3, #6
 285 006e 35D1     		bne	.L27
 128:Application/motor_task.c ****     }
 286              		.loc 1 128 7 is_stmt 1 view .LVU80
 128:Application/motor_task.c ****     }
 287              		.loc 1 128 32 is_stmt 0 view .LVU81
 288 0070 BC4B     		ldr	r3, .L35+16
 289 0072 D3ED007A 		vldr.32	s15, [r3]
ARM GAS  C:\Users\86152\AppData\Local\Temp\cc7vityd.s 			page 10


 290 0076 27EE277A 		vmul.f32	s14, s14, s15
 128:Application/motor_task.c ****     }
 291              		.loc 1 128 26 view .LVU82
 292 007a DFEDBB7A 		vldr.32	s15, .L35+20
 293 007e 77EE277A 		vadd.f32	s15, s14, s15
 294 0082 17EE900A 		vmov	r0, s15
 295 0086 FFF7FEFF 		bl	__aeabi_f2d
 296              	.LVL3:
 297 008a 41EC100B 		vmov	d0, r0, r1
 298 008e FFF7FEFF 		bl	sin
 299              	.LVL4:
 300 0092 57EC106B 		vmov	r6, r7, d0
 128:Application/motor_task.c ****     }
 301              		.loc 1 128 24 view .LVU83
 302 0096 B54B     		ldr	r3, .L35+24
 303 0098 1868     		ldr	r0, [r3]	@ float
 304 009a FFF7FEFF 		bl	__aeabi_f2d
 305              	.LVL5:
 306 009e 3246     		mov	r2, r6
 307 00a0 3B46     		mov	r3, r7
 308 00a2 FFF7FEFF 		bl	__aeabi_dmul
 309              	.LVL6:
 310 00a6 0646     		mov	r6, r0
 311 00a8 0F46     		mov	r7, r1
 128:Application/motor_task.c ****     }
 312              		.loc 1 128 57 view .LVU84
 313 00aa B14B     		ldr	r3, .L35+28
 314 00ac 1868     		ldr	r0, [r3]	@ float
 315 00ae FFF7FEFF 		bl	__aeabi_f2d
 316              	.LVL7:
 317 00b2 3246     		mov	r2, r6
 318 00b4 3B46     		mov	r3, r7
 319 00b6 FFF7FEFF 		bl	__aeabi_dadd
 320              	.LVL8:
 321 00ba FFF7FEFF 		bl	__aeabi_d2f
 322              	.LVL9:
 128:Application/motor_task.c ****     }
 323              		.loc 1 128 20 view .LVU85
 324 00be A84B     		ldr	r3, .L35+12
 325 00c0 1860     		str	r0, [r3]	@ float
 326 00c2 0BE0     		b	.L27
 327              	.L33:
 122:Application/motor_task.c ****       TargetAngle2 = exo_controller.dm_motor[1].angle_in_degree;
 328              		.loc 1 122 7 is_stmt 1 view .LVU86
 122:Application/motor_task.c ****       TargetAngle2 = exo_controller.dm_motor[1].angle_in_degree;
 329              		.loc 1 122 48 is_stmt 0 view .LVU87
 330 00c4 D3F8E012 		ldr	r1, [r3, #736]	@ float
 122:Application/motor_task.c ****       TargetAngle2 = exo_controller.dm_motor[1].angle_in_degree;
 331              		.loc 1 122 20 view .LVU88
 332 00c8 A34A     		ldr	r2, .L35+4
 333 00ca 1160     		str	r1, [r2]	@ float
 123:Application/motor_task.c ****       TargetAngle3 = exo_controller.lk_motor.angle_in_degree;
 334              		.loc 1 123 7 is_stmt 1 view .LVU89
 123:Application/motor_task.c ****       TargetAngle3 = exo_controller.lk_motor.angle_in_degree;
 335              		.loc 1 123 48 is_stmt 0 view .LVU90
 336 00cc 03F5AF62 		add	r2, r3, #1400
 337 00d0 1168     		ldr	r1, [r2]	@ float
ARM GAS  C:\Users\86152\AppData\Local\Temp\cc7vityd.s 			page 11


 123:Application/motor_task.c ****       TargetAngle3 = exo_controller.lk_motor.angle_in_degree;
 338              		.loc 1 123 20 view .LVU91
 339 00d2 A24A     		ldr	r2, .L35+8
 340 00d4 1160     		str	r1, [r2]	@ float
 124:Application/motor_task.c ****     }
 341              		.loc 1 124 7 is_stmt 1 view .LVU92
 124:Application/motor_task.c ****     }
 342              		.loc 1 124 45 is_stmt 0 view .LVU93
 343 00d6 9A6C     		ldr	r2, [r3, #72]	@ float
 124:Application/motor_task.c ****     }
 344              		.loc 1 124 20 view .LVU94
 345 00d8 A14B     		ldr	r3, .L35+12
 346 00da 1A60     		str	r2, [r3]	@ float
 347              	.L27:
 135:Application/motor_task.c ****       PID_Calculate(&exo_controller.lk_motor.PID_Angle, -INS.xzy_order_angle[2], TargetAngle3);
 348              		.loc 1 135 5 is_stmt 1 view .LVU95
 135:Application/motor_task.c ****       PID_Calculate(&exo_controller.lk_motor.PID_Angle, -INS.xzy_order_angle[2], TargetAngle3);
 349              		.loc 1 135 23 is_stmt 0 view .LVU96
 350 00dc 9D4B     		ldr	r3, .L35
 351 00de 9B78     		ldrb	r3, [r3, #2]	@ zero_extendqisi2
 135:Application/motor_task.c ****       PID_Calculate(&exo_controller.lk_motor.PID_Angle, -INS.xzy_order_angle[2], TargetAngle3);
 352              		.loc 1 135 8 view .LVU97
 353 00e0 062B     		cmp	r3, #6
 354 00e2 00F0A480 		beq	.L34
 138:Application/motor_task.c ****     float VelocityLoopInput = float_constrain(exo_controller.lk_motor.PID_Angle.Output,
 355              		.loc 1 138 7 is_stmt 1 view .LVU98
 356 00e6 9B48     		ldr	r0, .L35
 357 00e8 9D4B     		ldr	r3, .L35+12
 358 00ea D3ED000A 		vldr.32	s1, [r3]
 359 00ee 90ED120A 		vldr.32	s0, [r0, #72]
 360 00f2 00F50070 		add	r0, r0, #512
 361 00f6 FFF7FEFF 		bl	PID_Calculate
 362              	.LVL10:
 363              	.L29:
 139:Application/motor_task.c ****                                               -exo_controller.lk_motor.PID_Angle.MaxOut, exo_contro
 364              		.loc 1 139 5 view .LVU99
 140:Application/motor_task.c ****     PID_Calculate(&exo_controller.lk_motor.PID_Velocity, exo_controller.lk_motor.velocity_in_rpm, V
 365              		.loc 1 140 81 is_stmt 0 view .LVU100
 366 00fa 964C     		ldr	r4, .L35
 367 00fc 94ED901A 		vldr.32	s2, [r4, #576]
 139:Application/motor_task.c ****                                               -exo_controller.lk_motor.PID_Angle.MaxOut, exo_contro
 368              		.loc 1 139 31 view .LVU101
 369 0100 F1EE410A 		vneg.f32	s1, s2
 370 0104 94ED8D0A 		vldr.32	s0, [r4, #564]
 371 0108 FFF7FEFF 		bl	float_constrain
 372              	.LVL11:
 373 010c F0EE400A 		vmov.f32	s1, s0
 374              	.LVL12:
 141:Application/motor_task.c ****     float TorqueLoopInput = float_constrain(exo_controller.lk_motor.PID_Velocity.Output,
 375              		.loc 1 141 5 is_stmt 1 view .LVU102
 141:Application/motor_task.c ****     float TorqueLoopInput = float_constrain(exo_controller.lk_motor.PID_Velocity.Output,
 376              		.loc 1 141 81 is_stmt 0 view .LVU103
 377 0110 B4F92C30 		ldrsh	r3, [r4, #44]
 378 0114 00EE103A 		vmov	s0, r3	@ int
 379              	.LVL13:
 141:Application/motor_task.c ****     float TorqueLoopInput = float_constrain(exo_controller.lk_motor.PID_Velocity.Output,
 380              		.loc 1 141 5 view .LVU104
ARM GAS  C:\Users\86152\AppData\Local\Temp\cc7vityd.s 			page 12


 381 0118 B8EEC00A 		vcvt.f32.s32	s0, s0
 382 011c 04F5A470 		add	r0, r4, #328
 383 0120 FFF7FEFF 		bl	PID_Calculate
 384              	.LVL14:
 142:Application/motor_task.c ****                                             -exo_controller.lk_motor.PID_Velocity.MaxOut, exo_contr
 385              		.loc 1 142 5 is_stmt 1 view .LVU105
 143:Application/motor_task.c ****     exo_controller.lk_motor.Output = float_constrain(TorqueLoopInput, -exo_controller.lk_motor.max_
 386              		.loc 1 143 82 is_stmt 0 view .LVU106
 387 0124 94ED621A 		vldr.32	s2, [r4, #392]
 142:Application/motor_task.c ****                                             -exo_controller.lk_motor.PID_Velocity.MaxOut, exo_contr
 388              		.loc 1 142 29 view .LVU107
 389 0128 F1EE410A 		vneg.f32	s1, s2
 390 012c 94ED5F0A 		vldr.32	s0, [r4, #380]
 391 0130 FFF7FEFF 		bl	float_constrain
 392              	.LVL15:
 144:Application/motor_task.c **** 
 393              		.loc 1 144 5 is_stmt 1 view .LVU108
 144:Application/motor_task.c **** 
 394              		.loc 1 144 95 is_stmt 0 view .LVU109
 395 0134 94ED221A 		vldr.32	s2, [r4, #136]
 144:Application/motor_task.c **** 
 396              		.loc 1 144 38 view .LVU110
 397 0138 F1EE410A 		vneg.f32	s1, s2
 398 013c FFF7FEFF 		bl	float_constrain
 399              	.LVL16:
 144:Application/motor_task.c **** 
 400              		.loc 1 144 36 view .LVU111
 401 0140 84ED210A 		vstr.32	s0, [r4, #132]
 147:Application/motor_task.c ****     VelocityLoopInput = float_constrain(exo_controller.dm_motor[0].PID_Angle.Output,
 402              		.loc 1 147 5 is_stmt 1 view .LVU112
 403 0144 844E     		ldr	r6, .L35+4
 404 0146 D6ED000A 		vldr.32	s1, [r6]
 405 014a 94EDB80A 		vldr.32	s0, [r4, #736]
 406 014e 04F59360 		add	r0, r4, #1176
 407 0152 FFF7FEFF 		bl	PID_Calculate
 408              	.LVL17:
 148:Application/motor_task.c ****                                         -exo_controller.dm_motor[0].PID_Angle.MaxOut, exo_controlle
 409              		.loc 1 148 5 view .LVU113
 149:Application/motor_task.c **** 
 410              		.loc 1 149 78 is_stmt 0 view .LVU114
 411 0156 04F59B63 		add	r3, r4, #1240
 412 015a 93ED001A 		vldr.32	s2, [r3]
 148:Application/motor_task.c ****                                         -exo_controller.dm_motor[0].PID_Angle.MaxOut, exo_controlle
 413              		.loc 1 148 25 view .LVU115
 414 015e 04F2CC43 		addw	r3, r4, #1228
 415 0162 F1EE410A 		vneg.f32	s1, s2
 416 0166 93ED000A 		vldr.32	s0, [r3]
 417 016a FFF7FEFF 		bl	float_constrain
 418              	.LVL18:
 419 016e F0EE400A 		vmov.f32	s1, s0
 420              	.LVL19:
 151:Application/motor_task.c ****     TorqueLoopInput = float_constrain(exo_controller.dm_motor[0].PID_Velocity.Output,
 421              		.loc 1 151 5 is_stmt 1 view .LVU116
 422 0172 94EDAF0A 		vldr.32	s0, [r4, #700]
 423              	.LVL20:
 151:Application/motor_task.c ****     TorqueLoopInput = float_constrain(exo_controller.dm_motor[0].PID_Velocity.Output,
 424              		.loc 1 151 5 is_stmt 0 view .LVU117
ARM GAS  C:\Users\86152\AppData\Local\Temp\cc7vityd.s 			page 13


 425 0176 04F57870 		add	r0, r4, #992
 426 017a FFF7FEFF 		bl	PID_Calculate
 427              	.LVL21:
 152:Application/motor_task.c ****                                       -exo_controller.dm_motor[0].PID_Velocity.MaxOut, exo_controll
 428              		.loc 1 152 5 is_stmt 1 view .LVU118
 153:Application/motor_task.c **** 
 429              		.loc 1 153 79 is_stmt 0 view .LVU119
 430 017e 04F58463 		add	r3, r4, #1056
 431 0182 93ED001A 		vldr.32	s2, [r3]
 152:Application/motor_task.c ****                                       -exo_controller.dm_motor[0].PID_Velocity.MaxOut, exo_controll
 432              		.loc 1 152 23 view .LVU120
 433 0186 04F21443 		addw	r3, r4, #1044
 434 018a F1EE410A 		vneg.f32	s1, s2
 435 018e 93ED000A 		vldr.32	s0, [r3]
 436 0192 FFF7FEFF 		bl	float_constrain
 437              	.LVL22:
 155:Application/motor_task.c **** 
 438              		.loc 1 155 5 is_stmt 1 view .LVU121
 155:Application/motor_task.c **** 
 439              		.loc 1 155 101 is_stmt 0 view .LVU122
 440 0196 94EDC81A 		vldr.32	s2, [r4, #800]
 155:Application/motor_task.c **** 
 441              		.loc 1 155 41 view .LVU123
 442 019a F1EE410A 		vneg.f32	s1, s2
 443 019e FFF7FEFF 		bl	float_constrain
 444              	.LVL23:
 155:Application/motor_task.c **** 
 445              		.loc 1 155 39 view .LVU124
 446 01a2 84EDC70A 		vstr.32	s0, [r4, #796]
 157:Application/motor_task.c ****     VelocityLoopInput = float_constrain(exo_controller.dm_motor[1].PID_Angle.Output,
 447              		.loc 1 157 5 is_stmt 1 view .LVU125
 448 01a6 04F5AF63 		add	r3, r4, #1400
 449 01aa 6C4A     		ldr	r2, .L35+8
 450 01ac D2ED000A 		vldr.32	s1, [r2]
 451 01b0 93ED000A 		vldr.32	s0, [r3]
 452 01b4 04F5E660 		add	r0, r4, #1840
 453 01b8 FFF7FEFF 		bl	PID_Calculate
 454              	.LVL24:
 158:Application/motor_task.c ****                                         -exo_controller.dm_motor[1].PID_Angle.MaxOut, exo_controlle
 455              		.loc 1 158 5 view .LVU126
 159:Application/motor_task.c **** 
 456              		.loc 1 159 78 is_stmt 0 view .LVU127
 457 01bc 04F5EE63 		add	r3, r4, #1904
 458 01c0 93ED001A 		vldr.32	s2, [r3]
 158:Application/motor_task.c ****                                         -exo_controller.dm_motor[1].PID_Angle.MaxOut, exo_controlle
 459              		.loc 1 158 25 view .LVU128
 460 01c4 04F26473 		addw	r3, r4, #1892
 461 01c8 F1EE410A 		vneg.f32	s1, s2
 462 01cc 93ED000A 		vldr.32	s0, [r3]
 463 01d0 FFF7FEFF 		bl	float_constrain
 464              	.LVL25:
 465 01d4 F0EE400A 		vmov.f32	s1, s0
 466              	.LVL26:
 161:Application/motor_task.c ****     TorqueLoopInput = float_constrain(exo_controller.dm_motor[1].PID_Velocity.Output,
 467              		.loc 1 161 5 is_stmt 1 view .LVU129
 468 01d8 04F25453 		addw	r3, r4, #1364
 469 01dc 93ED000A 		vldr.32	s0, [r3]
ARM GAS  C:\Users\86152\AppData\Local\Temp\cc7vityd.s 			page 14


 470              	.LVL27:
 161:Application/motor_task.c ****     TorqueLoopInput = float_constrain(exo_controller.dm_motor[1].PID_Velocity.Output,
 471              		.loc 1 161 5 is_stmt 0 view .LVU130
 472 01e0 04F5CF60 		add	r0, r4, #1656
 473 01e4 FFF7FEFF 		bl	PID_Calculate
 474              	.LVL28:
 162:Application/motor_task.c ****                                       -exo_controller.dm_motor[1].PID_Velocity.MaxOut, exo_controll
 475              		.loc 1 162 5 is_stmt 1 view .LVU131
 163:Application/motor_task.c **** 
 476              		.loc 1 163 79 is_stmt 0 view .LVU132
 477 01e8 04F5D763 		add	r3, r4, #1720
 478 01ec 93ED001A 		vldr.32	s2, [r3]
 162:Application/motor_task.c ****                                       -exo_controller.dm_motor[1].PID_Velocity.MaxOut, exo_controll
 479              		.loc 1 162 23 view .LVU133
 480 01f0 04F2AC63 		addw	r3, r4, #1708
 481 01f4 F1EE410A 		vneg.f32	s1, s2
 482 01f8 93ED000A 		vldr.32	s0, [r3]
 483 01fc FFF7FEFF 		bl	float_constrain
 484              	.LVL29:
 165:Application/motor_task.c **** 
 485              		.loc 1 165 5 is_stmt 1 view .LVU134
 165:Application/motor_task.c **** 
 486              		.loc 1 165 101 is_stmt 0 view .LVU135
 487 0200 04F5B763 		add	r3, r4, #1464
 488 0204 93ED001A 		vldr.32	s2, [r3]
 165:Application/motor_task.c **** 
 489              		.loc 1 165 41 view .LVU136
 490 0208 F1EE410A 		vneg.f32	s1, s2
 491 020c FFF7FEFF 		bl	float_constrain
 492              	.LVL30:
 165:Application/motor_task.c **** 
 493              		.loc 1 165 39 view .LVU137
 494 0210 04F2B453 		addw	r3, r4, #1460
 495 0214 83ED000A 		vstr.32	s0, [r3]
 167:Application/motor_task.c ****                           exo_controller.dm_motor[0].velocity_in_radps, TargetAngle1);
 496              		.loc 1 167 5 is_stmt 1 view .LVU138
 497 0218 96ED001A 		vldr.32	s2, [r6]
 498 021c D4EDAF0A 		vldr.32	s1, [r4, #700]
 499 0220 94EDB80A 		vldr.32	s0, [r4, #736]
 500 0224 04F52E70 		add	r0, r4, #696
 501 0228 FFF7FEFF 		bl	Motor_Angle_Calculate
 502              	.LVL31:
 170:Application/motor_task.c **** 
 503              		.loc 1 170 5 view .LVU139
 504 022c 0DE7     		b	.L17
 505              	.L34:
 136:Application/motor_task.c ****     else
 506              		.loc 1 136 7 view .LVU140
 136:Application/motor_task.c ****     else
 507              		.loc 1 136 77 is_stmt 0 view .LVU141
 508 022e 514B     		ldr	r3, .L35+32
 509 0230 93ED220A 		vldr.32	s0, [r3, #136]
 136:Application/motor_task.c ****     else
 510              		.loc 1 136 7 view .LVU142
 511 0234 4A4B     		ldr	r3, .L35+12
 512 0236 D3ED000A 		vldr.32	s1, [r3]
 513 023a B1EE400A 		vneg.f32	s0, s0
ARM GAS  C:\Users\86152\AppData\Local\Temp\cc7vityd.s 			page 15


 514 023e 4E48     		ldr	r0, .L35+36
 515 0240 FFF7FEFF 		bl	PID_Calculate
 516              	.LVL32:
 517 0244 59E7     		b	.L29
 518              	.L22:
 183:Application/motor_task.c ****     TorqueLoopInput = float_constrain(exo_controller.dm_motor[0].PID_Velocity.Output,
 519              		.loc 1 183 5 is_stmt 1 view .LVU143
 520 0246 434C     		ldr	r4, .L35
 521 0248 4C4B     		ldr	r3, .L35+40
 522 024a D3ED000A 		vldr.32	s1, [r3]
 523 024e 94EDAF0A 		vldr.32	s0, [r4, #700]
 524 0252 04F57870 		add	r0, r4, #992
 525 0256 FFF7FEFF 		bl	PID_Calculate
 526              	.LVL33:
 184:Application/motor_task.c ****                                       -exo_controller.dm_motor[0].PID_Velocity.MaxOut, exo_controll
 527              		.loc 1 184 5 view .LVU144
 185:Application/motor_task.c **** 
 528              		.loc 1 185 79 is_stmt 0 view .LVU145
 529 025a 04F58463 		add	r3, r4, #1056
 530 025e 93ED001A 		vldr.32	s2, [r3]
 184:Application/motor_task.c ****                                       -exo_controller.dm_motor[0].PID_Velocity.MaxOut, exo_controll
 531              		.loc 1 184 23 view .LVU146
 532 0262 04F21443 		addw	r3, r4, #1044
 533 0266 F1EE410A 		vneg.f32	s1, s2
 534 026a 93ED000A 		vldr.32	s0, [r3]
 535 026e FFF7FEFF 		bl	float_constrain
 536              	.LVL34:
 187:Application/motor_task.c **** 
 537              		.loc 1 187 5 is_stmt 1 view .LVU147
 187:Application/motor_task.c **** 
 538              		.loc 1 187 101 is_stmt 0 view .LVU148
 539 0272 94EDC81A 		vldr.32	s2, [r4, #800]
 187:Application/motor_task.c **** 
 540              		.loc 1 187 41 view .LVU149
 541 0276 F1EE410A 		vneg.f32	s1, s2
 542 027a FFF7FEFF 		bl	float_constrain
 543              	.LVL35:
 187:Application/motor_task.c **** 
 544              		.loc 1 187 39 view .LVU150
 545 027e 84EDC70A 		vstr.32	s0, [r4, #796]
 190:Application/motor_task.c ****     break;
 546              		.loc 1 190 5 is_stmt 1 view .LVU151
 190:Application/motor_task.c ****     break;
 547              		.loc 1 190 46 is_stmt 0 view .LVU152
 548 0282 D4F8E022 		ldr	r2, [r4, #736]	@ float
 190:Application/motor_task.c ****     break;
 549              		.loc 1 190 18 view .LVU153
 550 0286 344B     		ldr	r3, .L35+4
 551 0288 1A60     		str	r2, [r3]	@ float
 191:Application/motor_task.c **** 
 552              		.loc 1 191 5 is_stmt 1 view .LVU154
 553 028a DEE6     		b	.L17
 554              	.L21:
 194:Application/motor_task.c ****     TargetAngle1 = exo_controller.lk_motor.angle_in_degree;
 555              		.loc 1 194 5 view .LVU155
 194:Application/motor_task.c ****     TargetAngle1 = exo_controller.lk_motor.angle_in_degree;
 556              		.loc 1 194 36 is_stmt 0 view .LVU156
ARM GAS  C:\Users\86152\AppData\Local\Temp\cc7vityd.s 			page 16


 557 028c 314B     		ldr	r3, .L35
 558 028e 3C4A     		ldr	r2, .L35+44
 559 0290 B2F90020 		ldrsh	r2, [r2]
 560 0294 07EE902A 		vmov	s15, r2	@ int
 561 0298 F8EEE77A 		vcvt.f32.s32	s15, s15
 562 029c C3ED217A 		vstr.32	s15, [r3, #132]
 195:Application/motor_task.c ****     break;
 563              		.loc 1 195 5 is_stmt 1 view .LVU157
 195:Application/motor_task.c ****     break;
 564              		.loc 1 195 43 is_stmt 0 view .LVU158
 565 02a0 9A6C     		ldr	r2, [r3, #72]	@ float
 195:Application/motor_task.c ****     break;
 566              		.loc 1 195 18 view .LVU159
 567 02a2 2D4B     		ldr	r3, .L35+4
 568 02a4 1A60     		str	r2, [r3]	@ float
 196:Application/motor_task.c **** 
 569              		.loc 1 196 5 is_stmt 1 view .LVU160
 570 02a6 D0E6     		b	.L17
 571              	.L19:
 199:Application/motor_task.c ****     PID_Calculate(&exo_controller.lk_motor.PID_Angle, exo_controller.lk_motor.angle_in_degree, Targ
 572              		.loc 1 199 5 view .LVU161
 199:Application/motor_task.c ****     PID_Calculate(&exo_controller.lk_motor.PID_Angle, exo_controller.lk_motor.angle_in_degree, Targ
 573              		.loc 1 199 46 is_stmt 0 view .LVU162
 574 02a8 2A4C     		ldr	r4, .L35
 575 02aa 94ED047A 		vldr.32	s14, [r4, #16]
 199:Application/motor_task.c ****     PID_Calculate(&exo_controller.lk_motor.PID_Angle, exo_controller.lk_motor.angle_in_degree, Targ
 576              		.loc 1 199 30 view .LVU163
 577 02ae 2D4B     		ldr	r3, .L35+16
 578 02b0 D3ED007A 		vldr.32	s15, [r3]
 199:Application/motor_task.c ****     PID_Calculate(&exo_controller.lk_motor.PID_Angle, exo_controller.lk_motor.angle_in_degree, Targ
 579              		.loc 1 199 24 view .LVU164
 580 02b4 67EE277A 		vmul.f32	s15, s14, s15
 581 02b8 17EE900A 		vmov	r0, s15
 582 02bc FFF7FEFF 		bl	__aeabi_f2d
 583              	.LVL36:
 584 02c0 41EC100B 		vmov	d0, r0, r1
 585 02c4 FFF7FEFF 		bl	sin
 586              	.LVL37:
 587 02c8 57EC106B 		vmov	r6, r7, d0
 199:Application/motor_task.c ****     PID_Calculate(&exo_controller.lk_motor.PID_Angle, exo_controller.lk_motor.angle_in_degree, Targ
 588              		.loc 1 199 22 view .LVU165
 589 02cc 274B     		ldr	r3, .L35+24
 590 02ce 1868     		ldr	r0, [r3]	@ float
 591 02d0 FFF7FEFF 		bl	__aeabi_f2d
 592              	.LVL38:
 593 02d4 3246     		mov	r2, r6
 594 02d6 3B46     		mov	r3, r7
 595 02d8 FFF7FEFF 		bl	__aeabi_dmul
 596              	.LVL39:
 597 02dc 0646     		mov	r6, r0
 598 02de 0F46     		mov	r7, r1
 199:Application/motor_task.c ****     PID_Calculate(&exo_controller.lk_motor.PID_Angle, exo_controller.lk_motor.angle_in_degree, Targ
 599              		.loc 1 199 50 view .LVU166
 600 02e0 234B     		ldr	r3, .L35+28
 601 02e2 1868     		ldr	r0, [r3]	@ float
 602 02e4 FFF7FEFF 		bl	__aeabi_f2d
 603              	.LVL40:
ARM GAS  C:\Users\86152\AppData\Local\Temp\cc7vityd.s 			page 17


 604 02e8 3246     		mov	r2, r6
 605 02ea 3B46     		mov	r3, r7
 606 02ec FFF7FEFF 		bl	__aeabi_dadd
 607              	.LVL41:
 608 02f0 FFF7FEFF 		bl	__aeabi_d2f
 609              	.LVL42:
 610 02f4 00EE900A 		vmov	s1, r0
 199:Application/motor_task.c ****     PID_Calculate(&exo_controller.lk_motor.PID_Angle, exo_controller.lk_motor.angle_in_degree, Targ
 611              		.loc 1 199 18 view .LVU167
 612 02f8 174B     		ldr	r3, .L35+4
 613 02fa 1860     		str	r0, [r3]	@ float
 200:Application/motor_task.c ****     VelocityLoopInput = float_constrain(exo_controller.lk_motor.PID_Angle.Output,
 614              		.loc 1 200 5 is_stmt 1 view .LVU168
 615 02fc 94ED120A 		vldr.32	s0, [r4, #72]
 616 0300 04F50070 		add	r0, r4, #512
 617 0304 FFF7FEFF 		bl	PID_Calculate
 618              	.LVL43:
 201:Application/motor_task.c ****                                         -exo_controller.lk_motor.PID_Angle.MaxOut, exo_controller.l
 619              		.loc 1 201 5 view .LVU169
 202:Application/motor_task.c **** 
 620              		.loc 1 202 75 is_stmt 0 view .LVU170
 621 0308 94ED901A 		vldr.32	s2, [r4, #576]
 201:Application/motor_task.c ****                                         -exo_controller.lk_motor.PID_Angle.MaxOut, exo_controller.l
 622              		.loc 1 201 25 view .LVU171
 623 030c F1EE410A 		vneg.f32	s1, s2
 624 0310 94ED8D0A 		vldr.32	s0, [r4, #564]
 625 0314 FFF7FEFF 		bl	float_constrain
 626              	.LVL44:
 627 0318 F0EE400A 		vmov.f32	s1, s0
 628              	.LVL45:
 204:Application/motor_task.c ****     TorqueLoopInput = float_constrain(exo_controller.lk_motor.PID_Velocity.Output,
 629              		.loc 1 204 5 is_stmt 1 view .LVU172
 204:Application/motor_task.c ****     TorqueLoopInput = float_constrain(exo_controller.lk_motor.PID_Velocity.Output,
 630              		.loc 1 204 81 is_stmt 0 view .LVU173
 631 031c B4F92C30 		ldrsh	r3, [r4, #44]
 632 0320 00EE103A 		vmov	s0, r3	@ int
 633              	.LVL46:
 204:Application/motor_task.c ****     TorqueLoopInput = float_constrain(exo_controller.lk_motor.PID_Velocity.Output,
 634              		.loc 1 204 5 view .LVU174
 635 0324 B8EEC00A 		vcvt.f32.s32	s0, s0
 636 0328 04F5A470 		add	r0, r4, #328
 637 032c FFF7FEFF 		bl	PID_Calculate
 638              	.LVL47:
 205:Application/motor_task.c ****                                       -exo_controller.lk_motor.PID_Velocity.MaxOut, exo_controller.
 639              		.loc 1 205 5 is_stmt 1 view .LVU175
 206:Application/motor_task.c **** 
 640              		.loc 1 206 76 is_stmt 0 view .LVU176
 641 0330 94ED621A 		vldr.32	s2, [r4, #392]
 205:Application/motor_task.c ****                                       -exo_controller.lk_motor.PID_Velocity.MaxOut, exo_controller.
 642              		.loc 1 205 23 view .LVU177
 643 0334 F1EE410A 		vneg.f32	s1, s2
 644 0338 94ED5F0A 		vldr.32	s0, [r4, #380]
 645 033c FFF7FEFF 		bl	float_constrain
 646              	.LVL48:
 208:Application/motor_task.c ****     break;
 647              		.loc 1 208 5 is_stmt 1 view .LVU178
 208:Application/motor_task.c ****     break;
ARM GAS  C:\Users\86152\AppData\Local\Temp\cc7vityd.s 			page 18


 648              		.loc 1 208 95 is_stmt 0 view .LVU179
 649 0340 94ED221A 		vldr.32	s2, [r4, #136]
 208:Application/motor_task.c ****     break;
 650              		.loc 1 208 38 view .LVU180
 651 0344 F1EE410A 		vneg.f32	s1, s2
 652 0348 FFF7FEFF 		bl	float_constrain
 653              	.LVL49:
 208:Application/motor_task.c ****     break;
 654              		.loc 1 208 36 view .LVU181
 655 034c 84ED210A 		vstr.32	s0, [r4, #132]
 209:Application/motor_task.c ****   }
 656              		.loc 1 209 5 is_stmt 1 view .LVU182
 657              	.LBE3:
 658              		.loc 1 211 1 is_stmt 0 view .LVU183
 659 0350 7BE6     		b	.L17
 660              	.L36:
 661 0352 00BF     		.align	2
 662              	.L35:
 663 0354 00000000 		.word	.LANCHOR2
 664 0358 00000000 		.word	.LANCHOR5
 665 035c 00000000 		.word	.LANCHOR6
 666 0360 00000000 		.word	.LANCHOR7
 667 0364 00000000 		.word	.LANCHOR8
 668 0368 DB0F4940 		.word	1078530011
 669 036c 00000000 		.word	.LANCHOR9
 670 0370 00000000 		.word	.LANCHOR10
 671 0374 00000000 		.word	INS
 672 0378 00020000 		.word	.LANCHOR2+512
 673 037c 00000000 		.word	.LANCHOR11
 674 0380 00000000 		.word	.LANCHOR12
 675              		.cfi_endproc
 676              	.LFE174:
 678              		.section	.text.send_exo_motor_current,"ax",%progbits
 679              		.align	1
 680              		.syntax unified
 681              		.thumb
 682              		.thumb_func
 684              	send_exo_motor_current:
 685              	.LFB177:
 212:Application/motor_task.c **** 
 213:Application/motor_task.c **** static void limit_exo_ctrl_value(void)
 214:Application/motor_task.c **** {
 215:Application/motor_task.c ****   ;
 216:Application/motor_task.c **** }
 217:Application/motor_task.c **** 
 218:Application/motor_task.c **** static void set_exo_control(void)
 219:Application/motor_task.c **** {
 220:Application/motor_task.c ****   ;
 221:Application/motor_task.c **** }
 222:Application/motor_task.c **** 
 223:Application/motor_task.c **** static void send_exo_motor_current(void)
 224:Application/motor_task.c **** {
 686              		.loc 1 224 1 is_stmt 1 view -0
 687              		.cfi_startproc
 688              		@ args = 0, pretend = 0, frame = 0
 689              		@ frame_needed = 0, uses_anonymous_args = 0
 690 0000 70B5     		push	{r4, r5, r6, lr}
ARM GAS  C:\Users\86152\AppData\Local\Temp\cc7vityd.s 			page 19


 691              	.LCFI2:
 692              		.cfi_def_cfa_offset 16
 693              		.cfi_offset 4, -16
 694              		.cfi_offset 5, -12
 695              		.cfi_offset 6, -8
 696              		.cfi_offset 14, -4
 697 0002 2DED028B 		vpush.64	{d8}
 698              	.LCFI3:
 699              		.cfi_def_cfa_offset 24
 700              		.cfi_offset 80, -24
 701              		.cfi_offset 81, -20
 225:Application/motor_task.c ****   static uint8_t CAN_send_status;
 702              		.loc 1 225 3 view .LVU185
 226:Application/motor_task.c **** 
 227:Application/motor_task.c ****   // Serial_Debug(&huart1, 1, exo_controller.lk_motor.PID_Angle.Ref, exo_controller.lk_motor.PID_An
 228:Application/motor_task.c ****   //              exo_controller.lk_motor.PID_Angle.Pout, exo_controller.lk_motor.PID_Angle.Iout, e
 229:Application/motor_task.c ****   if (exo_controller.mode == SILENCE_MODE)
 703              		.loc 1 229 3 view .LVU186
 704              		.loc 1 229 21 is_stmt 0 view .LVU187
 705 0006 684B     		ldr	r3, .L49
 706 0008 1B78     		ldrb	r3, [r3]	@ zero_extendqisi2
 707              		.loc 1 229 6 view .LVU188
 708 000a 002B     		cmp	r3, #0
 709 000c 62D1     		bne	.L38
 230:Application/motor_task.c ****   {
 231:Application/motor_task.c ****     // 发送输出
 232:Application/motor_task.c ****     IMU_RequestData(&hcan2, 0x01, reg);
 710              		.loc 1 232 5 is_stmt 1 view .LVU189
 711 000e 674C     		ldr	r4, .L49+4
 712 0010 2278     		ldrb	r2, [r4]	@ zero_extendqisi2
 713 0012 0121     		movs	r1, #1
 714 0014 6648     		ldr	r0, .L49+8
 715 0016 FFF7FEFF 		bl	IMU_RequestData
 716              	.LVL50:
 233:Application/motor_task.c ****     if (reg == 0x01)
 717              		.loc 1 233 5 view .LVU190
 718              		.loc 1 233 13 is_stmt 0 view .LVU191
 719 001a 2378     		ldrb	r3, [r4]	@ zero_extendqisi2
 720              		.loc 1 233 8 view .LVU192
 721 001c 012B     		cmp	r3, #1
 722 001e 52D0     		beq	.L45
 234:Application/motor_task.c ****       reg = 0x02; // 0x01:accel, 0x02:gyro, 0x03:euler, 0x04:quaternion
 235:Application/motor_task.c ****     else if (reg == 0x02)
 723              		.loc 1 235 10 is_stmt 1 view .LVU193
 724              		.loc 1 235 13 is_stmt 0 view .LVU194
 725 0020 022B     		cmp	r3, #2
 726 0022 53D0     		beq	.L46
 727              	.L40:
 236:Application/motor_task.c ****       reg = 0x01;
 237:Application/motor_task.c **** 
 238:Application/motor_task.c ****     CAN_send_status = Send_DM_MIT_Command(&hcan1, 0X01, 0, 0, 0, 0, 0);
 728              		.loc 1 238 5 is_stmt 1 view .LVU195
 729              		.loc 1 238 23 is_stmt 0 view .LVU196
 730 0024 9FED638A 		vldr.32	s16, .L49+12
 731 0028 634D     		ldr	r5, .L49+16
 732 002a B0EE482A 		vmov.f32	s4, s16
 733 002e F0EE481A 		vmov.f32	s3, s16
ARM GAS  C:\Users\86152\AppData\Local\Temp\cc7vityd.s 			page 20


 734 0032 B0EE481A 		vmov.f32	s2, s16
 735 0036 F0EE480A 		vmov.f32	s1, s16
 736 003a B0EE480A 		vmov.f32	s0, s16
 737 003e 0121     		movs	r1, #1
 738 0040 2846     		mov	r0, r5
 739 0042 FFF7FEFF 		bl	Send_DM_MIT_Command
 740              	.LVL51:
 741              		.loc 1 238 21 view .LVU197
 742 0046 5D4C     		ldr	r4, .L49+20
 743 0048 2070     		strb	r0, [r4]
 239:Application/motor_task.c ****     DWT_Delay(0.0003f);
 744              		.loc 1 239 5 is_stmt 1 view .LVU198
 745 004a DFED5D8A 		vldr.32	s17, .L49+24
 746 004e B0EE680A 		vmov.f32	s0, s17
 747 0052 FFF7FEFF 		bl	DWT_Delay
 748              	.LVL52:
 240:Application/motor_task.c ****     CAN_send_status = CAN_send_status | Send_DM_MIT_Command(&hcan1, 0X02, 0, 0, 0, 0, 0);
 749              		.loc 1 240 5 view .LVU199
 750              		.loc 1 240 41 is_stmt 0 view .LVU200
 751 0056 B0EE482A 		vmov.f32	s4, s16
 752 005a F0EE481A 		vmov.f32	s3, s16
 753 005e B0EE481A 		vmov.f32	s2, s16
 754 0062 F0EE480A 		vmov.f32	s1, s16
 755 0066 B0EE480A 		vmov.f32	s0, s16
 756 006a 0221     		movs	r1, #2
 757 006c 2846     		mov	r0, r5
 758 006e FFF7FEFF 		bl	Send_DM_MIT_Command
 759              	.LVL53:
 760              		.loc 1 240 21 view .LVU201
 761 0072 2378     		ldrb	r3, [r4]	@ zero_extendqisi2
 762 0074 1843     		orrs	r0, r0, r3
 763 0076 2070     		strb	r0, [r4]
 241:Application/motor_task.c ****     DWT_Delay(0.0003f);
 764              		.loc 1 241 5 is_stmt 1 view .LVU202
 765 0078 B0EE680A 		vmov.f32	s0, s17
 766 007c FFF7FEFF 		bl	DWT_Delay
 767              	.LVL54:
 242:Application/motor_task.c ****     CAN_send_status = CAN_send_status | Send_DM_MIT_Command(&hcan1, 0X03, 0, 0, 0, 0, 0);
 768              		.loc 1 242 5 view .LVU203
 769              		.loc 1 242 41 is_stmt 0 view .LVU204
 770 0080 B0EE482A 		vmov.f32	s4, s16
 771 0084 F0EE481A 		vmov.f32	s3, s16
 772 0088 B0EE481A 		vmov.f32	s2, s16
 773 008c F0EE480A 		vmov.f32	s1, s16
 774 0090 B0EE480A 		vmov.f32	s0, s16
 775 0094 0321     		movs	r1, #3
 776 0096 2846     		mov	r0, r5
 777 0098 FFF7FEFF 		bl	Send_DM_MIT_Command
 778              	.LVL55:
 779              		.loc 1 242 21 view .LVU205
 780 009c 2378     		ldrb	r3, [r4]	@ zero_extendqisi2
 781 009e 1843     		orrs	r0, r0, r3
 782 00a0 2070     		strb	r0, [r4]
 243:Application/motor_task.c ****     exo_controller.CAN_send_status = CAN_send_status | Send_LK_Current_Single(&hcan2, 1, 0);
 783              		.loc 1 243 5 is_stmt 1 view .LVU206
 784              		.loc 1 243 56 is_stmt 0 view .LVU207
 785 00a2 0022     		movs	r2, #0
ARM GAS  C:\Users\86152\AppData\Local\Temp\cc7vityd.s 			page 21


 786 00a4 0121     		movs	r1, #1
 787 00a6 4248     		ldr	r0, .L49+8
 788 00a8 FFF7FEFF 		bl	Send_LK_Current_Single
 789              	.LVL56:
 790              		.loc 1 243 36 view .LVU208
 791 00ac 2378     		ldrb	r3, [r4]	@ zero_extendqisi2
 792 00ae 1843     		orrs	r0, r0, r3
 793 00b0 C0B2     		uxtb	r0, r0
 794 00b2 3D4B     		ldr	r3, .L49
 795 00b4 1876     		strb	r0, [r3, #24]
 244:Application/motor_task.c **** 
 245:Application/motor_task.c ****     if (exo_controller.CAN_send_status == HAL_OK)
 796              		.loc 1 245 5 is_stmt 1 view .LVU209
 797              		.loc 1 245 8 is_stmt 0 view .LVU210
 798 00b6 18B1     		cbz	r0, .L37
 246:Application/motor_task.c ****       ;
 247:Application/motor_task.c ****     else
 248:Application/motor_task.c ****       exo_controller.CAN_send_error_count++;
 799              		.loc 1 248 7 is_stmt 1 view .LVU211
 800              		.loc 1 248 21 is_stmt 0 view .LVU212
 801 00b8 1A46     		mov	r2, r3
 802 00ba 5B69     		ldr	r3, [r3, #20]
 803              		.loc 1 248 42 view .LVU213
 804 00bc 0133     		adds	r3, r3, #1
 805 00be 5361     		str	r3, [r2, #20]
 806              	.L37:
 249:Application/motor_task.c ****   }
 250:Application/motor_task.c ****   else
 251:Application/motor_task.c ****   {
 252:Application/motor_task.c ****     IMU_RequestData(&hcan2, 0x01, reg);
 253:Application/motor_task.c ****     if (reg == 0x01)
 254:Application/motor_task.c ****       reg = 0x02; // 0x01:accel, 0x02:gyro, 0x03:euler, 0x04:quaternion
 255:Application/motor_task.c ****     else if (reg == 0x02)
 256:Application/motor_task.c ****       reg = 0x01;
 257:Application/motor_task.c **** 
 258:Application/motor_task.c ****     CAN_send_status = Send_DM_MIT_Command(&hcan1, 0X01, 0, 0, 0, 0, exo_controller.dm_motor[0].Outp
 259:Application/motor_task.c ****     DWT_Delay(0.0003f);
 260:Application/motor_task.c ****     CAN_send_status = CAN_send_status | Send_DM_MIT_Command(&hcan1, 0X02, 0, 0, 0, 0, exo_controlle
 261:Application/motor_task.c ****     DWT_Delay(0.0003f);
 262:Application/motor_task.c ****     CAN_send_status = CAN_send_status | Send_DM_MIT_Command(&hcan1, 0X03, 0, 0, 0, 0, TargetTorque)
 263:Application/motor_task.c ****     exo_controller.CAN_send_status = CAN_send_status | Send_LK_Current_Single(&hcan2, 1, exo_contro
 264:Application/motor_task.c **** 
 265:Application/motor_task.c ****     if (exo_controller.CAN_send_status == HAL_OK)
 266:Application/motor_task.c ****       ;
 267:Application/motor_task.c ****     else
 268:Application/motor_task.c ****       exo_controller.CAN_send_error_count++;
 269:Application/motor_task.c ****   }
 270:Application/motor_task.c **** }
 807              		.loc 1 270 1 view .LVU214
 808 00c0 BDEC028B 		vldm	sp!, {d8}
 809              	.LCFI4:
 810              		.cfi_remember_state
 811              		.cfi_restore 80
 812              		.cfi_restore 81
 813              		.cfi_def_cfa_offset 16
 814 00c4 70BD     		pop	{r4, r5, r6, pc}
 815              	.L45:
ARM GAS  C:\Users\86152\AppData\Local\Temp\cc7vityd.s 			page 22


 816              	.LCFI5:
 817              		.cfi_restore_state
 234:Application/motor_task.c ****     else if (reg == 0x02)
 818              		.loc 1 234 7 is_stmt 1 view .LVU215
 234:Application/motor_task.c ****     else if (reg == 0x02)
 819              		.loc 1 234 11 is_stmt 0 view .LVU216
 820 00c6 0222     		movs	r2, #2
 821 00c8 2270     		strb	r2, [r4]
 822 00ca ABE7     		b	.L40
 823              	.L46:
 236:Application/motor_task.c **** 
 824              		.loc 1 236 7 is_stmt 1 view .LVU217
 236:Application/motor_task.c **** 
 825              		.loc 1 236 11 is_stmt 0 view .LVU218
 826 00cc 374B     		ldr	r3, .L49+4
 827 00ce 0122     		movs	r2, #1
 828 00d0 1A70     		strb	r2, [r3]
 829 00d2 A7E7     		b	.L40
 830              	.L38:
 252:Application/motor_task.c ****     if (reg == 0x01)
 831              		.loc 1 252 5 is_stmt 1 view .LVU219
 832 00d4 354C     		ldr	r4, .L49+4
 833 00d6 2278     		ldrb	r2, [r4]	@ zero_extendqisi2
 834 00d8 0121     		movs	r1, #1
 835 00da 3548     		ldr	r0, .L49+8
 836 00dc FFF7FEFF 		bl	IMU_RequestData
 837              	.LVL57:
 253:Application/motor_task.c ****       reg = 0x02; // 0x01:accel, 0x02:gyro, 0x03:euler, 0x04:quaternion
 838              		.loc 1 253 5 view .LVU220
 253:Application/motor_task.c ****       reg = 0x02; // 0x01:accel, 0x02:gyro, 0x03:euler, 0x04:quaternion
 839              		.loc 1 253 13 is_stmt 0 view .LVU221
 840 00e0 2378     		ldrb	r3, [r4]	@ zero_extendqisi2
 253:Application/motor_task.c ****       reg = 0x02; // 0x01:accel, 0x02:gyro, 0x03:euler, 0x04:quaternion
 841              		.loc 1 253 8 view .LVU222
 842 00e2 012B     		cmp	r3, #1
 843 00e4 59D0     		beq	.L47
 255:Application/motor_task.c ****       reg = 0x01;
 844              		.loc 1 255 10 is_stmt 1 view .LVU223
 255:Application/motor_task.c ****       reg = 0x01;
 845              		.loc 1 255 13 is_stmt 0 view .LVU224
 846 00e6 022B     		cmp	r3, #2
 847 00e8 5AD0     		beq	.L48
 848              	.L43:
 258:Application/motor_task.c ****     DWT_Delay(0.0003f);
 849              		.loc 1 258 5 is_stmt 1 view .LVU225
 258:Application/motor_task.c ****     DWT_Delay(0.0003f);
 850              		.loc 1 258 23 is_stmt 0 view .LVU226
 851 00ea 2F4D     		ldr	r5, .L49
 852 00ec 9FED318A 		vldr.32	s16, .L49+12
 853 00f0 314E     		ldr	r6, .L49+16
 854 00f2 95EDC72A 		vldr.32	s4, [r5, #796]
 855 00f6 F0EE481A 		vmov.f32	s3, s16
 856 00fa B0EE481A 		vmov.f32	s2, s16
 857 00fe F0EE480A 		vmov.f32	s1, s16
 858 0102 B0EE480A 		vmov.f32	s0, s16
 859 0106 0121     		movs	r1, #1
 860 0108 3046     		mov	r0, r6
ARM GAS  C:\Users\86152\AppData\Local\Temp\cc7vityd.s 			page 23


 861 010a FFF7FEFF 		bl	Send_DM_MIT_Command
 862              	.LVL58:
 258:Application/motor_task.c ****     DWT_Delay(0.0003f);
 863              		.loc 1 258 21 view .LVU227
 864 010e 2B4C     		ldr	r4, .L49+20
 865 0110 2070     		strb	r0, [r4]
 259:Application/motor_task.c ****     CAN_send_status = CAN_send_status | Send_DM_MIT_Command(&hcan1, 0X02, 0, 0, 0, 0, exo_controlle
 866              		.loc 1 259 5 is_stmt 1 view .LVU228
 867 0112 DFED2B8A 		vldr.32	s17, .L49+24
 868 0116 B0EE680A 		vmov.f32	s0, s17
 869 011a FFF7FEFF 		bl	DWT_Delay
 870              	.LVL59:
 260:Application/motor_task.c ****     DWT_Delay(0.0003f);
 871              		.loc 1 260 5 view .LVU229
 260:Application/motor_task.c ****     DWT_Delay(0.0003f);
 872              		.loc 1 260 41 is_stmt 0 view .LVU230
 873 011e 05F2B453 		addw	r3, r5, #1460
 874 0122 93ED002A 		vldr.32	s4, [r3]
 875 0126 F0EE481A 		vmov.f32	s3, s16
 876 012a B0EE481A 		vmov.f32	s2, s16
 877 012e F0EE480A 		vmov.f32	s1, s16
 878 0132 B0EE480A 		vmov.f32	s0, s16
 879 0136 0221     		movs	r1, #2
 880 0138 3046     		mov	r0, r6
 881 013a FFF7FEFF 		bl	Send_DM_MIT_Command
 882              	.LVL60:
 260:Application/motor_task.c ****     DWT_Delay(0.0003f);
 883              		.loc 1 260 21 view .LVU231
 884 013e 2378     		ldrb	r3, [r4]	@ zero_extendqisi2
 885 0140 1843     		orrs	r0, r0, r3
 886 0142 2070     		strb	r0, [r4]
 261:Application/motor_task.c ****     CAN_send_status = CAN_send_status | Send_DM_MIT_Command(&hcan1, 0X03, 0, 0, 0, 0, TargetTorque)
 887              		.loc 1 261 5 is_stmt 1 view .LVU232
 888 0144 B0EE680A 		vmov.f32	s0, s17
 889 0148 FFF7FEFF 		bl	DWT_Delay
 890              	.LVL61:
 262:Application/motor_task.c ****     exo_controller.CAN_send_status = CAN_send_status | Send_LK_Current_Single(&hcan2, 1, exo_contro
 891              		.loc 1 262 5 view .LVU233
 262:Application/motor_task.c ****     exo_controller.CAN_send_status = CAN_send_status | Send_LK_Current_Single(&hcan2, 1, exo_contro
 892              		.loc 1 262 41 is_stmt 0 view .LVU234
 893 014c 1D4B     		ldr	r3, .L49+28
 894 014e 93ED002A 		vldr.32	s4, [r3]
 895 0152 F0EE481A 		vmov.f32	s3, s16
 896 0156 B0EE481A 		vmov.f32	s2, s16
 897 015a F0EE480A 		vmov.f32	s1, s16
 898 015e B0EE480A 		vmov.f32	s0, s16
 899 0162 0321     		movs	r1, #3
 900 0164 3046     		mov	r0, r6
 901 0166 FFF7FEFF 		bl	Send_DM_MIT_Command
 902              	.LVL62:
 262:Application/motor_task.c ****     exo_controller.CAN_send_status = CAN_send_status | Send_LK_Current_Single(&hcan2, 1, exo_contro
 903              		.loc 1 262 21 view .LVU235
 904 016a 2378     		ldrb	r3, [r4]	@ zero_extendqisi2
 905 016c 1843     		orrs	r0, r0, r3
 906 016e 2070     		strb	r0, [r4]
 263:Application/motor_task.c **** 
 907              		.loc 1 263 5 is_stmt 1 view .LVU236
ARM GAS  C:\Users\86152\AppData\Local\Temp\cc7vityd.s 			page 24


 263:Application/motor_task.c **** 
 908              		.loc 1 263 113 is_stmt 0 view .LVU237
 909 0170 D5ED217A 		vldr.32	s15, [r5, #132]
 263:Application/motor_task.c **** 
 910              		.loc 1 263 56 view .LVU238
 911 0174 FDEEE77A 		vcvt.s32.f32	s15, s15
 912 0178 17EE903A 		vmov	r3, s15	@ int
 913 017c 1AB2     		sxth	r2, r3
 914 017e 0121     		movs	r1, #1
 915 0180 0B48     		ldr	r0, .L49+8
 916 0182 FFF7FEFF 		bl	Send_LK_Current_Single
 917              	.LVL63:
 263:Application/motor_task.c **** 
 918              		.loc 1 263 36 view .LVU239
 919 0186 2378     		ldrb	r3, [r4]	@ zero_extendqisi2
 920 0188 1843     		orrs	r0, r0, r3
 921 018a C0B2     		uxtb	r0, r0
 922 018c 2876     		strb	r0, [r5, #24]
 265:Application/motor_task.c ****       ;
 923              		.loc 1 265 5 is_stmt 1 view .LVU240
 265:Application/motor_task.c ****       ;
 924              		.loc 1 265 8 is_stmt 0 view .LVU241
 925 018e 0028     		cmp	r0, #0
 926 0190 96D0     		beq	.L37
 268:Application/motor_task.c ****   }
 927              		.loc 1 268 7 is_stmt 1 view .LVU242
 268:Application/motor_task.c ****   }
 928              		.loc 1 268 21 is_stmt 0 view .LVU243
 929 0192 6B69     		ldr	r3, [r5, #20]
 268:Application/motor_task.c ****   }
 930              		.loc 1 268 42 view .LVU244
 931 0194 0133     		adds	r3, r3, #1
 932 0196 6B61     		str	r3, [r5, #20]
 933              		.loc 1 270 1 view .LVU245
 934 0198 92E7     		b	.L37
 935              	.L47:
 254:Application/motor_task.c ****     else if (reg == 0x02)
 936              		.loc 1 254 7 is_stmt 1 view .LVU246
 254:Application/motor_task.c ****     else if (reg == 0x02)
 937              		.loc 1 254 11 is_stmt 0 view .LVU247
 938 019a 0222     		movs	r2, #2
 939 019c 2270     		strb	r2, [r4]
 940 019e A4E7     		b	.L43
 941              	.L48:
 256:Application/motor_task.c **** 
 942              		.loc 1 256 7 is_stmt 1 view .LVU248
 256:Application/motor_task.c **** 
 943              		.loc 1 256 11 is_stmt 0 view .LVU249
 944 01a0 024B     		ldr	r3, .L49+4
 945 01a2 0122     		movs	r2, #1
 946 01a4 1A70     		strb	r2, [r3]
 947 01a6 A0E7     		b	.L43
 948              	.L50:
 949              		.align	2
 950              	.L49:
 951 01a8 00000000 		.word	.LANCHOR2
 952 01ac 00000000 		.word	.LANCHOR13
ARM GAS  C:\Users\86152\AppData\Local\Temp\cc7vityd.s 			page 25


 953 01b0 00000000 		.word	hcan2
 954 01b4 00000000 		.word	0
 955 01b8 00000000 		.word	hcan1
 956 01bc 00000000 		.word	.LANCHOR14
 957 01c0 52499D39 		.word	966609234
 958 01c4 00000000 		.word	.LANCHOR15
 959              		.cfi_endproc
 960              	.LFE177:
 962              		.section	.text.exo_init,"ax",%progbits
 963              		.align	1
 964              		.global	exo_init
 965              		.syntax unified
 966              		.thumb
 967              		.thumb_func
 969              	exo_init:
 970              	.LFB171:
  20:Application/motor_task.c ****   // PID初始化
 971              		.loc 1 20 1 is_stmt 1 view -0
 972              		.cfi_startproc
 973              		@ args = 0, pretend = 0, frame = 0
 974              		@ frame_needed = 0, uses_anonymous_args = 0
 975 0000 10B5     		push	{r4, lr}
 976              	.LCFI6:
 977              		.cfi_def_cfa_offset 8
 978              		.cfi_offset 4, -8
 979              		.cfi_offset 14, -4
 980 0002 2DED0A8B 		vpush.64	{d8, d9, d10, d11, d12}
 981              	.LCFI7:
 982              		.cfi_def_cfa_offset 48
 983              		.cfi_offset 80, -48
 984              		.cfi_offset 81, -44
 985              		.cfi_offset 82, -40
 986              		.cfi_offset 83, -36
 987              		.cfi_offset 84, -32
 988              		.cfi_offset 85, -28
 989              		.cfi_offset 86, -24
 990              		.cfi_offset 87, -20
 991              		.cfi_offset 88, -16
 992              		.cfi_offset 89, -12
  22:Application/motor_task.c ****   PID_Init(&exo_controller.lk_motor.PID_Angle, 8600, 4000, 0, 30, 1, 1, 0, 0, 0, 0, 0, Integral_Lim
 993              		.loc 1 22 3 view .LVU251
 994 0006 9FED918A 		vldr.32	s16, .L53
 995 000a 9FED91AA 		vldr.32	s20, .L53+4
 996 000e DFED919A 		vldr.32	s19, .L53+8
 997 0012 914C     		ldr	r4, .L53+12
 998 0014 1522     		movs	r2, #21
 999 0016 0021     		movs	r1, #0
 1000 0018 F0EE484A 		vmov.f32	s9, s16
 1001 001c B0EE484A 		vmov.f32	s8, s16
 1002 0020 F0EE483A 		vmov.f32	s7, s16
 1003 0024 B0EE483A 		vmov.f32	s6, s16
 1004 0028 F0EE482A 		vmov.f32	s5, s16
 1005 002c B0EE4A2A 		vmov.f32	s4, s20
 1006 0030 F7EE081A 		vmov.f32	s3, #1.5e+0
 1007 0034 B0EE481A 		vmov.f32	s2, s16
 1008 0038 F0EE690A 		vmov.f32	s1, s19
 1009 003c 9FED870A 		vldr.32	s0, .L53+16
ARM GAS  C:\Users\86152\AppData\Local\Temp\cc7vityd.s 			page 26


 1010 0040 04F5A470 		add	r0, r4, #328
 1011 0044 FFF7FEFF 		bl	PID_Init
 1012              	.LVL64:
  23:Application/motor_task.c ****   exo_controller.lk_motor.zero_offset = MOTOR_ZERO_OFFSET;
 1013              		.loc 1 23 3 view .LVU252
 1014 0048 9FED859A 		vldr.32	s18, .L53+20
 1015 004c DFED858A 		vldr.32	s17, .L53+24
 1016 0050 1522     		movs	r2, #21
 1017 0052 0021     		movs	r1, #0
 1018 0054 F0EE484A 		vmov.f32	s9, s16
 1019 0058 B0EE484A 		vmov.f32	s8, s16
 1020 005c F0EE483A 		vmov.f32	s7, s16
 1021 0060 B0EE483A 		vmov.f32	s6, s16
 1022 0064 F7EE002A 		vmov.f32	s5, #1.0e+0
 1023 0068 B0EE622A 		vmov.f32	s4, s5
 1024 006c F3EE0E1A 		vmov.f32	s3, #3.0e+1
 1025 0070 B0EE481A 		vmov.f32	s2, s16
 1026 0074 F0EE490A 		vmov.f32	s1, s18
 1027 0078 B0EE680A 		vmov.f32	s0, s17
 1028 007c 04F50070 		add	r0, r4, #512
 1029 0080 FFF7FEFF 		bl	PID_Init
 1030              	.LVL65:
  24:Application/motor_task.c ****   exo_controller.lk_motor.max_out = 0;
 1031              		.loc 1 24 3 view .LVU253
  24:Application/motor_task.c ****   exo_controller.lk_motor.max_out = 0;
 1032              		.loc 1 24 39 is_stmt 0 view .LVU254
 1033 0084 4BF2F613 		movw	r3, #45558
 1034 0088 A4F85C30 		strh	r3, [r4, #92]	@ movhi
  25:Application/motor_task.c **** 
 1035              		.loc 1 25 3 is_stmt 1 view .LVU255
  25:Application/motor_task.c **** 
 1036              		.loc 1 25 35 is_stmt 0 view .LVU256
 1037 008c 84ED228A 		vstr.32	s16, [r4, #136]
  27:Application/motor_task.c ****   PID_Init(&exo_controller.dm_motor[0].PID_Angle, 50, 5, 0, 0.4, 0.05, 0.01, 0, 0, 0, 0, 0, Integra
 1038              		.loc 1 27 3 is_stmt 1 view .LVU257
 1039 0090 DFED75CA 		vldr.32	s25, .L53+28
 1040 0094 1522     		movs	r2, #21
 1041 0096 0021     		movs	r1, #0
 1042 0098 F0EE484A 		vmov.f32	s9, s16
 1043 009c B0EE484A 		vmov.f32	s8, s16
 1044 00a0 F0EE483A 		vmov.f32	s7, s16
 1045 00a4 B0EE483A 		vmov.f32	s6, s16
 1046 00a8 F0EE482A 		vmov.f32	s5, s16
 1047 00ac B0EE482A 		vmov.f32	s4, s16
 1048 00b0 F0EE6C1A 		vmov.f32	s3, s25
 1049 00b4 B0EE481A 		vmov.f32	s2, s16
 1050 00b8 F2EE040A 		vmov.f32	s1, #1.0e+1
 1051 00bc B3EE020A 		vmov.f32	s0, #1.8e+1
 1052 00c0 04F57870 		add	r0, r4, #992
 1053 00c4 FFF7FEFF 		bl	PID_Init
 1054              	.LVL66:
  28:Application/motor_task.c ****   exo_controller.dm_motor[0].max_out = 0;
 1055              		.loc 1 28 3 view .LVU258
 1056 00c8 9FED68CA 		vldr.32	s24, .L53+32
 1057 00cc DFED68BA 		vldr.32	s23, .L53+36
 1058 00d0 9FED68BA 		vldr.32	s22, .L53+40
 1059 00d4 DFED68AA 		vldr.32	s21, .L53+44
ARM GAS  C:\Users\86152\AppData\Local\Temp\cc7vityd.s 			page 27


 1060 00d8 1522     		movs	r2, #21
 1061 00da 0021     		movs	r1, #0
 1062 00dc F0EE484A 		vmov.f32	s9, s16
 1063 00e0 B0EE484A 		vmov.f32	s8, s16
 1064 00e4 F0EE483A 		vmov.f32	s7, s16
 1065 00e8 B0EE483A 		vmov.f32	s6, s16
 1066 00ec F0EE4C2A 		vmov.f32	s5, s24
 1067 00f0 B0EE6B2A 		vmov.f32	s4, s23
 1068 00f4 F0EE4B1A 		vmov.f32	s3, s22
 1069 00f8 B0EE481A 		vmov.f32	s2, s16
 1070 00fc F1EE040A 		vmov.f32	s1, #5.0e+0
 1071 0100 B0EE6A0A 		vmov.f32	s0, s21
 1072 0104 04F59360 		add	r0, r4, #1176
 1073 0108 FFF7FEFF 		bl	PID_Init
 1074              	.LVL67:
  29:Application/motor_task.c **** 
 1075              		.loc 1 29 3 view .LVU259
  29:Application/motor_task.c **** 
 1076              		.loc 1 29 38 is_stmt 0 view .LVU260
 1077 010c 84EDC88A 		vstr.32	s16, [r4, #800]
  31:Application/motor_task.c ****   PID_Init(&exo_controller.dm_motor[1].PID_Angle, 50, 5, 0, 0.4, 0.05, 0.01, 0, 0, 0, 0, 0, Integra
 1078              		.loc 1 31 3 is_stmt 1 view .LVU261
 1079 0110 1522     		movs	r2, #21
 1080 0112 0021     		movs	r1, #0
 1081 0114 F0EE484A 		vmov.f32	s9, s16
 1082 0118 B0EE484A 		vmov.f32	s8, s16
 1083 011c F0EE483A 		vmov.f32	s7, s16
 1084 0120 B0EE483A 		vmov.f32	s6, s16
 1085 0124 F0EE482A 		vmov.f32	s5, s16
 1086 0128 B0EE482A 		vmov.f32	s4, s16
 1087 012c F0EE6C1A 		vmov.f32	s3, s25
 1088 0130 B0EE481A 		vmov.f32	s2, s16
 1089 0134 F2EE040A 		vmov.f32	s1, #1.0e+1
 1090 0138 B3EE020A 		vmov.f32	s0, #1.8e+1
 1091 013c 04F5CF60 		add	r0, r4, #1656
 1092 0140 FFF7FEFF 		bl	PID_Init
 1093              	.LVL68:
  32:Application/motor_task.c ****   exo_controller.dm_motor[1].max_out = 0;
 1094              		.loc 1 32 3 view .LVU262
 1095 0144 1522     		movs	r2, #21
 1096 0146 0021     		movs	r1, #0
 1097 0148 F0EE484A 		vmov.f32	s9, s16
 1098 014c B0EE484A 		vmov.f32	s8, s16
 1099 0150 F0EE483A 		vmov.f32	s7, s16
 1100 0154 B0EE483A 		vmov.f32	s6, s16
 1101 0158 F0EE4C2A 		vmov.f32	s5, s24
 1102 015c B0EE6B2A 		vmov.f32	s4, s23
 1103 0160 F0EE4B1A 		vmov.f32	s3, s22
 1104 0164 B0EE481A 		vmov.f32	s2, s16
 1105 0168 F1EE040A 		vmov.f32	s1, #5.0e+0
 1106 016c B0EE6A0A 		vmov.f32	s0, s21
 1107 0170 04F5E660 		add	r0, r4, #1840
 1108 0174 FFF7FEFF 		bl	PID_Init
 1109              	.LVL69:
  33:Application/motor_task.c **** 
 1110              		.loc 1 33 3 view .LVU263
  33:Application/motor_task.c **** 
ARM GAS  C:\Users\86152\AppData\Local\Temp\cc7vityd.s 			page 28


 1111              		.loc 1 33 38 is_stmt 0 view .LVU264
 1112 0178 04F5B763 		add	r3, r4, #1464
 1113 017c 83ED008A 		vstr.32	s16, [r3]
  35:Application/motor_task.c ****   PID_Init(&exo_controller.dm_motor[2].PID_Angle, 8600, 4000, 0, 30, 1, 1, 0, 0, 0, 0, 0, Integral_
 1114              		.loc 1 35 3 is_stmt 1 view .LVU265
 1115 0180 1522     		movs	r2, #21
 1116 0182 0021     		movs	r1, #0
 1117 0184 F0EE484A 		vmov.f32	s9, s16
 1118 0188 B0EE484A 		vmov.f32	s8, s16
 1119 018c F0EE483A 		vmov.f32	s7, s16
 1120 0190 B0EE483A 		vmov.f32	s6, s16
 1121 0194 F0EE482A 		vmov.f32	s5, s16
 1122 0198 B0EE4A2A 		vmov.f32	s4, s20
 1123 019c F7EE081A 		vmov.f32	s3, #1.5e+0
 1124 01a0 B0EE481A 		vmov.f32	s2, s16
 1125 01a4 F0EE690A 		vmov.f32	s1, s19
 1126 01a8 9FED340A 		vldr.32	s0, .L53+48
 1127 01ac 04F51160 		add	r0, r4, #2320
 1128 01b0 FFF7FEFF 		bl	PID_Init
 1129              	.LVL70:
  36:Application/motor_task.c ****   exo_controller.dm_motor[2].max_out = 0;
 1130              		.loc 1 36 3 view .LVU266
 1131 01b4 1522     		movs	r2, #21
 1132 01b6 0021     		movs	r1, #0
 1133 01b8 F0EE484A 		vmov.f32	s9, s16
 1134 01bc B0EE484A 		vmov.f32	s8, s16
 1135 01c0 F0EE483A 		vmov.f32	s7, s16
 1136 01c4 B0EE483A 		vmov.f32	s6, s16
 1137 01c8 F7EE002A 		vmov.f32	s5, #1.0e+0
 1138 01cc B0EE622A 		vmov.f32	s4, s5
 1139 01d0 F3EE0E1A 		vmov.f32	s3, #3.0e+1
 1140 01d4 B0EE481A 		vmov.f32	s2, s16
 1141 01d8 F0EE490A 		vmov.f32	s1, s18
 1142 01dc B0EE680A 		vmov.f32	s0, s17
 1143 01e0 04F6C810 		addw	r0, r4, #2504
 1144 01e4 FFF7FEFF 		bl	PID_Init
 1145              	.LVL71:
  37:Application/motor_task.c **** 
 1146              		.loc 1 37 3 view .LVU267
  37:Application/motor_task.c **** 
 1147              		.loc 1 37 38 is_stmt 0 view .LVU268
 1148 01e8 04F50563 		add	r3, r4, #2128
 1149 01ec 83ED008A 		vstr.32	s16, [r3]
  39:Application/motor_task.c ****   exo_controller.dm_motor[0].reduction_ratio = 1.0f;
 1150              		.loc 1 39 3 is_stmt 1 view .LVU269
  39:Application/motor_task.c ****   exo_controller.dm_motor[0].reduction_ratio = 1.0f;
 1151              		.loc 1 39 43 is_stmt 0 view .LVU270
 1152 01f0 4FF07E53 		mov	r3, #1065353216
 1153 01f4 2362     		str	r3, [r4, #32]	@ float
  40:Application/motor_task.c ****   exo_controller.dm_motor[1].reduction_ratio = 1.0f;
 1154              		.loc 1 40 3 is_stmt 1 view .LVU271
  40:Application/motor_task.c ****   exo_controller.dm_motor[1].reduction_ratio = 1.0f;
 1155              		.loc 1 40 46 is_stmt 0 view .LVU272
 1156 01f6 C4F8B832 		str	r3, [r4, #696]	@ float
  41:Application/motor_task.c ****   exo_controller.dm_motor[2].reduction_ratio = 1.0f;
 1157              		.loc 1 41 3 is_stmt 1 view .LVU273
  41:Application/motor_task.c ****   exo_controller.dm_motor[2].reduction_ratio = 1.0f;
ARM GAS  C:\Users\86152\AppData\Local\Temp\cc7vityd.s 			page 29


 1158              		.loc 1 41 46 is_stmt 0 view .LVU274
 1159 01fa 04F5AA62 		add	r2, r4, #1360
 1160 01fe 1360     		str	r3, [r2]	@ float
  42:Application/motor_task.c **** 
 1161              		.loc 1 42 3 is_stmt 1 view .LVU275
  42:Application/motor_task.c **** 
 1162              		.loc 1 42 46 is_stmt 0 view .LVU276
 1163 0200 04F5FD64 		add	r4, r4, #2024
 1164 0204 2360     		str	r3, [r4]	@ float
  44:Application/motor_task.c ****   HAL_Delay(2);
 1165              		.loc 1 44 3 is_stmt 1 view .LVU277
 1166 0206 1E4C     		ldr	r4, .L53+52
 1167 0208 0823     		movs	r3, #8
 1168 020a 0122     		movs	r2, #1
 1169 020c 1146     		mov	r1, r2
 1170 020e 2046     		mov	r0, r4
 1171 0210 FFF7FEFF 		bl	DM_CANx_SendStdData
 1172              	.LVL72:
  45:Application/motor_task.c ****   DM_CANx_SendStdData(&hcan1, 0x02, ENABLE_MOTOR, 8);
 1173              		.loc 1 45 3 view .LVU278
 1174 0214 0220     		movs	r0, #2
 1175 0216 FFF7FEFF 		bl	HAL_Delay
 1176              	.LVL73:
  46:Application/motor_task.c ****   HAL_Delay(2);
 1177              		.loc 1 46 3 view .LVU279
 1178 021a 0823     		movs	r3, #8
 1179 021c 0122     		movs	r2, #1
 1180 021e 0221     		movs	r1, #2
 1181 0220 2046     		mov	r0, r4
 1182 0222 FFF7FEFF 		bl	DM_CANx_SendStdData
 1183              	.LVL74:
  47:Application/motor_task.c ****   DM_CANx_SendStdData(&hcan1, 0x03, ENABLE_MOTOR, 8);
 1184              		.loc 1 47 3 view .LVU280
 1185 0226 0220     		movs	r0, #2
 1186 0228 FFF7FEFF 		bl	HAL_Delay
 1187              	.LVL75:
  48:Application/motor_task.c ****   HAL_Delay(2);
 1188              		.loc 1 48 3 view .LVU281
 1189 022c 0823     		movs	r3, #8
 1190 022e 0122     		movs	r2, #1
 1191 0230 0321     		movs	r1, #3
 1192 0232 2046     		mov	r0, r4
 1193 0234 FFF7FEFF 		bl	DM_CANx_SendStdData
 1194              	.LVL76:
  49:Application/motor_task.c **** 
 1195              		.loc 1 49 3 view .LVU282
 1196 0238 0220     		movs	r0, #2
 1197 023a FFF7FEFF 		bl	HAL_Delay
 1198              	.LVL77:
  51:Application/motor_task.c **** }
 1199              		.loc 1 51 3 view .LVU283
 1200 023e 0821     		movs	r1, #8
 1201 0240 1048     		ldr	r0, .L53+56
 1202 0242 FFF7FEFF 		bl	HAL_TIM_PWM_Start
 1203              	.LVL78:
  52:Application/motor_task.c **** 
 1204              		.loc 1 52 1 is_stmt 0 view .LVU284
ARM GAS  C:\Users\86152\AppData\Local\Temp\cc7vityd.s 			page 30


 1205 0246 BDEC0A8B 		vldm	sp!, {d8-d12}
 1206              	.LCFI8:
 1207              		.cfi_restore 88
 1208              		.cfi_restore 89
 1209              		.cfi_restore 86
 1210              		.cfi_restore 87
 1211              		.cfi_restore 84
 1212              		.cfi_restore 85
 1213              		.cfi_restore 82
 1214              		.cfi_restore 83
 1215              		.cfi_restore 80
 1216              		.cfi_restore 81
 1217              		.cfi_def_cfa_offset 8
 1218 024a 10BD     		pop	{r4, pc}
 1219              	.L54:
 1220              		.align	2
 1221              	.L53:
 1222 024c 00000000 		.word	0
 1223 0250 CDCCCC3D 		.word	1036831949
 1224 0254 00007A44 		.word	1148846080
 1225 0258 00000000 		.word	.LANCHOR2
 1226 025c 0000FA44 		.word	1157234688
 1227 0260 00007A45 		.word	1165623296
 1228 0264 00600646 		.word	1174822912
 1229 0268 3333333F 		.word	1060320051
 1230 026c 0AD7233C 		.word	1008981770
 1231 0270 CDCC4C3D 		.word	1028443341
 1232 0274 CDCCCC3E 		.word	1053609165
 1233 0278 00004842 		.word	1112014848
 1234 027c 00000045 		.word	1157627904
 1235 0280 00000000 		.word	hcan1
 1236 0284 00000000 		.word	htim4
 1237              		.cfi_endproc
 1238              	.LFE171:
 1240              		.section	.text.exo_task,"ax",%progbits
 1241              		.align	1
 1242              		.global	exo_task
 1243              		.syntax unified
 1244              		.thumb
 1245              		.thumb_func
 1247              	exo_task:
 1248              	.LFB172:
  55:Application/motor_task.c ****   exo_controller.dt = DWT_GetDeltaT(&exo_controller.DWT_count);
 1249              		.loc 1 55 1 is_stmt 1 view -0
 1250              		.cfi_startproc
 1251              		@ args = 0, pretend = 0, frame = 0
 1252              		@ frame_needed = 0, uses_anonymous_args = 0
 1253 0000 10B5     		push	{r4, lr}
 1254              	.LCFI9:
 1255              		.cfi_def_cfa_offset 8
 1256              		.cfi_offset 4, -8
 1257              		.cfi_offset 14, -4
  56:Application/motor_task.c ****   exo_controller.t += exo_controller.dt;
 1258              		.loc 1 56 3 view .LVU286
  56:Application/motor_task.c ****   exo_controller.t += exo_controller.dt;
 1259              		.loc 1 56 23 is_stmt 0 view .LVU287
 1260 0002 094C     		ldr	r4, .L57
ARM GAS  C:\Users\86152\AppData\Local\Temp\cc7vityd.s 			page 31


 1261 0004 201D     		adds	r0, r4, #4
 1262 0006 FFF7FEFF 		bl	DWT_GetDeltaT
 1263              	.LVL79:
  56:Application/motor_task.c ****   exo_controller.t += exo_controller.dt;
 1264              		.loc 1 56 21 view .LVU288
 1265 000a 84ED030A 		vstr.32	s0, [r4, #12]
  57:Application/motor_task.c **** 
 1266              		.loc 1 57 3 is_stmt 1 view .LVU289
  57:Application/motor_task.c **** 
 1267              		.loc 1 57 20 is_stmt 0 view .LVU290
 1268 000e D4ED047A 		vldr.32	s15, [r4, #16]
 1269 0012 37EE800A 		vadd.f32	s0, s15, s0
 1270 0016 84ED040A 		vstr.32	s0, [r4, #16]
  59:Application/motor_task.c ****   get_exo_ctrl_value();
 1271              		.loc 1 59 3 is_stmt 1 view .LVU291
 1272 001a FFF7FEFF 		bl	set_exo_mode
 1273              	.LVL80:
  60:Application/motor_task.c **** 
 1274              		.loc 1 60 3 view .LVU292
 1275 001e FFF7FEFF 		bl	get_exo_ctrl_value
 1276              	.LVL81:
  62:Application/motor_task.c **** }
 1277              		.loc 1 62 3 view .LVU293
 1278 0022 FFF7FEFF 		bl	send_exo_motor_current
 1279              	.LVL82:
  63:Application/motor_task.c **** 
 1280              		.loc 1 63 1 is_stmt 0 view .LVU294
 1281 0026 10BD     		pop	{r4, pc}
 1282              	.L58:
 1283              		.align	2
 1284              	.L57:
 1285 0028 00000000 		.word	.LANCHOR2
 1286              		.cfi_endproc
 1287              	.LFE172:
 1289              		.global	c
 1290              		.global	b
 1291              		.global	a
 1292              		.global	TargetAngle3
 1293              		.global	TargetAngle2
 1294              		.global	TargetAngle1
 1295              		.global	TargetTorque
 1296              		.global	TargetVelocity
 1297              		.global	exo_controller
 1298              		.global	reg
 1299              		.global	debugoutput2
 1300              		.global	debugoutput
 1301              		.section	.bss.CAN_send_status.0,"aw",%nobits
 1302              		.set	.LANCHOR14,. + 0
 1305              	CAN_send_status.0:
 1306 0000 00       		.space	1
 1307              		.section	.bss.TargetAngle1,"aw",%nobits
 1308              		.align	2
 1309              		.set	.LANCHOR5,. + 0
 1312              	TargetAngle1:
 1313 0000 00000000 		.space	4
 1314              		.section	.bss.TargetAngle2,"aw",%nobits
 1315              		.align	2
ARM GAS  C:\Users\86152\AppData\Local\Temp\cc7vityd.s 			page 32


 1316              		.set	.LANCHOR6,. + 0
 1319              	TargetAngle2:
 1320 0000 00000000 		.space	4
 1321              		.section	.bss.TargetAngle3,"aw",%nobits
 1322              		.align	2
 1323              		.set	.LANCHOR7,. + 0
 1326              	TargetAngle3:
 1327 0000 00000000 		.space	4
 1328              		.section	.bss.TargetTorque,"aw",%nobits
 1329              		.align	2
 1330              		.set	.LANCHOR15,. + 0
 1333              	TargetTorque:
 1334 0000 00000000 		.space	4
 1335              		.section	.bss.TargetVelocity,"aw",%nobits
 1336              		.align	2
 1337              		.set	.LANCHOR11,. + 0
 1340              	TargetVelocity:
 1341 0000 00000000 		.space	4
 1342              		.section	.bss.c,"aw",%nobits
 1343              		.align	2
 1344              		.set	.LANCHOR10,. + 0
 1347              	c:
 1348 0000 00000000 		.space	4
 1349              		.section	.bss.debugoutput,"aw",%nobits
 1350              		.align	1
 1351              		.set	.LANCHOR12,. + 0
 1354              	debugoutput:
 1355 0000 0000     		.space	2
 1356              		.section	.bss.debugoutput2,"aw",%nobits
 1357              		.align	1
 1360              	debugoutput2:
 1361 0000 0000     		.space	2
 1362              		.section	.bss.exo_controller,"aw",%nobits
 1363              		.align	3
 1364              		.set	.LANCHOR2,. + 0
 1367              	exo_controller:
 1368 0000 00000000 		.space	2776
 1368      00000000 
 1368      00000000 
 1368      00000000 
 1368      00000000 
 1369              		.section	.bss.last_pin_state.1,"aw",%nobits
 1370              		.set	.LANCHOR4,. + 0
 1373              	last_pin_state.1:
 1374 0000 00       		.space	1
 1375              		.section	.bss.pin_state.4,"aw",%nobits
 1376              		.set	.LANCHOR0,. + 0
 1379              	pin_state.4:
 1380 0000 00       		.space	1
 1381              		.section	.bss.reset_count.3,"aw",%nobits
 1382              		.align	2
 1383              		.set	.LANCHOR1,. + 0
 1386              	reset_count.3:
 1387 0000 00000000 		.space	4
 1388              		.section	.bss.reset_timestamp.2,"aw",%nobits
 1389              		.align	2
 1390              		.set	.LANCHOR3,. + 0
ARM GAS  C:\Users\86152\AppData\Local\Temp\cc7vityd.s 			page 33


 1393              	reset_timestamp.2:
 1394 0000 00000000 		.space	4
 1395              		.section	.data.a,"aw"
 1396              		.align	2
 1397              		.set	.LANCHOR9,. + 0
 1400              	a:
 1401 0000 00003442 		.word	1110704128
 1402              		.section	.data.b,"aw"
 1403              		.align	2
 1404              		.set	.LANCHOR8,. + 0
 1407              	b:
 1408 0000 0000003F 		.word	1056964608
 1409              		.section	.data.reg,"aw"
 1410              		.set	.LANCHOR13,. + 0
 1413              	reg:
 1414 0000 01       		.byte	1
 1415              		.text
 1416              	.Letext0:
 1417              		.file 2 "c:\\program files (x86)\\gnu arm embedded toolchain\\10 2021.10\\arm-none-eabi\\include\\
 1418              		.file 3 "c:\\program files (x86)\\gnu arm embedded toolchain\\10 2021.10\\arm-none-eabi\\include\\
 1419              		.file 4 "Drivers/CMSIS/Device/ST/STM32F4xx/Include/stm32f407xx.h"
 1420              		.file 5 "Drivers/CMSIS/Device/ST/STM32F4xx/Include/stm32f4xx.h"
 1421              		.file 6 "Drivers/STM32F4xx_HAL_Driver/Inc/stm32f4xx_hal_def.h"
 1422              		.file 7 "Drivers/STM32F4xx_HAL_Driver/Inc/stm32f4xx_hal_gpio.h"
 1423              		.file 8 "Drivers/STM32F4xx_HAL_Driver/Inc/stm32f4xx_hal_dma.h"
 1424              		.file 9 "Drivers/STM32F4xx_HAL_Driver/Inc/stm32f4xx_hal_can.h"
 1425              		.file 10 "Drivers/STM32F4xx_HAL_Driver/Inc/stm32f4xx_hal_tim.h"
 1426              		.file 11 "Core/Inc/can.h"
 1427              		.file 12 "Core/Inc/tim.h"
 1428              		.file 13 "Components/user_lib.h"
 1429              		.file 14 "Components/Controller/controller.h"
 1430              		.file 15 "Application/motor.h"
 1431              		.file 16 "Application/ins_task.h"
 1432              		.file 17 "Components/Devices/dm_imu.h"
 1433              		.file 18 "Application/motor_task.h"
 1434              		.file 19 "Bsp/bsp_dwt.h"
 1435              		.file 20 "Bsp/bsp_PWM.h"
 1436              		.file 21 "Drivers/STM32F4xx_HAL_Driver/Inc/stm32f4xx_hal.h"
 1437              		.file 22 "c:\\program files (x86)\\gnu arm embedded toolchain\\10 2021.10\\arm-none-eabi\\include\
ARM GAS  C:\Users\86152\AppData\Local\Temp\cc7vityd.s 			page 34

