ARM GAS  C:\Users\86152\AppData\Local\Temp\ccVS2a4g.s 			page 1


   1              		.cpu cortex-m4
   2              		.arch armv7e-m
   3              		.fpu fpv4-sp-d16
   4              		.eabi_attribute 27, 1
   5              		.eabi_attribute 28, 1
   6              		.eabi_attribute 20, 1
   7              		.eabi_attribute 21, 1
   8              		.eabi_attribute 23, 3
   9              		.eabi_attribute 24, 1
  10              		.eabi_attribute 25, 1
  11              		.eabi_attribute 26, 1
  12              		.eabi_attribute 30, 1
  13              		.eabi_attribute 34, 1
  14              		.eabi_attribute 18, 4
  15              		.file	"motor_task.c"
  16              		.text
  17              	.Ltext0:
  18              		.cfi_sections	.debug_frame
  19              		.section	.text.set_exo_mode,"ax",%progbits
  20              		.align	1
  21              		.syntax unified
  22              		.thumb
  23              		.thumb_func
  25              	set_exo_mode:
  26              	.LFB173:
  27              		.file 1 "Application/motor_task.c"
   1:Application/motor_task.c **** #include "motor_task.h"
   2:Application/motor_task.c **** 
   3:Application/motor_task.c **** int16_t debugoutput = 0, debugoutput2 = 0;
   4:Application/motor_task.c **** exo_controller_t exo_controller = {0};
   5:Application/motor_task.c **** 
   6:Application/motor_task.c **** float TargetVelocity = 0, TargetTorque = 0;
   7:Application/motor_task.c **** float TargetAngle1 = 0, TargetAngle2 = 0,
   8:Application/motor_task.c ****       TargetAngle3 = 0, TargetAngle4 = 0; // 目标角度
   9:Application/motor_task.c **** float a = 45.0f, b = 0.5f, c = 0.0f;
  10:Application/motor_task.c **** 
  11:Application/motor_task.c **** static void set_exo_mode(void);
  12:Application/motor_task.c **** static void get_exo_ctrl_value(void);
  13:Application/motor_task.c **** static void limit_exo_ctrl_value(void);
  14:Application/motor_task.c **** static void set_exo_control(void);
  15:Application/motor_task.c **** static void send_exo_motor_current(void);
  16:Application/motor_task.c **** 
  17:Application/motor_task.c **** void exo_init(void)
  18:Application/motor_task.c **** {
  19:Application/motor_task.c ****   // PID初始化
  20:Application/motor_task.c ****   PID_Init(&exo_controller.lk_motor.PID_Velocity, 2000, 1000, 0, 1.5, 0.1, 0, 0, 0, 0, 0, 0, Integr
  21:Application/motor_task.c ****   PID_Init(&exo_controller.lk_motor.PID_Angle, 8600, 4000, 0, 30, 1, 1, 0, 0, 0, 0, 0, Integral_Lim
  22:Application/motor_task.c ****   exo_controller.lk_motor.zero_offset = 0;
  23:Application/motor_task.c ****   exo_controller.lk_motor.max_out = 0;
  24:Application/motor_task.c **** 
  25:Application/motor_task.c ****   PID_Init(&exo_controller.dm_motor[0].PID_Velocity, 18, 10, 0, 0.7, 0, 0, 0, 0, 0, 0, 0, Integral_
  26:Application/motor_task.c ****   PID_Init(&exo_controller.dm_motor[0].PID_Angle, 50, 5, 0, 0.4, 0.05, 0.01, 0, 0, 0, 0, 0, Integra
  27:Application/motor_task.c ****   exo_controller.dm_motor[0].max_out = 0;
  28:Application/motor_task.c **** 
  29:Application/motor_task.c ****   PID_Init(&exo_controller.dm_motor[1].PID_Velocity, 18, 10, 0, 0.7, 0, 0, 0, 0, 0, 0, 0, Integral_
  30:Application/motor_task.c ****   PID_Init(&exo_controller.dm_motor[1].PID_Angle, 50, 5, 0, 0.4, 0.05, 0.01, 0, 0, 0, 0, 0, Integra
  31:Application/motor_task.c ****   exo_controller.dm_motor[1].max_out = 0;
ARM GAS  C:\Users\86152\AppData\Local\Temp\ccVS2a4g.s 			page 2


  32:Application/motor_task.c **** 
  33:Application/motor_task.c ****   PID_Init(&exo_controller.dm_motor[2].PID_Velocity, 18, 10, 0, 0.7, 0, 0, 0, 0, 0, 0, 0, Integral_
  34:Application/motor_task.c ****   PID_Init(&exo_controller.dm_motor[2].PID_Angle, 50, 5, 0, 0.4, 0.05, 0.01, 0, 0, 0, 0, 0, Integra
  35:Application/motor_task.c ****   exo_controller.dm_motor[2].max_out = 0;
  36:Application/motor_task.c **** 
  37:Application/motor_task.c ****   exo_controller.lk_motor.reduction_ratio = 1.0f;
  38:Application/motor_task.c ****   exo_controller.dm_motor[0].reduction_ratio = 1.0f;
  39:Application/motor_task.c ****   exo_controller.dm_motor[1].reduction_ratio = 1.0f;
  40:Application/motor_task.c ****   exo_controller.dm_motor[2].reduction_ratio = 1.0f;
  41:Application/motor_task.c **** 
  42:Application/motor_task.c ****   DM_CANx_SendStdData(&hcan1, 0x01, ENABLE_MOTOR, 8);
  43:Application/motor_task.c ****   HAL_Delay(2);
  44:Application/motor_task.c ****   DM_CANx_SendStdData(&hcan1, 0x02, ENABLE_MOTOR, 8);
  45:Application/motor_task.c ****   HAL_Delay(2);
  46:Application/motor_task.c ****   DM_CANx_SendStdData(&hcan1, 0x03, ENABLE_MOTOR, 8);
  47:Application/motor_task.c ****   HAL_Delay(2);
  48:Application/motor_task.c **** 
  49:Application/motor_task.c ****   HAL_TIM_PWM_Start(&htim4, TIM_CHANNEL_3); // 启动PWM
  50:Application/motor_task.c **** }
  51:Application/motor_task.c **** 
  52:Application/motor_task.c **** void exo_task(void)
  53:Application/motor_task.c **** {
  54:Application/motor_task.c ****   exo_controller.dt = DWT_GetDeltaT(&exo_controller.DWT_count);
  55:Application/motor_task.c ****   exo_controller.t += exo_controller.dt;
  56:Application/motor_task.c **** 
  57:Application/motor_task.c ****   set_exo_mode();
  58:Application/motor_task.c ****   get_exo_ctrl_value();
  59:Application/motor_task.c ****   set_exo_control();
  60:Application/motor_task.c ****   send_exo_motor_current();
  61:Application/motor_task.c **** }
  62:Application/motor_task.c **** 
  63:Application/motor_task.c **** static void set_exo_mode(void)
  64:Application/motor_task.c **** {
  28              		.loc 1 64 1 view -0
  29              		.cfi_startproc
  30              		@ args = 0, pretend = 0, frame = 0
  31              		@ frame_needed = 0, uses_anonymous_args = 0
  32 0000 08B5     		push	{r3, lr}
  33              	.LCFI0:
  34              		.cfi_def_cfa_offset 8
  35              		.cfi_offset 3, -8
  36              		.cfi_offset 14, -4
  65:Application/motor_task.c ****   static uint32_t reset_count = 0;
  37              		.loc 1 65 3 view .LVU1
  66:Application/motor_task.c ****   static float reset_timestamp = 0;
  38              		.loc 1 66 3 view .LVU2
  67:Application/motor_task.c ****   static uint8_t pin_state = 0, last_pin_state = 0;
  39              		.loc 1 67 3 view .LVU3
  68:Application/motor_task.c **** 
  69:Application/motor_task.c ****   pin_state = HAL_GPIO_ReadPin(KEY_GPIO_Port, KEY_Pin);
  40              		.loc 1 69 3 view .LVU4
  41              		.loc 1 69 15 is_stmt 0 view .LVU5
  42 0002 0121     		movs	r1, #1
  43 0004 2D48     		ldr	r0, .L15
  44 0006 FFF7FEFF 		bl	HAL_GPIO_ReadPin
  45              	.LVL0:
  46              		.loc 1 69 13 view .LVU6
ARM GAS  C:\Users\86152\AppData\Local\Temp\ccVS2a4g.s 			page 3


  47 000a 2D4B     		ldr	r3, .L15+4
  48 000c 1870     		strb	r0, [r3]
  70:Application/motor_task.c ****   // press the key
  71:Application/motor_task.c ****   if (pin_state == GPIO_PIN_RESET)
  49              		.loc 1 71 3 is_stmt 1 view .LVU7
  50              		.loc 1 71 6 is_stmt 0 view .LVU8
  51 000e 38B9     		cbnz	r0, .L2
  72:Application/motor_task.c ****   {
  73:Application/motor_task.c ****     reset_count++;
  52              		.loc 1 73 5 is_stmt 1 view .LVU9
  53              		.loc 1 73 16 is_stmt 0 view .LVU10
  54 0010 2C4A     		ldr	r2, .L15+8
  55 0012 1368     		ldr	r3, [r2]
  56 0014 0133     		adds	r3, r3, #1
  57 0016 1360     		str	r3, [r2]
  74:Application/motor_task.c ****     reset_timestamp = exo_controller.t;
  58              		.loc 1 74 5 is_stmt 1 view .LVU11
  59              		.loc 1 74 37 is_stmt 0 view .LVU12
  60 0018 2B4B     		ldr	r3, .L15+12
  61 001a 1A69     		ldr	r2, [r3, #16]	@ float
  62              		.loc 1 74 21 view .LVU13
  63 001c 2B4B     		ldr	r3, .L15+16
  64 001e 1A60     		str	r2, [r3]	@ float
  65              	.L2:
  75:Application/motor_task.c ****   }
  76:Application/motor_task.c **** 
  77:Application/motor_task.c ****   if (last_pin_state == GPIO_PIN_SET && pin_state == GPIO_PIN_RESET)
  66              		.loc 1 77 3 is_stmt 1 view .LVU14
  67              		.loc 1 77 22 is_stmt 0 view .LVU15
  68 0020 2B4B     		ldr	r3, .L15+20
  69 0022 1B78     		ldrb	r3, [r3]	@ zero_extendqisi2
  70              		.loc 1 77 6 view .LVU16
  71 0024 012B     		cmp	r3, #1
  72 0026 3AD0     		beq	.L14
  73              	.L3:
  78:Application/motor_task.c ****   {
  79:Application/motor_task.c ****     reset_count = 0;
  80:Application/motor_task.c ****     exo_controller.mode = SILENCE_MODE;
  81:Application/motor_task.c ****   }
  82:Application/motor_task.c **** 
  83:Application/motor_task.c ****   if (reset_count > 1000)
  74              		.loc 1 83 3 is_stmt 1 view .LVU17
  75              		.loc 1 83 19 is_stmt 0 view .LVU18
  76 0028 264B     		ldr	r3, .L15+8
  77 002a 1B68     		ldr	r3, [r3]
  78              		.loc 1 83 6 view .LVU19
  79 002c B3F57A7F 		cmp	r3, #1000
  80 0030 26D9     		bls	.L4
  84:Application/motor_task.c ****   {
  85:Application/motor_task.c ****     if ((exo_controller.t - reset_timestamp) < 2.0f)
  81              		.loc 1 85 5 is_stmt 1 view .LVU20
  82              		.loc 1 85 24 is_stmt 0 view .LVU21
  83 0032 254B     		ldr	r3, .L15+12
  84 0034 D3ED047A 		vldr.32	s15, [r3, #16]
  85              		.loc 1 85 27 view .LVU22
  86 0038 244B     		ldr	r3, .L15+16
  87 003a 93ED007A 		vldr.32	s14, [r3]
ARM GAS  C:\Users\86152\AppData\Local\Temp\ccVS2a4g.s 			page 4


  88 003e 77EEC77A 		vsub.f32	s15, s15, s14
  89              		.loc 1 85 8 view .LVU23
  90 0042 B0EE007A 		vmov.f32	s14, #2.0e+0
  91 0046 F4EEC77A 		vcmpe.f32	s15, s14
  92 004a F1EE10FA 		vmrs	APSR_nzcv, FPSCR
  93 004e 2ED5     		bpl	.L12
  86:Application/motor_task.c ****       TIM_Set_PWM(&htim4, TIM_CHANNEL_3, 2000);
  94              		.loc 1 86 7 is_stmt 1 view .LVU24
  95 0050 4FF4FA62 		mov	r2, #2000
  96 0054 0821     		movs	r1, #8
  97 0056 1F48     		ldr	r0, .L15+24
  98 0058 FFF7FEFF 		bl	TIM_Set_PWM
  99              	.LVL1:
 100              	.L7:
  87:Application/motor_task.c ****     else
  88:Application/motor_task.c ****       TIM_Set_PWM(&htim4, TIM_CHANNEL_3, 0);
  89:Application/motor_task.c **** 
  90:Application/motor_task.c ****     if ((exo_controller.t - reset_timestamp) > 5.0f)
 101              		.loc 1 90 5 view .LVU25
 102              		.loc 1 90 24 is_stmt 0 view .LVU26
 103 005c 1A4B     		ldr	r3, .L15+12
 104 005e D3ED047A 		vldr.32	s15, [r3, #16]
 105              		.loc 1 90 27 view .LVU27
 106 0062 1A4B     		ldr	r3, .L15+16
 107 0064 93ED007A 		vldr.32	s14, [r3]
 108 0068 77EEC77A 		vsub.f32	s15, s15, s14
 109              		.loc 1 90 8 view .LVU28
 110 006c B1EE047A 		vmov.f32	s14, #5.0e+0
 111 0070 F4EEC77A 		vcmpe.f32	s15, s14
 112 0074 F1EE10FA 		vmrs	APSR_nzcv, FPSCR
 113 0078 02DD     		ble	.L4
  91:Application/motor_task.c ****       exo_controller.mode = ANGLE_MODE;
 114              		.loc 1 91 7 is_stmt 1 view .LVU29
 115              		.loc 1 91 27 is_stmt 0 view .LVU30
 116 007a 134B     		ldr	r3, .L15+12
 117 007c 0122     		movs	r2, #1
 118 007e 1A70     		strb	r2, [r3]
 119              	.L4:
  92:Application/motor_task.c ****   }
  93:Application/motor_task.c **** 
  94:Application/motor_task.c ****   if (exo_controller.last_mode != exo_controller.mode)
 120              		.loc 1 94 3 is_stmt 1 view .LVU31
 121              		.loc 1 94 21 is_stmt 0 view .LVU32
 122 0080 114B     		ldr	r3, .L15+12
 123 0082 5A78     		ldrb	r2, [r3, #1]	@ zero_extendqisi2
 124              		.loc 1 94 49 view .LVU33
 125 0084 1B78     		ldrb	r3, [r3]	@ zero_extendqisi2
 126              		.loc 1 94 6 view .LVU34
 127 0086 9A42     		cmp	r2, r3
 128 0088 02D0     		beq	.L9
  95:Application/motor_task.c ****     exo_controller.mode_change_timestamp = exo_controller.t;
 129              		.loc 1 95 5 is_stmt 1 view .LVU35
 130              		.loc 1 95 58 is_stmt 0 view .LVU36
 131 008a 0F4A     		ldr	r2, .L15+12
 132 008c 1169     		ldr	r1, [r2, #16]	@ float
 133              		.loc 1 95 42 view .LVU37
 134 008e 9160     		str	r1, [r2, #8]	@ float
ARM GAS  C:\Users\86152\AppData\Local\Temp\ccVS2a4g.s 			page 5


 135              	.L9:
  96:Application/motor_task.c **** 
  97:Application/motor_task.c ****   last_pin_state = pin_state;
 136              		.loc 1 97 3 is_stmt 1 view .LVU38
 137              		.loc 1 97 18 is_stmt 0 view .LVU39
 138 0090 0B4A     		ldr	r2, .L15+4
 139 0092 1178     		ldrb	r1, [r2]	@ zero_extendqisi2
 140 0094 0E4A     		ldr	r2, .L15+20
 141 0096 1170     		strb	r1, [r2]
  98:Application/motor_task.c ****   exo_controller.last_mode = exo_controller.mode;
 142              		.loc 1 98 3 is_stmt 1 view .LVU40
 143              		.loc 1 98 28 is_stmt 0 view .LVU41
 144 0098 0B4A     		ldr	r2, .L15+12
 145 009a 5370     		strb	r3, [r2, #1]
  99:Application/motor_task.c **** }
 146              		.loc 1 99 1 view .LVU42
 147 009c 08BD     		pop	{r3, pc}
 148              	.L14:
  77:Application/motor_task.c ****   {
 149              		.loc 1 77 38 discriminator 1 view .LVU43
 150 009e 0028     		cmp	r0, #0
 151 00a0 C2D1     		bne	.L3
  79:Application/motor_task.c ****     exo_controller.mode = SILENCE_MODE;
 152              		.loc 1 79 5 is_stmt 1 view .LVU44
  79:Application/motor_task.c ****     exo_controller.mode = SILENCE_MODE;
 153              		.loc 1 79 17 is_stmt 0 view .LVU45
 154 00a2 0023     		movs	r3, #0
 155 00a4 074A     		ldr	r2, .L15+8
 156 00a6 1360     		str	r3, [r2]
  80:Application/motor_task.c ****   }
 157              		.loc 1 80 5 is_stmt 1 view .LVU46
  80:Application/motor_task.c ****   }
 158              		.loc 1 80 25 is_stmt 0 view .LVU47
 159 00a8 074A     		ldr	r2, .L15+12
 160 00aa 1370     		strb	r3, [r2]
 161 00ac BCE7     		b	.L3
 162              	.L12:
  88:Application/motor_task.c **** 
 163              		.loc 1 88 7 is_stmt 1 view .LVU48
 164 00ae 0022     		movs	r2, #0
 165 00b0 0821     		movs	r1, #8
 166 00b2 0848     		ldr	r0, .L15+24
 167 00b4 FFF7FEFF 		bl	TIM_Set_PWM
 168              	.LVL2:
 169 00b8 D0E7     		b	.L7
 170              	.L16:
 171 00ba 00BF     		.align	2
 172              	.L15:
 173 00bc 00000240 		.word	1073872896
 174 00c0 00000000 		.word	.LANCHOR0
 175 00c4 00000000 		.word	.LANCHOR1
 176 00c8 00000000 		.word	.LANCHOR2
 177 00cc 00000000 		.word	.LANCHOR3
 178 00d0 00000000 		.word	.LANCHOR4
 179 00d4 00000000 		.word	htim4
 180              		.cfi_endproc
 181              	.LFE173:
ARM GAS  C:\Users\86152\AppData\Local\Temp\ccVS2a4g.s 			page 6


 183              		.global	__aeabi_f2d
 184              		.global	__aeabi_dmul
 185              		.global	__aeabi_dadd
 186              		.global	__aeabi_d2f
 187              		.section	.text.get_exo_ctrl_value,"ax",%progbits
 188              		.align	1
 189              		.syntax unified
 190              		.thumb
 191              		.thumb_func
 193              	get_exo_ctrl_value:
 194              	.LFB174:
 100:Application/motor_task.c **** 
 101:Application/motor_task.c **** static void get_exo_ctrl_value(void)
 102:Application/motor_task.c **** {
 195              		.loc 1 102 1 view -0
 196              		.cfi_startproc
 197              		@ args = 0, pretend = 0, frame = 0
 198              		@ frame_needed = 0, uses_anonymous_args = 0
 199 0000 2DE9F843 		push	{r3, r4, r5, r6, r7, r8, r9, lr}
 200              	.LCFI1:
 201              		.cfi_def_cfa_offset 32
 202              		.cfi_offset 3, -32
 203              		.cfi_offset 4, -28
 204              		.cfi_offset 5, -24
 205              		.cfi_offset 6, -20
 206              		.cfi_offset 7, -16
 207              		.cfi_offset 8, -12
 208              		.cfi_offset 9, -8
 209              		.cfi_offset 14, -4
 210 0004 2DED028B 		vpush.64	{d8}
 211              	.LCFI2:
 212              		.cfi_def_cfa_offset 40
 213              		.cfi_offset 80, -40
 214              		.cfi_offset 81, -36
 103:Application/motor_task.c ****   switch (exo_controller.mode)
 215              		.loc 1 103 3 view .LVU50
 216              		.loc 1 103 25 is_stmt 0 view .LVU51
 217 0008 454B     		ldr	r3, .L27
 218 000a 1B78     		ldrb	r3, [r3]	@ zero_extendqisi2
 219              		.loc 1 103 3 view .LVU52
 220 000c 2BB1     		cbz	r3, .L18
 221 000e 012B     		cmp	r3, #1
 222 0010 16D0     		beq	.L19
 223              	.L17:
 104:Application/motor_task.c ****   {
 105:Application/motor_task.c ****   case SILENCE_MODE:
 106:Application/motor_task.c ****     TargetAngle1 = exo_controller.dm_motor[0].angle_in_degree;
 107:Application/motor_task.c ****     TargetAngle2 = exo_controller.dm_motor[1].angle_in_degree;
 108:Application/motor_task.c ****     TargetAngle3 = exo_controller.lk_motor.angle_in_degree;
 109:Application/motor_task.c ****     TargetAngle4 = exo_controller.dm_motor[2].angle_in_degree;
 110:Application/motor_task.c ****     break;
 111:Application/motor_task.c **** 
 112:Application/motor_task.c ****   case ANGLE_MODE:
 113:Application/motor_task.c ****     if (exo_controller.t - exo_controller.mode_change_timestamp < 1)
 114:Application/motor_task.c ****     {
 115:Application/motor_task.c ****       TargetAngle1 = exo_controller.dm_motor[0].angle_in_degree;
 116:Application/motor_task.c ****       TargetAngle2 = exo_controller.dm_motor[1].angle_in_degree;
ARM GAS  C:\Users\86152\AppData\Local\Temp\ccVS2a4g.s 			page 7


 117:Application/motor_task.c ****       TargetAngle3 = exo_controller.lk_motor.angle_in_degree;
 118:Application/motor_task.c ****       TargetAngle4 = exo_controller.dm_motor[2].angle_in_degree;
 119:Application/motor_task.c ****     }
 120:Application/motor_task.c ****     else if (exo_controller.debug_mode == 6)
 121:Application/motor_task.c ****     {
 122:Application/motor_task.c ****       TargetAngle3 = a * sin(b * exo_controller.t + PI) + c;
 123:Application/motor_task.c ****       TargetAngle4 = a * sin(b * exo_controller.t + PI / 3) + c;
 124:Application/motor_task.c ****     }
 125:Application/motor_task.c **** 
 126:Application/motor_task.c ****     // TargetAngle1 = float_constrain(TargetAngle1, MOTOR1_MIN, MOTOR1_MAX);
 127:Application/motor_task.c ****     // TargetAngle2 = float_constrain(TargetAngle2, MOTOR2_MIN, MOTOR2_MAX);
 128:Application/motor_task.c ****     break;
 129:Application/motor_task.c ****   }
 130:Application/motor_task.c **** }
 224              		.loc 1 130 1 view .LVU53
 225 0012 BDEC028B 		vldm	sp!, {d8}
 226              	.LCFI3:
 227              		.cfi_remember_state
 228              		.cfi_restore 80
 229              		.cfi_restore 81
 230              		.cfi_def_cfa_offset 32
 231 0016 BDE8F883 		pop	{r3, r4, r5, r6, r7, r8, r9, pc}
 232              	.L18:
 233              	.LCFI4:
 234              		.cfi_restore_state
 106:Application/motor_task.c ****     TargetAngle2 = exo_controller.dm_motor[1].angle_in_degree;
 235              		.loc 1 106 5 is_stmt 1 view .LVU54
 106:Application/motor_task.c ****     TargetAngle2 = exo_controller.dm_motor[1].angle_in_degree;
 236              		.loc 1 106 46 is_stmt 0 view .LVU55
 237 001a 414B     		ldr	r3, .L27
 238 001c D3F8E012 		ldr	r1, [r3, #736]	@ float
 106:Application/motor_task.c ****     TargetAngle2 = exo_controller.dm_motor[1].angle_in_degree;
 239              		.loc 1 106 18 view .LVU56
 240 0020 404A     		ldr	r2, .L27+4
 241 0022 1160     		str	r1, [r2]	@ float
 107:Application/motor_task.c ****     TargetAngle3 = exo_controller.lk_motor.angle_in_degree;
 242              		.loc 1 107 5 is_stmt 1 view .LVU57
 107:Application/motor_task.c ****     TargetAngle3 = exo_controller.lk_motor.angle_in_degree;
 243              		.loc 1 107 46 is_stmt 0 view .LVU58
 244 0024 03F5AF62 		add	r2, r3, #1400
 245 0028 1168     		ldr	r1, [r2]	@ float
 107:Application/motor_task.c ****     TargetAngle3 = exo_controller.lk_motor.angle_in_degree;
 246              		.loc 1 107 18 view .LVU59
 247 002a 3F4A     		ldr	r2, .L27+8
 248 002c 1160     		str	r1, [r2]	@ float
 108:Application/motor_task.c ****     TargetAngle4 = exo_controller.dm_motor[2].angle_in_degree;
 249              		.loc 1 108 5 is_stmt 1 view .LVU60
 108:Application/motor_task.c ****     TargetAngle4 = exo_controller.dm_motor[2].angle_in_degree;
 250              		.loc 1 108 43 is_stmt 0 view .LVU61
 251 002e 996C     		ldr	r1, [r3, #72]	@ float
 108:Application/motor_task.c ****     TargetAngle4 = exo_controller.dm_motor[2].angle_in_degree;
 252              		.loc 1 108 18 view .LVU62
 253 0030 3E4A     		ldr	r2, .L27+12
 254 0032 1160     		str	r1, [r2]	@ float
 109:Application/motor_task.c ****     break;
 255              		.loc 1 109 5 is_stmt 1 view .LVU63
 109:Application/motor_task.c ****     break;
ARM GAS  C:\Users\86152\AppData\Local\Temp\ccVS2a4g.s 			page 8


 256              		.loc 1 109 46 is_stmt 0 view .LVU64
 257 0034 03F50163 		add	r3, r3, #2064
 258 0038 1A68     		ldr	r2, [r3]	@ float
 109:Application/motor_task.c ****     break;
 259              		.loc 1 109 18 view .LVU65
 260 003a 3D4B     		ldr	r3, .L27+16
 261 003c 1A60     		str	r2, [r3]	@ float
 110:Application/motor_task.c **** 
 262              		.loc 1 110 5 is_stmt 1 view .LVU66
 263 003e E8E7     		b	.L17
 264              	.L19:
 113:Application/motor_task.c ****     {
 265              		.loc 1 113 5 view .LVU67
 113:Application/motor_task.c ****     {
 266              		.loc 1 113 23 is_stmt 0 view .LVU68
 267 0040 374B     		ldr	r3, .L27
 268 0042 93ED048A 		vldr.32	s16, [r3, #16]
 113:Application/motor_task.c ****     {
 269              		.loc 1 113 42 view .LVU69
 270 0046 D3ED027A 		vldr.32	s15, [r3, #8]
 113:Application/motor_task.c ****     {
 271              		.loc 1 113 26 view .LVU70
 272 004a 78EE677A 		vsub.f32	s15, s16, s15
 113:Application/motor_task.c ****     {
 273              		.loc 1 113 8 view .LVU71
 274 004e B7EE007A 		vmov.f32	s14, #1.0e+0
 275 0052 F4EEC77A 		vcmpe.f32	s15, s14
 276 0056 F1EE10FA 		vmrs	APSR_nzcv, FPSCR
 277 005a 4FD4     		bmi	.L26
 120:Application/motor_task.c ****     {
 278              		.loc 1 120 10 is_stmt 1 view .LVU72
 120:Application/motor_task.c ****     {
 279              		.loc 1 120 28 is_stmt 0 view .LVU73
 280 005c 304B     		ldr	r3, .L27
 281 005e 9B78     		ldrb	r3, [r3, #2]	@ zero_extendqisi2
 120:Application/motor_task.c ****     {
 282              		.loc 1 120 13 view .LVU74
 283 0060 062B     		cmp	r3, #6
 284 0062 D6D1     		bne	.L17
 122:Application/motor_task.c ****       TargetAngle4 = a * sin(b * exo_controller.t + PI / 3) + c;
 285              		.loc 1 122 7 is_stmt 1 view .LVU75
 122:Application/motor_task.c ****       TargetAngle4 = a * sin(b * exo_controller.t + PI / 3) + c;
 286              		.loc 1 122 24 is_stmt 0 view .LVU76
 287 0064 334B     		ldr	r3, .L27+20
 288 0066 1868     		ldr	r0, [r3]	@ float
 289 0068 FFF7FEFF 		bl	__aeabi_f2d
 290              	.LVL3:
 291 006c 0646     		mov	r6, r0
 292 006e 0F46     		mov	r7, r1
 122:Application/motor_task.c ****       TargetAngle4 = a * sin(b * exo_controller.t + PI / 3) + c;
 293              		.loc 1 122 32 view .LVU77
 294 0070 314B     		ldr	r3, .L27+24
 295 0072 D3ED007A 		vldr.32	s15, [r3]
 296 0076 28EE278A 		vmul.f32	s16, s16, s15
 122:Application/motor_task.c ****       TargetAngle4 = a * sin(b * exo_controller.t + PI / 3) + c;
 297              		.loc 1 122 26 view .LVU78
 298 007a DFED307A 		vldr.32	s15, .L27+28
ARM GAS  C:\Users\86152\AppData\Local\Temp\ccVS2a4g.s 			page 9


 299 007e 78EE277A 		vadd.f32	s15, s16, s15
 300 0082 17EE900A 		vmov	r0, s15
 301 0086 FFF7FEFF 		bl	__aeabi_f2d
 302              	.LVL4:
 303 008a 41EC100B 		vmov	d0, r0, r1
 304 008e FFF7FEFF 		bl	sin
 305              	.LVL5:
 306 0092 53EC102B 		vmov	r2, r3, d0
 122:Application/motor_task.c ****       TargetAngle4 = a * sin(b * exo_controller.t + PI / 3) + c;
 307              		.loc 1 122 24 view .LVU79
 308 0096 3046     		mov	r0, r6
 309 0098 3946     		mov	r1, r7
 310 009a FFF7FEFF 		bl	__aeabi_dmul
 311              	.LVL6:
 312 009e 8046     		mov	r8, r0
 313 00a0 8946     		mov	r9, r1
 122:Application/motor_task.c ****       TargetAngle4 = a * sin(b * exo_controller.t + PI / 3) + c;
 314              		.loc 1 122 57 view .LVU80
 315 00a2 274B     		ldr	r3, .L27+32
 316 00a4 1868     		ldr	r0, [r3]	@ float
 317 00a6 FFF7FEFF 		bl	__aeabi_f2d
 318              	.LVL7:
 319 00aa 0446     		mov	r4, r0
 320 00ac 0D46     		mov	r5, r1
 321 00ae 0246     		mov	r2, r0
 322 00b0 0B46     		mov	r3, r1
 323 00b2 4046     		mov	r0, r8
 324 00b4 4946     		mov	r1, r9
 325 00b6 FFF7FEFF 		bl	__aeabi_dadd
 326              	.LVL8:
 327 00ba FFF7FEFF 		bl	__aeabi_d2f
 328              	.LVL9:
 122:Application/motor_task.c ****       TargetAngle4 = a * sin(b * exo_controller.t + PI / 3) + c;
 329              		.loc 1 122 20 view .LVU81
 330 00be 1B4B     		ldr	r3, .L27+12
 331 00c0 1860     		str	r0, [r3]	@ float
 123:Application/motor_task.c ****     }
 332              		.loc 1 123 7 is_stmt 1 view .LVU82
 123:Application/motor_task.c ****     }
 333              		.loc 1 123 26 is_stmt 0 view .LVU83
 334 00c2 DFED207A 		vldr.32	s15, .L27+36
 335 00c6 78EE277A 		vadd.f32	s15, s16, s15
 336 00ca 17EE900A 		vmov	r0, s15
 337 00ce FFF7FEFF 		bl	__aeabi_f2d
 338              	.LVL10:
 339 00d2 41EC100B 		vmov	d0, r0, r1
 340 00d6 FFF7FEFF 		bl	sin
 341              	.LVL11:
 342 00da 53EC102B 		vmov	r2, r3, d0
 123:Application/motor_task.c ****     }
 343              		.loc 1 123 24 view .LVU84
 344 00de 3046     		mov	r0, r6
 345 00e0 3946     		mov	r1, r7
 346 00e2 FFF7FEFF 		bl	__aeabi_dmul
 347              	.LVL12:
 348 00e6 0246     		mov	r2, r0
 349 00e8 0B46     		mov	r3, r1
ARM GAS  C:\Users\86152\AppData\Local\Temp\ccVS2a4g.s 			page 10


 123:Application/motor_task.c ****     }
 350              		.loc 1 123 61 view .LVU85
 351 00ea 2046     		mov	r0, r4
 352 00ec 2946     		mov	r1, r5
 353 00ee FFF7FEFF 		bl	__aeabi_dadd
 354              	.LVL13:
 355 00f2 FFF7FEFF 		bl	__aeabi_d2f
 356              	.LVL14:
 123:Application/motor_task.c ****     }
 357              		.loc 1 123 20 view .LVU86
 358 00f6 0E4B     		ldr	r3, .L27+16
 359 00f8 1860     		str	r0, [r3]	@ float
 360              		.loc 1 130 1 view .LVU87
 361 00fa 8AE7     		b	.L17
 362              	.L26:
 115:Application/motor_task.c ****       TargetAngle2 = exo_controller.dm_motor[1].angle_in_degree;
 363              		.loc 1 115 7 is_stmt 1 view .LVU88
 115:Application/motor_task.c ****       TargetAngle2 = exo_controller.dm_motor[1].angle_in_degree;
 364              		.loc 1 115 48 is_stmt 0 view .LVU89
 365 00fc D3F8E012 		ldr	r1, [r3, #736]	@ float
 115:Application/motor_task.c ****       TargetAngle2 = exo_controller.dm_motor[1].angle_in_degree;
 366              		.loc 1 115 20 view .LVU90
 367 0100 084A     		ldr	r2, .L27+4
 368 0102 1160     		str	r1, [r2]	@ float
 116:Application/motor_task.c ****       TargetAngle3 = exo_controller.lk_motor.angle_in_degree;
 369              		.loc 1 116 7 is_stmt 1 view .LVU91
 116:Application/motor_task.c ****       TargetAngle3 = exo_controller.lk_motor.angle_in_degree;
 370              		.loc 1 116 48 is_stmt 0 view .LVU92
 371 0104 03F5AF62 		add	r2, r3, #1400
 372 0108 1168     		ldr	r1, [r2]	@ float
 116:Application/motor_task.c ****       TargetAngle3 = exo_controller.lk_motor.angle_in_degree;
 373              		.loc 1 116 20 view .LVU93
 374 010a 074A     		ldr	r2, .L27+8
 375 010c 1160     		str	r1, [r2]	@ float
 117:Application/motor_task.c ****       TargetAngle4 = exo_controller.dm_motor[2].angle_in_degree;
 376              		.loc 1 117 7 is_stmt 1 view .LVU94
 117:Application/motor_task.c ****       TargetAngle4 = exo_controller.dm_motor[2].angle_in_degree;
 377              		.loc 1 117 45 is_stmt 0 view .LVU95
 378 010e 996C     		ldr	r1, [r3, #72]	@ float
 117:Application/motor_task.c ****       TargetAngle4 = exo_controller.dm_motor[2].angle_in_degree;
 379              		.loc 1 117 20 view .LVU96
 380 0110 064A     		ldr	r2, .L27+12
 381 0112 1160     		str	r1, [r2]	@ float
 118:Application/motor_task.c ****     }
 382              		.loc 1 118 7 is_stmt 1 view .LVU97
 118:Application/motor_task.c ****     }
 383              		.loc 1 118 48 is_stmt 0 view .LVU98
 384 0114 03F50163 		add	r3, r3, #2064
 385 0118 1A68     		ldr	r2, [r3]	@ float
 118:Application/motor_task.c ****     }
 386              		.loc 1 118 20 view .LVU99
 387 011a 054B     		ldr	r3, .L27+16
 388 011c 1A60     		str	r2, [r3]	@ float
 389 011e 78E7     		b	.L17
 390              	.L28:
 391              		.align	2
 392              	.L27:
ARM GAS  C:\Users\86152\AppData\Local\Temp\ccVS2a4g.s 			page 11


 393 0120 00000000 		.word	.LANCHOR2
 394 0124 00000000 		.word	.LANCHOR5
 395 0128 00000000 		.word	.LANCHOR6
 396 012c 00000000 		.word	.LANCHOR7
 397 0130 00000000 		.word	.LANCHOR8
 398 0134 00000000 		.word	.LANCHOR9
 399 0138 00000000 		.word	.LANCHOR10
 400 013c DB0F4940 		.word	1078530011
 401 0140 00000000 		.word	.LANCHOR11
 402 0144 920A863F 		.word	1065749138
 403              		.cfi_endproc
 404              	.LFE174:
 406              		.section	.text.set_exo_control,"ax",%progbits
 407              		.align	1
 408              		.syntax unified
 409              		.thumb
 410              		.thumb_func
 412              	set_exo_control:
 413              	.LFB176:
 131:Application/motor_task.c **** 
 132:Application/motor_task.c **** static void limit_exo_ctrl_value(void)
 133:Application/motor_task.c **** {
 134:Application/motor_task.c ****   ;
 135:Application/motor_task.c **** }
 136:Application/motor_task.c **** 
 137:Application/motor_task.c **** static void set_exo_control(void)
 138:Application/motor_task.c **** {
 414              		.loc 1 138 1 is_stmt 1 view -0
 415              		.cfi_startproc
 416              		@ args = 0, pretend = 0, frame = 0
 417              		@ frame_needed = 0, uses_anonymous_args = 0
 418 0000 D0B5     		push	{r4, r6, r7, lr}
 419              	.LCFI5:
 420              		.cfi_def_cfa_offset 16
 421              		.cfi_offset 4, -16
 422              		.cfi_offset 6, -12
 423              		.cfi_offset 7, -8
 424              		.cfi_offset 14, -4
 139:Application/motor_task.c ****   switch (exo_controller.mode)
 425              		.loc 1 139 3 view .LVU101
 426              		.loc 1 139 25 is_stmt 0 view .LVU102
 427 0002 C34B     		ldr	r3, .L41
 428 0004 1B78     		ldrb	r3, [r3]	@ zero_extendqisi2
 429              		.loc 1 139 3 view .LVU103
 430 0006 052B     		cmp	r3, #5
 431 0008 00F20E81 		bhi	.L29
 432 000c DFE813F0 		tbh	[pc, r3, lsl #1]
 433              	.L32:
 434 0010 0600     		.2byte	(.L36-.L32)/2
 435 0012 1300     		.2byte	(.L35-.L32)/2
 436 0014 EA00     		.2byte	(.L34-.L32)/2
 437 0016 1C01     		.2byte	(.L33-.L32)/2
 438 0018 0C01     		.2byte	(.L29-.L32)/2
 439 001a 2A01     		.2byte	(.L31-.L32)/2
 440              		.p2align 1
 441              	.L36:
 442              	.LBB2:
ARM GAS  C:\Users\86152\AppData\Local\Temp\ccVS2a4g.s 			page 12


 140:Application/motor_task.c ****   {
 141:Application/motor_task.c ****   case SILENCE_MODE:
 142:Application/motor_task.c ****     exo_controller.lk_motor.Output = 0;
 443              		.loc 1 142 5 is_stmt 1 view .LVU104
 444              		.loc 1 142 36 is_stmt 0 view .LVU105
 445 001c BC4B     		ldr	r3, .L41
 446 001e 0022     		movs	r2, #0
 447 0020 C3F88420 		str	r2, [r3, #132]	@ float
 143:Application/motor_task.c ****     exo_controller.dm_motor[0].Output = 0;
 448              		.loc 1 143 5 is_stmt 1 view .LVU106
 449              		.loc 1 143 39 is_stmt 0 view .LVU107
 450 0024 C3F81C23 		str	r2, [r3, #796]	@ float
 144:Application/motor_task.c ****     exo_controller.dm_motor[1].Output = 0;
 451              		.loc 1 144 5 is_stmt 1 view .LVU108
 452              		.loc 1 144 39 is_stmt 0 view .LVU109
 453 0028 03F2B451 		addw	r1, r3, #1460
 454 002c 0A60     		str	r2, [r1]	@ float
 145:Application/motor_task.c ****     exo_controller.dm_motor[2].Output = 0;
 455              		.loc 1 145 5 is_stmt 1 view .LVU110
 456              		.loc 1 145 39 is_stmt 0 view .LVU111
 457 002e 03F64C03 		addw	r3, r3, #2124
 458 0032 1A60     		str	r2, [r3]	@ float
 146:Application/motor_task.c ****     break;
 459              		.loc 1 146 5 is_stmt 1 view .LVU112
 460 0034 F8E0     		b	.L29
 461              	.L35:
 147:Application/motor_task.c **** 
 148:Application/motor_task.c ****   case ANGLE_MODE:
 149:Application/motor_task.c ****     /* -------------------------------- lk motor -------------------------------- */
 150:Application/motor_task.c ****     /* ---------------------------- shoulder motor 3 ---------------------------- */
 151:Application/motor_task.c ****     if (exo_controller.debug_mode == 6)
 462              		.loc 1 151 5 view .LVU113
 463              		.loc 1 151 23 is_stmt 0 view .LVU114
 464 0036 B64B     		ldr	r3, .L41
 465 0038 9B78     		ldrb	r3, [r3, #2]	@ zero_extendqisi2
 466              		.loc 1 151 8 view .LVU115
 467 003a 062B     		cmp	r3, #6
 468 003c 00F0F580 		beq	.L40
 152:Application/motor_task.c ****       PID_Calculate(&exo_controller.lk_motor.PID_Angle, -exo_controller.xzy_shoulder.INS_shoulder.x
 153:Application/motor_task.c ****     else
 154:Application/motor_task.c ****       PID_Calculate(&exo_controller.lk_motor.PID_Angle, exo_controller.lk_motor.angle_in_degree, Ta
 469              		.loc 1 154 7 is_stmt 1 view .LVU116
 470 0040 B348     		ldr	r0, .L41
 471 0042 B44B     		ldr	r3, .L41+4
 472 0044 D3ED000A 		vldr.32	s1, [r3]
 473 0048 90ED120A 		vldr.32	s0, [r0, #72]
 474 004c 00F50070 		add	r0, r0, #512
 475 0050 FFF7FEFF 		bl	PID_Calculate
 476              	.LVL15:
 477              	.L38:
 155:Application/motor_task.c ****     float VelocityLoopInput = float_constrain(exo_controller.lk_motor.PID_Angle.Output,
 478              		.loc 1 155 5 view .LVU117
 156:Application/motor_task.c ****                                               -exo_controller.lk_motor.PID_Angle.MaxOut, exo_contro
 479              		.loc 1 156 81 is_stmt 0 view .LVU118
 480 0054 AE4C     		ldr	r4, .L41
 481 0056 94ED901A 		vldr.32	s2, [r4, #576]
 155:Application/motor_task.c ****     float VelocityLoopInput = float_constrain(exo_controller.lk_motor.PID_Angle.Output,
ARM GAS  C:\Users\86152\AppData\Local\Temp\ccVS2a4g.s 			page 13


 482              		.loc 1 155 31 view .LVU119
 483 005a F1EE410A 		vneg.f32	s1, s2
 484 005e 94ED8D0A 		vldr.32	s0, [r4, #564]
 485 0062 FFF7FEFF 		bl	float_constrain
 486              	.LVL16:
 487 0066 F0EE400A 		vmov.f32	s1, s0
 488              	.LVL17:
 157:Application/motor_task.c ****     PID_Calculate(&exo_controller.lk_motor.PID_Velocity, exo_controller.lk_motor.velocity_in_rpm, V
 489              		.loc 1 157 5 is_stmt 1 view .LVU120
 490              		.loc 1 157 81 is_stmt 0 view .LVU121
 491 006a B4F92C30 		ldrsh	r3, [r4, #44]
 492 006e 00EE103A 		vmov	s0, r3	@ int
 493              	.LVL18:
 494              		.loc 1 157 5 view .LVU122
 495 0072 B8EEC00A 		vcvt.f32.s32	s0, s0
 496 0076 04F5A470 		add	r0, r4, #328
 497 007a FFF7FEFF 		bl	PID_Calculate
 498              	.LVL19:
 158:Application/motor_task.c ****     float TorqueLoopInput = float_constrain(exo_controller.lk_motor.PID_Velocity.Output,
 499              		.loc 1 158 5 is_stmt 1 view .LVU123
 159:Application/motor_task.c ****                                             -exo_controller.lk_motor.PID_Velocity.MaxOut, exo_contr
 500              		.loc 1 159 82 is_stmt 0 view .LVU124
 501 007e 94ED621A 		vldr.32	s2, [r4, #392]
 158:Application/motor_task.c ****     float TorqueLoopInput = float_constrain(exo_controller.lk_motor.PID_Velocity.Output,
 502              		.loc 1 158 29 view .LVU125
 503 0082 F1EE410A 		vneg.f32	s1, s2
 504 0086 94ED5F0A 		vldr.32	s0, [r4, #380]
 505 008a FFF7FEFF 		bl	float_constrain
 506              	.LVL20:
 160:Application/motor_task.c ****     exo_controller.lk_motor.Output = float_constrain(TorqueLoopInput, -exo_controller.lk_motor.max_
 507              		.loc 1 160 5 is_stmt 1 view .LVU126
 508              		.loc 1 160 95 is_stmt 0 view .LVU127
 509 008e 94ED221A 		vldr.32	s2, [r4, #136]
 510              		.loc 1 160 38 view .LVU128
 511 0092 F1EE410A 		vneg.f32	s1, s2
 512 0096 FFF7FEFF 		bl	float_constrain
 513              	.LVL21:
 514              		.loc 1 160 36 view .LVU129
 515 009a 84ED210A 		vstr.32	s0, [r4, #132]
 161:Application/motor_task.c **** 
 162:Application/motor_task.c ****     /* --------------------------------- dm motor -------------------------------- */
 163:Application/motor_task.c ****     /* ---------------------------- shoulder motor 1 ---------------------------- */
 164:Application/motor_task.c ****     PID_Calculate(&exo_controller.dm_motor[0].PID_Angle, exo_controller.dm_motor[0].angle_in_degree
 516              		.loc 1 164 5 is_stmt 1 view .LVU130
 517 009e 9E4B     		ldr	r3, .L41+8
 518 00a0 D3ED000A 		vldr.32	s1, [r3]
 519 00a4 94EDB80A 		vldr.32	s0, [r4, #736]
 520 00a8 04F59360 		add	r0, r4, #1176
 521 00ac FFF7FEFF 		bl	PID_Calculate
 522              	.LVL22:
 165:Application/motor_task.c ****     VelocityLoopInput = float_constrain(exo_controller.dm_motor[0].PID_Angle.Output,
 523              		.loc 1 165 5 view .LVU131
 166:Application/motor_task.c ****                                         -exo_controller.dm_motor[0].PID_Angle.MaxOut, exo_controlle
 524              		.loc 1 166 78 is_stmt 0 view .LVU132
 525 00b0 04F59B63 		add	r3, r4, #1240
 526 00b4 93ED001A 		vldr.32	s2, [r3]
 165:Application/motor_task.c ****     VelocityLoopInput = float_constrain(exo_controller.dm_motor[0].PID_Angle.Output,
ARM GAS  C:\Users\86152\AppData\Local\Temp\ccVS2a4g.s 			page 14


 527              		.loc 1 165 25 view .LVU133
 528 00b8 04F2CC43 		addw	r3, r4, #1228
 529 00bc F1EE410A 		vneg.f32	s1, s2
 530 00c0 93ED000A 		vldr.32	s0, [r3]
 531 00c4 FFF7FEFF 		bl	float_constrain
 532              	.LVL23:
 533 00c8 F0EE400A 		vmov.f32	s1, s0
 534              	.LVL24:
 167:Application/motor_task.c **** 
 168:Application/motor_task.c ****     PID_Calculate(&exo_controller.dm_motor[0].PID_Velocity, exo_controller.dm_motor[0].velocity_in_
 535              		.loc 1 168 5 is_stmt 1 view .LVU134
 536 00cc 94EDAF0A 		vldr.32	s0, [r4, #700]
 537              	.LVL25:
 538              		.loc 1 168 5 is_stmt 0 view .LVU135
 539 00d0 04F57870 		add	r0, r4, #992
 540 00d4 FFF7FEFF 		bl	PID_Calculate
 541              	.LVL26:
 169:Application/motor_task.c ****     TorqueLoopInput = float_constrain(exo_controller.dm_motor[0].PID_Velocity.Output,
 542              		.loc 1 169 5 is_stmt 1 view .LVU136
 170:Application/motor_task.c ****                                       -exo_controller.dm_motor[0].PID_Velocity.MaxOut, exo_controll
 543              		.loc 1 170 79 is_stmt 0 view .LVU137
 544 00d8 04F58463 		add	r3, r4, #1056
 545 00dc 93ED001A 		vldr.32	s2, [r3]
 169:Application/motor_task.c ****     TorqueLoopInput = float_constrain(exo_controller.dm_motor[0].PID_Velocity.Output,
 546              		.loc 1 169 23 view .LVU138
 547 00e0 04F21443 		addw	r3, r4, #1044
 548 00e4 F1EE410A 		vneg.f32	s1, s2
 549 00e8 93ED000A 		vldr.32	s0, [r3]
 550 00ec FFF7FEFF 		bl	float_constrain
 551              	.LVL27:
 171:Application/motor_task.c **** 
 172:Application/motor_task.c ****     exo_controller.dm_motor[0].Output = float_constrain(TorqueLoopInput, -exo_controller.dm_motor[0
 552              		.loc 1 172 5 is_stmt 1 view .LVU139
 553              		.loc 1 172 101 is_stmt 0 view .LVU140
 554 00f0 94EDC81A 		vldr.32	s2, [r4, #800]
 555              		.loc 1 172 41 view .LVU141
 556 00f4 F1EE410A 		vneg.f32	s1, s2
 557 00f8 FFF7FEFF 		bl	float_constrain
 558              	.LVL28:
 559              		.loc 1 172 39 view .LVU142
 560 00fc 84EDC70A 		vstr.32	s0, [r4, #796]
 173:Application/motor_task.c **** 
 174:Application/motor_task.c ****     /* ---------------------------- shoulder motor 1 ---------------------------- */
 175:Application/motor_task.c ****     PID_Calculate(&exo_controller.dm_motor[1].PID_Angle, exo_controller.dm_motor[1].angle_in_degree
 561              		.loc 1 175 5 is_stmt 1 view .LVU143
 562 0100 04F5AF63 		add	r3, r4, #1400
 563 0104 854A     		ldr	r2, .L41+12
 564 0106 D2ED000A 		vldr.32	s1, [r2]
 565 010a 93ED000A 		vldr.32	s0, [r3]
 566 010e 04F5E660 		add	r0, r4, #1840
 567 0112 FFF7FEFF 		bl	PID_Calculate
 568              	.LVL29:
 176:Application/motor_task.c ****     VelocityLoopInput = float_constrain(exo_controller.dm_motor[1].PID_Angle.Output,
 569              		.loc 1 176 5 view .LVU144
 177:Application/motor_task.c ****                                         -exo_controller.dm_motor[1].PID_Angle.MaxOut, exo_controlle
 570              		.loc 1 177 78 is_stmt 0 view .LVU145
 571 0116 04F5EE63 		add	r3, r4, #1904
ARM GAS  C:\Users\86152\AppData\Local\Temp\ccVS2a4g.s 			page 15


 572 011a 93ED001A 		vldr.32	s2, [r3]
 176:Application/motor_task.c ****     VelocityLoopInput = float_constrain(exo_controller.dm_motor[1].PID_Angle.Output,
 573              		.loc 1 176 25 view .LVU146
 574 011e 04F26473 		addw	r3, r4, #1892
 575 0122 F1EE410A 		vneg.f32	s1, s2
 576 0126 93ED000A 		vldr.32	s0, [r3]
 577 012a FFF7FEFF 		bl	float_constrain
 578              	.LVL30:
 579 012e F0EE400A 		vmov.f32	s1, s0
 580              	.LVL31:
 178:Application/motor_task.c **** 
 179:Application/motor_task.c ****     PID_Calculate(&exo_controller.dm_motor[1].PID_Velocity, exo_controller.dm_motor[1].velocity_in_
 581              		.loc 1 179 5 is_stmt 1 view .LVU147
 582 0132 04F25453 		addw	r3, r4, #1364
 583 0136 93ED000A 		vldr.32	s0, [r3]
 584              	.LVL32:
 585              		.loc 1 179 5 is_stmt 0 view .LVU148
 586 013a 04F5CF60 		add	r0, r4, #1656
 587 013e FFF7FEFF 		bl	PID_Calculate
 588              	.LVL33:
 180:Application/motor_task.c ****     TorqueLoopInput = float_constrain(exo_controller.dm_motor[1].PID_Velocity.Output,
 589              		.loc 1 180 5 is_stmt 1 view .LVU149
 181:Application/motor_task.c ****                                       -exo_controller.dm_motor[1].PID_Velocity.MaxOut, exo_controll
 590              		.loc 1 181 79 is_stmt 0 view .LVU150
 591 0142 04F5D763 		add	r3, r4, #1720
 592 0146 93ED001A 		vldr.32	s2, [r3]
 180:Application/motor_task.c ****     TorqueLoopInput = float_constrain(exo_controller.dm_motor[1].PID_Velocity.Output,
 593              		.loc 1 180 23 view .LVU151
 594 014a 04F2AC63 		addw	r3, r4, #1708
 595 014e F1EE410A 		vneg.f32	s1, s2
 596 0152 93ED000A 		vldr.32	s0, [r3]
 597 0156 FFF7FEFF 		bl	float_constrain
 598              	.LVL34:
 182:Application/motor_task.c **** 
 183:Application/motor_task.c ****     exo_controller.dm_motor[1].Output = float_constrain(TorqueLoopInput, -exo_controller.dm_motor[1
 599              		.loc 1 183 5 is_stmt 1 view .LVU152
 600              		.loc 1 183 101 is_stmt 0 view .LVU153
 601 015a 04F5B763 		add	r3, r4, #1464
 602 015e 93ED001A 		vldr.32	s2, [r3]
 603              		.loc 1 183 41 view .LVU154
 604 0162 F1EE410A 		vneg.f32	s1, s2
 605 0166 FFF7FEFF 		bl	float_constrain
 606              	.LVL35:
 607              		.loc 1 183 39 view .LVU155
 608 016a 04F2B453 		addw	r3, r4, #1460
 609 016e 83ED000A 		vstr.32	s0, [r3]
 184:Application/motor_task.c **** 
 185:Application/motor_task.c ****     /* ------------------------------- elbow motor ------------------------------ */
 186:Application/motor_task.c ****     PID_Calculate(&exo_controller.dm_motor[2].PID_Angle, exo_controller.dm_motor[2].angle_in_degree
 610              		.loc 1 186 5 is_stmt 1 view .LVU156
 611 0172 04F50163 		add	r3, r4, #2064
 612 0176 6A4A     		ldr	r2, .L41+16
 613 0178 D2ED000A 		vldr.32	s1, [r2]
 614 017c 93ED000A 		vldr.32	s0, [r3]
 615 0180 04F6C810 		addw	r0, r4, #2504
 616 0184 FFF7FEFF 		bl	PID_Calculate
 617              	.LVL36:
ARM GAS  C:\Users\86152\AppData\Local\Temp\ccVS2a4g.s 			page 16


 187:Application/motor_task.c ****     VelocityLoopInput = float_constrain(exo_controller.dm_motor[2].PID_Angle.Output,
 618              		.loc 1 187 5 view .LVU157
 188:Application/motor_task.c ****                                         -exo_controller.dm_motor[2].PID_Angle.MaxOut, exo_controlle
 619              		.loc 1 188 78 is_stmt 0 view .LVU158
 620 0188 04F60823 		addw	r3, r4, #2568
 621 018c 93ED001A 		vldr.32	s2, [r3]
 187:Application/motor_task.c ****     VelocityLoopInput = float_constrain(exo_controller.dm_motor[2].PID_Angle.Output,
 622              		.loc 1 187 25 view .LVU159
 623 0190 04F6FC13 		addw	r3, r4, #2556
 624 0194 F1EE410A 		vneg.f32	s1, s2
 625 0198 93ED000A 		vldr.32	s0, [r3]
 626 019c FFF7FEFF 		bl	float_constrain
 627              	.LVL37:
 628 01a0 F0EE400A 		vmov.f32	s1, s0
 629              	.LVL38:
 189:Application/motor_task.c ****     PID_Calculate(&exo_controller.dm_motor[2].PID_Velocity, exo_controller.dm_motor[2].velocity_in_
 630              		.loc 1 189 5 is_stmt 1 view .LVU160
 631 01a4 04F2EC73 		addw	r3, r4, #2028
 632 01a8 93ED000A 		vldr.32	s0, [r3]
 633              	.LVL39:
 634              		.loc 1 189 5 is_stmt 0 view .LVU161
 635 01ac 04F51160 		add	r0, r4, #2320
 636 01b0 FFF7FEFF 		bl	PID_Calculate
 637              	.LVL40:
 190:Application/motor_task.c ****     TorqueLoopInput = float_constrain(exo_controller.dm_motor[2].PID_Velocity.Output,
 638              		.loc 1 190 5 is_stmt 1 view .LVU162
 191:Application/motor_task.c ****                                       -exo_controller.dm_motor[2].PID_Velocity.MaxOut, exo_controll
 639              		.loc 1 191 79 is_stmt 0 view .LVU163
 640 01b4 04F51563 		add	r3, r4, #2384
 641 01b8 93ED001A 		vldr.32	s2, [r3]
 190:Application/motor_task.c ****     TorqueLoopInput = float_constrain(exo_controller.dm_motor[2].PID_Velocity.Output,
 642              		.loc 1 190 23 view .LVU164
 643 01bc 04F64413 		addw	r3, r4, #2372
 644 01c0 F1EE410A 		vneg.f32	s1, s2
 645 01c4 93ED000A 		vldr.32	s0, [r3]
 646 01c8 FFF7FEFF 		bl	float_constrain
 647              	.LVL41:
 192:Application/motor_task.c **** 
 193:Application/motor_task.c ****     exo_controller.dm_motor[2].Output = float_constrain(TorqueLoopInput, -exo_controller.dm_motor[2
 648              		.loc 1 193 5 is_stmt 1 view .LVU165
 649              		.loc 1 193 101 is_stmt 0 view .LVU166
 650 01cc 04F50563 		add	r3, r4, #2128
 651 01d0 93ED001A 		vldr.32	s2, [r3]
 652              		.loc 1 193 41 view .LVU167
 653 01d4 F1EE410A 		vneg.f32	s1, s2
 654 01d8 FFF7FEFF 		bl	float_constrain
 655              	.LVL42:
 656              		.loc 1 193 39 view .LVU168
 657 01dc 04F64C04 		addw	r4, r4, #2124
 658 01e0 84ED000A 		vstr.32	s0, [r4]
 659              	.L34:
 194:Application/motor_task.c **** 
 195:Application/motor_task.c ****   case Velocity:
 196:Application/motor_task.c ****     // 速度控制
 197:Application/motor_task.c ****     // Motor_Speed_Calculate(&exo_controller.lk_motor, exo_controller.lk_motor.velocity_in_rpm, Tar
 198:Application/motor_task.c **** 
 199:Application/motor_task.c ****     // PID_Calculate(&exo_controller.lk_motor.PID_Velocity, exo_controller.lk_motor.velocity_in_rpm
ARM GAS  C:\Users\86152\AppData\Local\Temp\ccVS2a4g.s 			page 17


 200:Application/motor_task.c ****     // TorqueLoopInput = float_constrain(exo_controller.lk_motor.PID_Velocity.Output,
 201:Application/motor_task.c ****     //                                   -exo_controller.lk_motor.PID_Velocity.MaxOut, exo_controll
 202:Application/motor_task.c **** 
 203:Application/motor_task.c ****     // exo_controller.lk_motor.Output = float_constrain(TorqueLoopInput, -exo_controller.lk_motor.m
 204:Application/motor_task.c **** 
 205:Application/motor_task.c ****     /* --------------------------------- dm motor -------------------------------- */
 206:Application/motor_task.c ****     PID_Calculate(&exo_controller.dm_motor[0].PID_Velocity, exo_controller.dm_motor[0].velocity_in_
 660              		.loc 1 206 5 is_stmt 1 view .LVU169
 661 01e4 4A4C     		ldr	r4, .L41
 662 01e6 4F4B     		ldr	r3, .L41+20
 663 01e8 D3ED000A 		vldr.32	s1, [r3]
 664 01ec 94EDAF0A 		vldr.32	s0, [r4, #700]
 665 01f0 04F57870 		add	r0, r4, #992
 666 01f4 FFF7FEFF 		bl	PID_Calculate
 667              	.LVL43:
 207:Application/motor_task.c ****     TorqueLoopInput = float_constrain(exo_controller.dm_motor[0].PID_Velocity.Output,
 668              		.loc 1 207 5 view .LVU170
 208:Application/motor_task.c ****                                       -exo_controller.dm_motor[0].PID_Velocity.MaxOut, exo_controll
 669              		.loc 1 208 79 is_stmt 0 view .LVU171
 670 01f8 04F58463 		add	r3, r4, #1056
 671 01fc 93ED001A 		vldr.32	s2, [r3]
 207:Application/motor_task.c ****     TorqueLoopInput = float_constrain(exo_controller.dm_motor[0].PID_Velocity.Output,
 672              		.loc 1 207 23 view .LVU172
 673 0200 04F21443 		addw	r3, r4, #1044
 674 0204 F1EE410A 		vneg.f32	s1, s2
 675 0208 93ED000A 		vldr.32	s0, [r3]
 676 020c FFF7FEFF 		bl	float_constrain
 677              	.LVL44:
 209:Application/motor_task.c **** 
 210:Application/motor_task.c ****     exo_controller.dm_motor[0].Output = float_constrain(TorqueLoopInput, -exo_controller.dm_motor[0
 678              		.loc 1 210 5 is_stmt 1 view .LVU173
 679              		.loc 1 210 101 is_stmt 0 view .LVU174
 680 0210 94EDC81A 		vldr.32	s2, [r4, #800]
 681              		.loc 1 210 41 view .LVU175
 682 0214 F1EE410A 		vneg.f32	s1, s2
 683 0218 FFF7FEFF 		bl	float_constrain
 684              	.LVL45:
 685              		.loc 1 210 39 view .LVU176
 686 021c 84EDC70A 		vstr.32	s0, [r4, #796]
 211:Application/motor_task.c **** 
 212:Application/motor_task.c ****     // 避免模式切换疯掉
 213:Application/motor_task.c ****     TargetAngle1 = exo_controller.dm_motor[0].angle_in_degree;
 687              		.loc 1 213 5 is_stmt 1 view .LVU177
 688              		.loc 1 213 46 is_stmt 0 view .LVU178
 689 0220 D4F8E022 		ldr	r2, [r4, #736]	@ float
 690              		.loc 1 213 18 view .LVU179
 691 0224 3C4B     		ldr	r3, .L41+8
 692 0226 1A60     		str	r2, [r3]	@ float
 214:Application/motor_task.c ****     break;
 693              		.loc 1 214 5 is_stmt 1 view .LVU180
 694              	.L29:
 695              		.loc 1 214 5 is_stmt 0 view .LVU181
 696              	.LBE2:
 215:Application/motor_task.c **** 
 216:Application/motor_task.c ****   case Debug:
 217:Application/motor_task.c ****     exo_controller.lk_motor.Output = debugoutput;
 218:Application/motor_task.c ****     TargetAngle1 = exo_controller.lk_motor.angle_in_degree;
ARM GAS  C:\Users\86152\AppData\Local\Temp\ccVS2a4g.s 			page 18


 219:Application/motor_task.c ****     break;
 220:Application/motor_task.c **** 
 221:Application/motor_task.c ****   case 5:
 222:Application/motor_task.c ****     TargetAngle1 = a * sin(b * exo_controller.t) + c;
 223:Application/motor_task.c ****     PID_Calculate(&exo_controller.lk_motor.PID_Angle, exo_controller.lk_motor.angle_in_degree, Targ
 224:Application/motor_task.c ****     VelocityLoopInput = float_constrain(exo_controller.lk_motor.PID_Angle.Output,
 225:Application/motor_task.c ****                                         -exo_controller.lk_motor.PID_Angle.MaxOut, exo_controller.l
 226:Application/motor_task.c **** 
 227:Application/motor_task.c ****     PID_Calculate(&exo_controller.lk_motor.PID_Velocity, exo_controller.lk_motor.velocity_in_rpm, V
 228:Application/motor_task.c ****     TorqueLoopInput = float_constrain(exo_controller.lk_motor.PID_Velocity.Output,
 229:Application/motor_task.c ****                                       -exo_controller.lk_motor.PID_Velocity.MaxOut, exo_controller.
 230:Application/motor_task.c **** 
 231:Application/motor_task.c ****     exo_controller.lk_motor.Output = float_constrain(TorqueLoopInput, -exo_controller.lk_motor.max_
 232:Application/motor_task.c ****     break;
 233:Application/motor_task.c ****   }
 234:Application/motor_task.c **** }
 697              		.loc 1 234 1 view .LVU182
 698 0228 D0BD     		pop	{r4, r6, r7, pc}
 699              	.L40:
 700              	.LBB3:
 152:Application/motor_task.c ****     else
 701              		.loc 1 152 7 is_stmt 1 view .LVU183
 152:Application/motor_task.c ****     else
 702              		.loc 1 152 114 is_stmt 0 view .LVU184
 703 022a 3948     		ldr	r0, .L41
 704 022c 00F53863 		add	r3, r0, #2944
 705 0230 93ED000A 		vldr.32	s0, [r3]
 152:Application/motor_task.c ****     else
 706              		.loc 1 152 7 view .LVU185
 707 0234 374B     		ldr	r3, .L41+4
 708 0236 D3ED000A 		vldr.32	s1, [r3]
 709 023a B1EE400A 		vneg.f32	s0, s0
 710 023e 00F50070 		add	r0, r0, #512
 711 0242 FFF7FEFF 		bl	PID_Calculate
 712              	.LVL46:
 713 0246 05E7     		b	.L38
 714              	.L33:
 217:Application/motor_task.c ****     TargetAngle1 = exo_controller.lk_motor.angle_in_degree;
 715              		.loc 1 217 5 is_stmt 1 view .LVU186
 217:Application/motor_task.c ****     TargetAngle1 = exo_controller.lk_motor.angle_in_degree;
 716              		.loc 1 217 36 is_stmt 0 view .LVU187
 717 0248 314B     		ldr	r3, .L41
 718 024a 374A     		ldr	r2, .L41+24
 719 024c B2F90020 		ldrsh	r2, [r2]
 720 0250 07EE902A 		vmov	s15, r2	@ int
 721 0254 F8EEE77A 		vcvt.f32.s32	s15, s15
 722 0258 C3ED217A 		vstr.32	s15, [r3, #132]
 218:Application/motor_task.c ****     break;
 723              		.loc 1 218 5 is_stmt 1 view .LVU188
 218:Application/motor_task.c ****     break;
 724              		.loc 1 218 43 is_stmt 0 view .LVU189
 725 025c 9A6C     		ldr	r2, [r3, #72]	@ float
 218:Application/motor_task.c ****     break;
 726              		.loc 1 218 18 view .LVU190
 727 025e 2E4B     		ldr	r3, .L41+8
 728 0260 1A60     		str	r2, [r3]	@ float
 219:Application/motor_task.c **** 
ARM GAS  C:\Users\86152\AppData\Local\Temp\ccVS2a4g.s 			page 19


 729              		.loc 1 219 5 is_stmt 1 view .LVU191
 730 0262 E1E7     		b	.L29
 731              	.L31:
 222:Application/motor_task.c ****     PID_Calculate(&exo_controller.lk_motor.PID_Angle, exo_controller.lk_motor.angle_in_degree, Targ
 732              		.loc 1 222 5 view .LVU192
 222:Application/motor_task.c ****     PID_Calculate(&exo_controller.lk_motor.PID_Angle, exo_controller.lk_motor.angle_in_degree, Targ
 733              		.loc 1 222 46 is_stmt 0 view .LVU193
 734 0264 2A4C     		ldr	r4, .L41
 735 0266 94ED047A 		vldr.32	s14, [r4, #16]
 222:Application/motor_task.c ****     PID_Calculate(&exo_controller.lk_motor.PID_Angle, exo_controller.lk_motor.angle_in_degree, Targ
 736              		.loc 1 222 30 view .LVU194
 737 026a 304B     		ldr	r3, .L41+28
 738 026c D3ED007A 		vldr.32	s15, [r3]
 222:Application/motor_task.c ****     PID_Calculate(&exo_controller.lk_motor.PID_Angle, exo_controller.lk_motor.angle_in_degree, Targ
 739              		.loc 1 222 24 view .LVU195
 740 0270 67EE277A 		vmul.f32	s15, s14, s15
 741 0274 17EE900A 		vmov	r0, s15
 742 0278 FFF7FEFF 		bl	__aeabi_f2d
 743              	.LVL47:
 744 027c 41EC100B 		vmov	d0, r0, r1
 745 0280 FFF7FEFF 		bl	sin
 746              	.LVL48:
 747 0284 57EC106B 		vmov	r6, r7, d0
 222:Application/motor_task.c ****     PID_Calculate(&exo_controller.lk_motor.PID_Angle, exo_controller.lk_motor.angle_in_degree, Targ
 748              		.loc 1 222 22 view .LVU196
 749 0288 294B     		ldr	r3, .L41+32
 750 028a 1868     		ldr	r0, [r3]	@ float
 751 028c FFF7FEFF 		bl	__aeabi_f2d
 752              	.LVL49:
 753 0290 3246     		mov	r2, r6
 754 0292 3B46     		mov	r3, r7
 755 0294 FFF7FEFF 		bl	__aeabi_dmul
 756              	.LVL50:
 757 0298 0646     		mov	r6, r0
 758 029a 0F46     		mov	r7, r1
 222:Application/motor_task.c ****     PID_Calculate(&exo_controller.lk_motor.PID_Angle, exo_controller.lk_motor.angle_in_degree, Targ
 759              		.loc 1 222 50 view .LVU197
 760 029c 254B     		ldr	r3, .L41+36
 761 029e 1868     		ldr	r0, [r3]	@ float
 762 02a0 FFF7FEFF 		bl	__aeabi_f2d
 763              	.LVL51:
 764 02a4 3246     		mov	r2, r6
 765 02a6 3B46     		mov	r3, r7
 766 02a8 FFF7FEFF 		bl	__aeabi_dadd
 767              	.LVL52:
 768 02ac FFF7FEFF 		bl	__aeabi_d2f
 769              	.LVL53:
 770 02b0 00EE900A 		vmov	s1, r0
 222:Application/motor_task.c ****     PID_Calculate(&exo_controller.lk_motor.PID_Angle, exo_controller.lk_motor.angle_in_degree, Targ
 771              		.loc 1 222 18 view .LVU198
 772 02b4 184B     		ldr	r3, .L41+8
 773 02b6 1860     		str	r0, [r3]	@ float
 223:Application/motor_task.c ****     VelocityLoopInput = float_constrain(exo_controller.lk_motor.PID_Angle.Output,
 774              		.loc 1 223 5 is_stmt 1 view .LVU199
 775 02b8 94ED120A 		vldr.32	s0, [r4, #72]
 776 02bc 04F50070 		add	r0, r4, #512
 777 02c0 FFF7FEFF 		bl	PID_Calculate
ARM GAS  C:\Users\86152\AppData\Local\Temp\ccVS2a4g.s 			page 20


 778              	.LVL54:
 224:Application/motor_task.c ****                                         -exo_controller.lk_motor.PID_Angle.MaxOut, exo_controller.l
 779              		.loc 1 224 5 view .LVU200
 225:Application/motor_task.c **** 
 780              		.loc 1 225 75 is_stmt 0 view .LVU201
 781 02c4 94ED901A 		vldr.32	s2, [r4, #576]
 224:Application/motor_task.c ****                                         -exo_controller.lk_motor.PID_Angle.MaxOut, exo_controller.l
 782              		.loc 1 224 25 view .LVU202
 783 02c8 F1EE410A 		vneg.f32	s1, s2
 784 02cc 94ED8D0A 		vldr.32	s0, [r4, #564]
 785 02d0 FFF7FEFF 		bl	float_constrain
 786              	.LVL55:
 787 02d4 F0EE400A 		vmov.f32	s1, s0
 788              	.LVL56:
 227:Application/motor_task.c ****     TorqueLoopInput = float_constrain(exo_controller.lk_motor.PID_Velocity.Output,
 789              		.loc 1 227 5 is_stmt 1 view .LVU203
 227:Application/motor_task.c ****     TorqueLoopInput = float_constrain(exo_controller.lk_motor.PID_Velocity.Output,
 790              		.loc 1 227 81 is_stmt 0 view .LVU204
 791 02d8 B4F92C30 		ldrsh	r3, [r4, #44]
 792 02dc 00EE103A 		vmov	s0, r3	@ int
 793              	.LVL57:
 227:Application/motor_task.c ****     TorqueLoopInput = float_constrain(exo_controller.lk_motor.PID_Velocity.Output,
 794              		.loc 1 227 5 view .LVU205
 795 02e0 B8EEC00A 		vcvt.f32.s32	s0, s0
 796 02e4 04F5A470 		add	r0, r4, #328
 797 02e8 FFF7FEFF 		bl	PID_Calculate
 798              	.LVL58:
 228:Application/motor_task.c ****                                       -exo_controller.lk_motor.PID_Velocity.MaxOut, exo_controller.
 799              		.loc 1 228 5 is_stmt 1 view .LVU206
 229:Application/motor_task.c **** 
 800              		.loc 1 229 76 is_stmt 0 view .LVU207
 801 02ec 94ED621A 		vldr.32	s2, [r4, #392]
 228:Application/motor_task.c ****                                       -exo_controller.lk_motor.PID_Velocity.MaxOut, exo_controller.
 802              		.loc 1 228 23 view .LVU208
 803 02f0 F1EE410A 		vneg.f32	s1, s2
 804 02f4 94ED5F0A 		vldr.32	s0, [r4, #380]
 805 02f8 FFF7FEFF 		bl	float_constrain
 806              	.LVL59:
 231:Application/motor_task.c ****     break;
 807              		.loc 1 231 5 is_stmt 1 view .LVU209
 231:Application/motor_task.c ****     break;
 808              		.loc 1 231 95 is_stmt 0 view .LVU210
 809 02fc 94ED221A 		vldr.32	s2, [r4, #136]
 231:Application/motor_task.c ****     break;
 810              		.loc 1 231 38 view .LVU211
 811 0300 F1EE410A 		vneg.f32	s1, s2
 812 0304 FFF7FEFF 		bl	float_constrain
 813              	.LVL60:
 231:Application/motor_task.c ****     break;
 814              		.loc 1 231 36 view .LVU212
 815 0308 84ED210A 		vstr.32	s0, [r4, #132]
 232:Application/motor_task.c ****   }
 816              		.loc 1 232 5 is_stmt 1 view .LVU213
 817              	.LBE3:
 818              		.loc 1 234 1 is_stmt 0 view .LVU214
 819 030c 8CE7     		b	.L29
 820              	.L42:
ARM GAS  C:\Users\86152\AppData\Local\Temp\ccVS2a4g.s 			page 21


 821 030e 00BF     		.align	2
 822              	.L41:
 823 0310 00000000 		.word	.LANCHOR2
 824 0314 00000000 		.word	.LANCHOR7
 825 0318 00000000 		.word	.LANCHOR5
 826 031c 00000000 		.word	.LANCHOR6
 827 0320 00000000 		.word	.LANCHOR8
 828 0324 00000000 		.word	.LANCHOR12
 829 0328 00000000 		.word	.LANCHOR13
 830 032c 00000000 		.word	.LANCHOR10
 831 0330 00000000 		.word	.LANCHOR9
 832 0334 00000000 		.word	.LANCHOR11
 833              		.cfi_endproc
 834              	.LFE176:
 836              		.section	.text.send_exo_motor_current,"ax",%progbits
 837              		.align	1
 838              		.syntax unified
 839              		.thumb
 840              		.thumb_func
 842              	send_exo_motor_current:
 843              	.LFB177:
 235:Application/motor_task.c **** 
 236:Application/motor_task.c **** static void send_exo_motor_current(void)
 237:Application/motor_task.c **** {
 844              		.loc 1 237 1 is_stmt 1 view -0
 845              		.cfi_startproc
 846              		@ args = 0, pretend = 0, frame = 0
 847              		@ frame_needed = 0, uses_anonymous_args = 0
 848 0000 70B5     		push	{r4, r5, r6, lr}
 849              	.LCFI6:
 850              		.cfi_def_cfa_offset 16
 851              		.cfi_offset 4, -16
 852              		.cfi_offset 5, -12
 853              		.cfi_offset 6, -8
 854              		.cfi_offset 14, -4
 855 0002 2DED028B 		vpush.64	{d8}
 856              	.LCFI7:
 857              		.cfi_def_cfa_offset 24
 858              		.cfi_offset 80, -24
 859              		.cfi_offset 81, -20
 238:Application/motor_task.c ****   static uint8_t CAN_send_status;
 860              		.loc 1 238 3 view .LVU216
 239:Application/motor_task.c **** 
 240:Application/motor_task.c ****   if (exo_controller.mode == SILENCE_MODE)
 861              		.loc 1 240 3 view .LVU217
 862              		.loc 1 240 21 is_stmt 0 view .LVU218
 863 0006 564B     		ldr	r3, .L47
 864 0008 1B78     		ldrb	r3, [r3]	@ zero_extendqisi2
 865              		.loc 1 240 6 view .LVU219
 866 000a 002B     		cmp	r3, #0
 867 000c 50D1     		bne	.L44
 241:Application/motor_task.c ****   {
 242:Application/motor_task.c ****     CAN_send_status = Send_DM_MIT_Command(&hcan1, 0X01, 0, 0, 0, 0, 0);
 868              		.loc 1 242 5 is_stmt 1 view .LVU220
 869              		.loc 1 242 23 is_stmt 0 view .LVU221
 870 000e 9FED558A 		vldr.32	s16, .L47+4
 871 0012 554D     		ldr	r5, .L47+8
ARM GAS  C:\Users\86152\AppData\Local\Temp\ccVS2a4g.s 			page 22


 872 0014 B0EE482A 		vmov.f32	s4, s16
 873 0018 F0EE481A 		vmov.f32	s3, s16
 874 001c B0EE481A 		vmov.f32	s2, s16
 875 0020 F0EE480A 		vmov.f32	s1, s16
 876 0024 B0EE480A 		vmov.f32	s0, s16
 877 0028 0121     		movs	r1, #1
 878 002a 2846     		mov	r0, r5
 879 002c FFF7FEFF 		bl	Send_DM_MIT_Command
 880              	.LVL61:
 881              		.loc 1 242 21 view .LVU222
 882 0030 4E4C     		ldr	r4, .L47+12
 883 0032 2070     		strb	r0, [r4]
 243:Application/motor_task.c ****     DWT_Delay(0.0003f);
 884              		.loc 1 243 5 is_stmt 1 view .LVU223
 885 0034 DFED4E8A 		vldr.32	s17, .L47+16
 886 0038 B0EE680A 		vmov.f32	s0, s17
 887 003c FFF7FEFF 		bl	DWT_Delay
 888              	.LVL62:
 244:Application/motor_task.c ****     CAN_send_status = CAN_send_status | Send_DM_MIT_Command(&hcan1, 0X02, 0, 0, 0, 0, 0);
 889              		.loc 1 244 5 view .LVU224
 890              		.loc 1 244 41 is_stmt 0 view .LVU225
 891 0040 B0EE482A 		vmov.f32	s4, s16
 892 0044 F0EE481A 		vmov.f32	s3, s16
 893 0048 B0EE481A 		vmov.f32	s2, s16
 894 004c F0EE480A 		vmov.f32	s1, s16
 895 0050 B0EE480A 		vmov.f32	s0, s16
 896 0054 0221     		movs	r1, #2
 897 0056 2846     		mov	r0, r5
 898 0058 FFF7FEFF 		bl	Send_DM_MIT_Command
 899              	.LVL63:
 900              		.loc 1 244 21 view .LVU226
 901 005c 2378     		ldrb	r3, [r4]	@ zero_extendqisi2
 902 005e 1843     		orrs	r0, r0, r3
 903 0060 2070     		strb	r0, [r4]
 245:Application/motor_task.c ****     DWT_Delay(0.0003f);
 904              		.loc 1 245 5 is_stmt 1 view .LVU227
 905 0062 B0EE680A 		vmov.f32	s0, s17
 906 0066 FFF7FEFF 		bl	DWT_Delay
 907              	.LVL64:
 246:Application/motor_task.c ****     CAN_send_status = CAN_send_status | Send_DM_MIT_Command(&hcan1, 0X03, 0, 0, 0, 0, 0);
 908              		.loc 1 246 5 view .LVU228
 909              		.loc 1 246 41 is_stmt 0 view .LVU229
 910 006a B0EE482A 		vmov.f32	s4, s16
 911 006e F0EE481A 		vmov.f32	s3, s16
 912 0072 B0EE481A 		vmov.f32	s2, s16
 913 0076 F0EE480A 		vmov.f32	s1, s16
 914 007a B0EE480A 		vmov.f32	s0, s16
 915 007e 0321     		movs	r1, #3
 916 0080 2846     		mov	r0, r5
 917 0082 FFF7FEFF 		bl	Send_DM_MIT_Command
 918              	.LVL65:
 919              		.loc 1 246 21 view .LVU230
 920 0086 2378     		ldrb	r3, [r4]	@ zero_extendqisi2
 921 0088 1843     		orrs	r0, r0, r3
 922 008a 2070     		strb	r0, [r4]
 247:Application/motor_task.c **** 
 248:Application/motor_task.c ****     exo_controller.CAN_send_status = CAN_send_status | Send_LK_Current_Single(&hcan2, 1, 0);
ARM GAS  C:\Users\86152\AppData\Local\Temp\ccVS2a4g.s 			page 23


 923              		.loc 1 248 5 is_stmt 1 view .LVU231
 924              		.loc 1 248 56 is_stmt 0 view .LVU232
 925 008c 0022     		movs	r2, #0
 926 008e 0121     		movs	r1, #1
 927 0090 3848     		ldr	r0, .L47+20
 928 0092 FFF7FEFF 		bl	Send_LK_Current_Single
 929              	.LVL66:
 930              		.loc 1 248 36 view .LVU233
 931 0096 2378     		ldrb	r3, [r4]	@ zero_extendqisi2
 932 0098 1843     		orrs	r0, r0, r3
 933 009a C0B2     		uxtb	r0, r0
 934 009c 304B     		ldr	r3, .L47
 935 009e 1876     		strb	r0, [r3, #24]
 249:Application/motor_task.c **** 
 250:Application/motor_task.c ****     if (exo_controller.CAN_send_status == HAL_OK)
 936              		.loc 1 250 5 is_stmt 1 view .LVU234
 937              		.loc 1 250 8 is_stmt 0 view .LVU235
 938 00a0 18B1     		cbz	r0, .L43
 251:Application/motor_task.c ****       ;
 252:Application/motor_task.c ****     else
 253:Application/motor_task.c ****       exo_controller.CAN_send_error_count++;
 939              		.loc 1 253 7 is_stmt 1 view .LVU236
 940              		.loc 1 253 21 is_stmt 0 view .LVU237
 941 00a2 1A46     		mov	r2, r3
 942 00a4 5B69     		ldr	r3, [r3, #20]
 943              		.loc 1 253 42 view .LVU238
 944 00a6 0133     		adds	r3, r3, #1
 945 00a8 5361     		str	r3, [r2, #20]
 946              	.L43:
 254:Application/motor_task.c ****   }
 255:Application/motor_task.c ****   else
 256:Application/motor_task.c ****   {
 257:Application/motor_task.c ****     CAN_send_status = Send_DM_MIT_Command(&hcan1, 0X01, 0, 0, 0, 0, exo_controller.dm_motor[0].Outp
 258:Application/motor_task.c ****     DWT_Delay(0.0003f);
 259:Application/motor_task.c ****     CAN_send_status = CAN_send_status | Send_DM_MIT_Command(&hcan1, 0X02, 0, 0, 0, 0, exo_controlle
 260:Application/motor_task.c ****     DWT_Delay(0.0003f);
 261:Application/motor_task.c ****     CAN_send_status = CAN_send_status | Send_DM_MIT_Command(&hcan1, 0X03, 0, 0, 0, 0, TargetTorque)
 262:Application/motor_task.c **** 
 263:Application/motor_task.c ****     exo_controller.CAN_send_status = CAN_send_status | Send_LK_Current_Single(&hcan2, 1, exo_contro
 264:Application/motor_task.c **** 
 265:Application/motor_task.c ****     if (exo_controller.CAN_send_status == HAL_OK)
 266:Application/motor_task.c ****       ;
 267:Application/motor_task.c ****     else
 268:Application/motor_task.c ****       exo_controller.CAN_send_error_count++;
 269:Application/motor_task.c ****   }
 270:Application/motor_task.c **** }
 947              		.loc 1 270 1 view .LVU239
 948 00aa BDEC028B 		vldm	sp!, {d8}
 949              	.LCFI8:
 950              		.cfi_remember_state
 951              		.cfi_restore 80
 952              		.cfi_restore 81
 953              		.cfi_def_cfa_offset 16
 954 00ae 70BD     		pop	{r4, r5, r6, pc}
 955              	.L44:
 956              	.LCFI9:
 957              		.cfi_restore_state
ARM GAS  C:\Users\86152\AppData\Local\Temp\ccVS2a4g.s 			page 24


 257:Application/motor_task.c ****     DWT_Delay(0.0003f);
 958              		.loc 1 257 5 is_stmt 1 view .LVU240
 257:Application/motor_task.c ****     DWT_Delay(0.0003f);
 959              		.loc 1 257 23 is_stmt 0 view .LVU241
 960 00b0 2B4D     		ldr	r5, .L47
 961 00b2 9FED2C8A 		vldr.32	s16, .L47+4
 962 00b6 2C4E     		ldr	r6, .L47+8
 963 00b8 95EDC72A 		vldr.32	s4, [r5, #796]
 964 00bc F0EE481A 		vmov.f32	s3, s16
 965 00c0 B0EE481A 		vmov.f32	s2, s16
 966 00c4 F0EE480A 		vmov.f32	s1, s16
 967 00c8 B0EE480A 		vmov.f32	s0, s16
 968 00cc 0121     		movs	r1, #1
 969 00ce 3046     		mov	r0, r6
 970 00d0 FFF7FEFF 		bl	Send_DM_MIT_Command
 971              	.LVL67:
 257:Application/motor_task.c ****     DWT_Delay(0.0003f);
 972              		.loc 1 257 21 view .LVU242
 973 00d4 254C     		ldr	r4, .L47+12
 974 00d6 2070     		strb	r0, [r4]
 258:Application/motor_task.c ****     CAN_send_status = CAN_send_status | Send_DM_MIT_Command(&hcan1, 0X02, 0, 0, 0, 0, exo_controlle
 975              		.loc 1 258 5 is_stmt 1 view .LVU243
 976 00d8 DFED258A 		vldr.32	s17, .L47+16
 977 00dc B0EE680A 		vmov.f32	s0, s17
 978 00e0 FFF7FEFF 		bl	DWT_Delay
 979              	.LVL68:
 259:Application/motor_task.c ****     DWT_Delay(0.0003f);
 980              		.loc 1 259 5 view .LVU244
 259:Application/motor_task.c ****     DWT_Delay(0.0003f);
 981              		.loc 1 259 41 is_stmt 0 view .LVU245
 982 00e4 05F2B453 		addw	r3, r5, #1460
 983 00e8 93ED002A 		vldr.32	s4, [r3]
 984 00ec F0EE481A 		vmov.f32	s3, s16
 985 00f0 B0EE481A 		vmov.f32	s2, s16
 986 00f4 F0EE480A 		vmov.f32	s1, s16
 987 00f8 B0EE480A 		vmov.f32	s0, s16
 988 00fc 0221     		movs	r1, #2
 989 00fe 3046     		mov	r0, r6
 990 0100 FFF7FEFF 		bl	Send_DM_MIT_Command
 991              	.LVL69:
 259:Application/motor_task.c ****     DWT_Delay(0.0003f);
 992              		.loc 1 259 21 view .LVU246
 993 0104 2378     		ldrb	r3, [r4]	@ zero_extendqisi2
 994 0106 1843     		orrs	r0, r0, r3
 995 0108 2070     		strb	r0, [r4]
 260:Application/motor_task.c ****     CAN_send_status = CAN_send_status | Send_DM_MIT_Command(&hcan1, 0X03, 0, 0, 0, 0, TargetTorque)
 996              		.loc 1 260 5 is_stmt 1 view .LVU247
 997 010a B0EE680A 		vmov.f32	s0, s17
 998 010e FFF7FEFF 		bl	DWT_Delay
 999              	.LVL70:
 261:Application/motor_task.c **** 
 1000              		.loc 1 261 5 view .LVU248
 261:Application/motor_task.c **** 
 1001              		.loc 1 261 41 is_stmt 0 view .LVU249
 1002 0112 194B     		ldr	r3, .L47+24
 1003 0114 93ED002A 		vldr.32	s4, [r3]
 1004 0118 F0EE481A 		vmov.f32	s3, s16
ARM GAS  C:\Users\86152\AppData\Local\Temp\ccVS2a4g.s 			page 25


 1005 011c B0EE481A 		vmov.f32	s2, s16
 1006 0120 F0EE480A 		vmov.f32	s1, s16
 1007 0124 B0EE480A 		vmov.f32	s0, s16
 1008 0128 0321     		movs	r1, #3
 1009 012a 3046     		mov	r0, r6
 1010 012c FFF7FEFF 		bl	Send_DM_MIT_Command
 1011              	.LVL71:
 261:Application/motor_task.c **** 
 1012              		.loc 1 261 21 view .LVU250
 1013 0130 2378     		ldrb	r3, [r4]	@ zero_extendqisi2
 1014 0132 1843     		orrs	r0, r0, r3
 1015 0134 2070     		strb	r0, [r4]
 263:Application/motor_task.c **** 
 1016              		.loc 1 263 5 is_stmt 1 view .LVU251
 263:Application/motor_task.c **** 
 1017              		.loc 1 263 113 is_stmt 0 view .LVU252
 1018 0136 D5ED217A 		vldr.32	s15, [r5, #132]
 263:Application/motor_task.c **** 
 1019              		.loc 1 263 56 view .LVU253
 1020 013a FDEEE77A 		vcvt.s32.f32	s15, s15
 1021 013e 17EE903A 		vmov	r3, s15	@ int
 1022 0142 1AB2     		sxth	r2, r3
 1023 0144 0121     		movs	r1, #1
 1024 0146 0B48     		ldr	r0, .L47+20
 1025 0148 FFF7FEFF 		bl	Send_LK_Current_Single
 1026              	.LVL72:
 263:Application/motor_task.c **** 
 1027              		.loc 1 263 36 view .LVU254
 1028 014c 2378     		ldrb	r3, [r4]	@ zero_extendqisi2
 1029 014e 1843     		orrs	r0, r0, r3
 1030 0150 C0B2     		uxtb	r0, r0
 1031 0152 2876     		strb	r0, [r5, #24]
 265:Application/motor_task.c ****       ;
 1032              		.loc 1 265 5 is_stmt 1 view .LVU255
 265:Application/motor_task.c ****       ;
 1033              		.loc 1 265 8 is_stmt 0 view .LVU256
 1034 0154 0028     		cmp	r0, #0
 1035 0156 A8D0     		beq	.L43
 268:Application/motor_task.c ****   }
 1036              		.loc 1 268 7 is_stmt 1 view .LVU257
 268:Application/motor_task.c ****   }
 1037              		.loc 1 268 21 is_stmt 0 view .LVU258
 1038 0158 6B69     		ldr	r3, [r5, #20]
 268:Application/motor_task.c ****   }
 1039              		.loc 1 268 42 view .LVU259
 1040 015a 0133     		adds	r3, r3, #1
 1041 015c 6B61     		str	r3, [r5, #20]
 1042              		.loc 1 270 1 view .LVU260
 1043 015e A4E7     		b	.L43
 1044              	.L48:
 1045              		.align	2
 1046              	.L47:
 1047 0160 00000000 		.word	.LANCHOR2
 1048 0164 00000000 		.word	0
 1049 0168 00000000 		.word	hcan1
 1050 016c 00000000 		.word	.LANCHOR14
 1051 0170 52499D39 		.word	966609234
ARM GAS  C:\Users\86152\AppData\Local\Temp\ccVS2a4g.s 			page 26


 1052 0174 00000000 		.word	hcan2
 1053 0178 00000000 		.word	.LANCHOR15
 1054              		.cfi_endproc
 1055              	.LFE177:
 1057              		.section	.text.exo_init,"ax",%progbits
 1058              		.align	1
 1059              		.global	exo_init
 1060              		.syntax unified
 1061              		.thumb
 1062              		.thumb_func
 1064              	exo_init:
 1065              	.LFB171:
  18:Application/motor_task.c ****   // PID初始化
 1066              		.loc 1 18 1 is_stmt 1 view -0
 1067              		.cfi_startproc
 1068              		@ args = 0, pretend = 0, frame = 0
 1069              		@ frame_needed = 0, uses_anonymous_args = 0
 1070 0000 38B5     		push	{r3, r4, r5, lr}
 1071              	.LCFI10:
 1072              		.cfi_def_cfa_offset 16
 1073              		.cfi_offset 3, -16
 1074              		.cfi_offset 4, -12
 1075              		.cfi_offset 5, -8
 1076              		.cfi_offset 14, -4
 1077 0002 2DED068B 		vpush.64	{d8, d9, d10}
 1078              	.LCFI11:
 1079              		.cfi_def_cfa_offset 40
 1080              		.cfi_offset 80, -40
 1081              		.cfi_offset 81, -36
 1082              		.cfi_offset 82, -32
 1083              		.cfi_offset 83, -28
 1084              		.cfi_offset 84, -24
 1085              		.cfi_offset 85, -20
  20:Application/motor_task.c ****   PID_Init(&exo_controller.lk_motor.PID_Angle, 8600, 4000, 0, 30, 1, 1, 0, 0, 0, 0, 0, Integral_Lim
 1086              		.loc 1 20 3 view .LVU262
 1087 0006 9FED8D8A 		vldr.32	s16, .L51
 1088 000a 8D4C     		ldr	r4, .L51+4
 1089 000c 1522     		movs	r2, #21
 1090 000e 0021     		movs	r1, #0
 1091 0010 F0EE484A 		vmov.f32	s9, s16
 1092 0014 B0EE484A 		vmov.f32	s8, s16
 1093 0018 F0EE483A 		vmov.f32	s7, s16
 1094 001c B0EE483A 		vmov.f32	s6, s16
 1095 0020 F0EE482A 		vmov.f32	s5, s16
 1096 0024 9FED872A 		vldr.32	s4, .L51+8
 1097 0028 F7EE081A 		vmov.f32	s3, #1.5e+0
 1098 002c B0EE481A 		vmov.f32	s2, s16
 1099 0030 DFED850A 		vldr.32	s1, .L51+12
 1100 0034 9FED850A 		vldr.32	s0, .L51+16
 1101 0038 04F5A470 		add	r0, r4, #328
 1102 003c FFF7FEFF 		bl	PID_Init
 1103              	.LVL73:
  21:Application/motor_task.c ****   exo_controller.lk_motor.zero_offset = 0;
 1104              		.loc 1 21 3 view .LVU263
 1105 0040 1522     		movs	r2, #21
 1106 0042 0021     		movs	r1, #0
 1107 0044 F0EE484A 		vmov.f32	s9, s16
ARM GAS  C:\Users\86152\AppData\Local\Temp\ccVS2a4g.s 			page 27


 1108 0048 B0EE484A 		vmov.f32	s8, s16
 1109 004c F0EE483A 		vmov.f32	s7, s16
 1110 0050 B0EE483A 		vmov.f32	s6, s16
 1111 0054 F7EE002A 		vmov.f32	s5, #1.0e+0
 1112 0058 B0EE622A 		vmov.f32	s4, s5
 1113 005c F3EE0E1A 		vmov.f32	s3, #3.0e+1
 1114 0060 B0EE481A 		vmov.f32	s2, s16
 1115 0064 DFED7A0A 		vldr.32	s1, .L51+20
 1116 0068 9FED7A0A 		vldr.32	s0, .L51+24
 1117 006c 04F50070 		add	r0, r4, #512
 1118 0070 FFF7FEFF 		bl	PID_Init
 1119              	.LVL74:
  22:Application/motor_task.c ****   exo_controller.lk_motor.max_out = 0;
 1120              		.loc 1 22 3 view .LVU264
  22:Application/motor_task.c ****   exo_controller.lk_motor.max_out = 0;
 1121              		.loc 1 22 39 is_stmt 0 view .LVU265
 1122 0074 0025     		movs	r5, #0
 1123 0076 A4F85C50 		strh	r5, [r4, #92]	@ movhi
  23:Application/motor_task.c **** 
 1124              		.loc 1 23 3 is_stmt 1 view .LVU266
  23:Application/motor_task.c **** 
 1125              		.loc 1 23 35 is_stmt 0 view .LVU267
 1126 007a 84ED228A 		vstr.32	s16, [r4, #136]
  25:Application/motor_task.c ****   PID_Init(&exo_controller.dm_motor[0].PID_Angle, 50, 5, 0, 0.4, 0.05, 0.01, 0, 0, 0, 0, 0, Integra
 1127              		.loc 1 25 3 is_stmt 1 view .LVU268
 1128 007e DFED76AA 		vldr.32	s21, .L51+28
 1129 0082 1522     		movs	r2, #21
 1130 0084 2946     		mov	r1, r5
 1131 0086 F0EE484A 		vmov.f32	s9, s16
 1132 008a B0EE484A 		vmov.f32	s8, s16
 1133 008e F0EE483A 		vmov.f32	s7, s16
 1134 0092 B0EE483A 		vmov.f32	s6, s16
 1135 0096 F0EE482A 		vmov.f32	s5, s16
 1136 009a B0EE482A 		vmov.f32	s4, s16
 1137 009e F0EE6A1A 		vmov.f32	s3, s21
 1138 00a2 B0EE481A 		vmov.f32	s2, s16
 1139 00a6 F2EE040A 		vmov.f32	s1, #1.0e+1
 1140 00aa B3EE020A 		vmov.f32	s0, #1.8e+1
 1141 00ae 04F57870 		add	r0, r4, #992
 1142 00b2 FFF7FEFF 		bl	PID_Init
 1143              	.LVL75:
  26:Application/motor_task.c ****   exo_controller.dm_motor[0].max_out = 0;
 1144              		.loc 1 26 3 view .LVU269
 1145 00b6 9FED69AA 		vldr.32	s20, .L51+32
 1146 00ba DFED699A 		vldr.32	s19, .L51+36
 1147 00be 9FED699A 		vldr.32	s18, .L51+40
 1148 00c2 DFED698A 		vldr.32	s17, .L51+44
 1149 00c6 1522     		movs	r2, #21
 1150 00c8 2946     		mov	r1, r5
 1151 00ca F0EE484A 		vmov.f32	s9, s16
 1152 00ce B0EE484A 		vmov.f32	s8, s16
 1153 00d2 F0EE483A 		vmov.f32	s7, s16
 1154 00d6 B0EE483A 		vmov.f32	s6, s16
 1155 00da F0EE4A2A 		vmov.f32	s5, s20
 1156 00de B0EE692A 		vmov.f32	s4, s19
 1157 00e2 F0EE491A 		vmov.f32	s3, s18
 1158 00e6 B0EE481A 		vmov.f32	s2, s16
ARM GAS  C:\Users\86152\AppData\Local\Temp\ccVS2a4g.s 			page 28


 1159 00ea F1EE040A 		vmov.f32	s1, #5.0e+0
 1160 00ee B0EE680A 		vmov.f32	s0, s17
 1161 00f2 04F59360 		add	r0, r4, #1176
 1162 00f6 FFF7FEFF 		bl	PID_Init
 1163              	.LVL76:
  27:Application/motor_task.c **** 
 1164              		.loc 1 27 3 view .LVU270
  27:Application/motor_task.c **** 
 1165              		.loc 1 27 38 is_stmt 0 view .LVU271
 1166 00fa 84EDC88A 		vstr.32	s16, [r4, #800]
  29:Application/motor_task.c ****   PID_Init(&exo_controller.dm_motor[1].PID_Angle, 50, 5, 0, 0.4, 0.05, 0.01, 0, 0, 0, 0, 0, Integra
 1167              		.loc 1 29 3 is_stmt 1 view .LVU272
 1168 00fe 1522     		movs	r2, #21
 1169 0100 2946     		mov	r1, r5
 1170 0102 F0EE484A 		vmov.f32	s9, s16
 1171 0106 B0EE484A 		vmov.f32	s8, s16
 1172 010a F0EE483A 		vmov.f32	s7, s16
 1173 010e B0EE483A 		vmov.f32	s6, s16
 1174 0112 F0EE482A 		vmov.f32	s5, s16
 1175 0116 B0EE482A 		vmov.f32	s4, s16
 1176 011a F0EE6A1A 		vmov.f32	s3, s21
 1177 011e B0EE481A 		vmov.f32	s2, s16
 1178 0122 F2EE040A 		vmov.f32	s1, #1.0e+1
 1179 0126 B3EE020A 		vmov.f32	s0, #1.8e+1
 1180 012a 04F5CF60 		add	r0, r4, #1656
 1181 012e FFF7FEFF 		bl	PID_Init
 1182              	.LVL77:
  30:Application/motor_task.c ****   exo_controller.dm_motor[1].max_out = 0;
 1183              		.loc 1 30 3 view .LVU273
 1184 0132 1522     		movs	r2, #21
 1185 0134 2946     		mov	r1, r5
 1186 0136 F0EE484A 		vmov.f32	s9, s16
 1187 013a B0EE484A 		vmov.f32	s8, s16
 1188 013e F0EE483A 		vmov.f32	s7, s16
 1189 0142 B0EE483A 		vmov.f32	s6, s16
 1190 0146 F0EE4A2A 		vmov.f32	s5, s20
 1191 014a B0EE692A 		vmov.f32	s4, s19
 1192 014e F0EE491A 		vmov.f32	s3, s18
 1193 0152 B0EE481A 		vmov.f32	s2, s16
 1194 0156 F1EE040A 		vmov.f32	s1, #5.0e+0
 1195 015a B0EE680A 		vmov.f32	s0, s17
 1196 015e 04F5E660 		add	r0, r4, #1840
 1197 0162 FFF7FEFF 		bl	PID_Init
 1198              	.LVL78:
  31:Application/motor_task.c **** 
 1199              		.loc 1 31 3 view .LVU274
  31:Application/motor_task.c **** 
 1200              		.loc 1 31 38 is_stmt 0 view .LVU275
 1201 0166 04F5B763 		add	r3, r4, #1464
 1202 016a 83ED008A 		vstr.32	s16, [r3]
  33:Application/motor_task.c ****   PID_Init(&exo_controller.dm_motor[2].PID_Angle, 50, 5, 0, 0.4, 0.05, 0.01, 0, 0, 0, 0, 0, Integra
 1203              		.loc 1 33 3 is_stmt 1 view .LVU276
 1204 016e 1522     		movs	r2, #21
 1205 0170 2946     		mov	r1, r5
 1206 0172 F0EE484A 		vmov.f32	s9, s16
 1207 0176 B0EE484A 		vmov.f32	s8, s16
 1208 017a F0EE483A 		vmov.f32	s7, s16
ARM GAS  C:\Users\86152\AppData\Local\Temp\ccVS2a4g.s 			page 29


 1209 017e B0EE483A 		vmov.f32	s6, s16
 1210 0182 F0EE482A 		vmov.f32	s5, s16
 1211 0186 B0EE482A 		vmov.f32	s4, s16
 1212 018a F0EE6A1A 		vmov.f32	s3, s21
 1213 018e B0EE481A 		vmov.f32	s2, s16
 1214 0192 F2EE040A 		vmov.f32	s1, #1.0e+1
 1215 0196 B3EE020A 		vmov.f32	s0, #1.8e+1
 1216 019a 04F51160 		add	r0, r4, #2320
 1217 019e FFF7FEFF 		bl	PID_Init
 1218              	.LVL79:
  34:Application/motor_task.c ****   exo_controller.dm_motor[2].max_out = 0;
 1219              		.loc 1 34 3 view .LVU277
 1220 01a2 1522     		movs	r2, #21
 1221 01a4 2946     		mov	r1, r5
 1222 01a6 F0EE484A 		vmov.f32	s9, s16
 1223 01aa B0EE484A 		vmov.f32	s8, s16
 1224 01ae F0EE483A 		vmov.f32	s7, s16
 1225 01b2 B0EE483A 		vmov.f32	s6, s16
 1226 01b6 F0EE4A2A 		vmov.f32	s5, s20
 1227 01ba B0EE692A 		vmov.f32	s4, s19
 1228 01be F0EE491A 		vmov.f32	s3, s18
 1229 01c2 B0EE481A 		vmov.f32	s2, s16
 1230 01c6 F1EE040A 		vmov.f32	s1, #5.0e+0
 1231 01ca B0EE680A 		vmov.f32	s0, s17
 1232 01ce 04F6C810 		addw	r0, r4, #2504
 1233 01d2 FFF7FEFF 		bl	PID_Init
 1234              	.LVL80:
  35:Application/motor_task.c **** 
 1235              		.loc 1 35 3 view .LVU278
  35:Application/motor_task.c **** 
 1236              		.loc 1 35 38 is_stmt 0 view .LVU279
 1237 01d6 04F50563 		add	r3, r4, #2128
 1238 01da 83ED008A 		vstr.32	s16, [r3]
  37:Application/motor_task.c ****   exo_controller.dm_motor[0].reduction_ratio = 1.0f;
 1239              		.loc 1 37 3 is_stmt 1 view .LVU280
  37:Application/motor_task.c ****   exo_controller.dm_motor[0].reduction_ratio = 1.0f;
 1240              		.loc 1 37 43 is_stmt 0 view .LVU281
 1241 01de 4FF07E53 		mov	r3, #1065353216
 1242 01e2 2362     		str	r3, [r4, #32]	@ float
  38:Application/motor_task.c ****   exo_controller.dm_motor[1].reduction_ratio = 1.0f;
 1243              		.loc 1 38 3 is_stmt 1 view .LVU282
  38:Application/motor_task.c ****   exo_controller.dm_motor[1].reduction_ratio = 1.0f;
 1244              		.loc 1 38 46 is_stmt 0 view .LVU283
 1245 01e4 C4F8B832 		str	r3, [r4, #696]	@ float
  39:Application/motor_task.c ****   exo_controller.dm_motor[2].reduction_ratio = 1.0f;
 1246              		.loc 1 39 3 is_stmt 1 view .LVU284
  39:Application/motor_task.c ****   exo_controller.dm_motor[2].reduction_ratio = 1.0f;
 1247              		.loc 1 39 46 is_stmt 0 view .LVU285
 1248 01e8 04F5AA62 		add	r2, r4, #1360
 1249 01ec 1360     		str	r3, [r2]	@ float
  40:Application/motor_task.c **** 
 1250              		.loc 1 40 3 is_stmt 1 view .LVU286
  40:Application/motor_task.c **** 
 1251              		.loc 1 40 46 is_stmt 0 view .LVU287
 1252 01ee 04F5FD64 		add	r4, r4, #2024
 1253 01f2 2360     		str	r3, [r4]	@ float
  42:Application/motor_task.c ****   HAL_Delay(2);
ARM GAS  C:\Users\86152\AppData\Local\Temp\ccVS2a4g.s 			page 30


 1254              		.loc 1 42 3 is_stmt 1 view .LVU288
 1255 01f4 1D4C     		ldr	r4, .L51+48
 1256 01f6 0823     		movs	r3, #8
 1257 01f8 0122     		movs	r2, #1
 1258 01fa 1146     		mov	r1, r2
 1259 01fc 2046     		mov	r0, r4
 1260 01fe FFF7FEFF 		bl	DM_CANx_SendStdData
 1261              	.LVL81:
  43:Application/motor_task.c ****   DM_CANx_SendStdData(&hcan1, 0x02, ENABLE_MOTOR, 8);
 1262              		.loc 1 43 3 view .LVU289
 1263 0202 0220     		movs	r0, #2
 1264 0204 FFF7FEFF 		bl	HAL_Delay
 1265              	.LVL82:
  44:Application/motor_task.c ****   HAL_Delay(2);
 1266              		.loc 1 44 3 view .LVU290
 1267 0208 0823     		movs	r3, #8
 1268 020a 0122     		movs	r2, #1
 1269 020c 0221     		movs	r1, #2
 1270 020e 2046     		mov	r0, r4
 1271 0210 FFF7FEFF 		bl	DM_CANx_SendStdData
 1272              	.LVL83:
  45:Application/motor_task.c ****   DM_CANx_SendStdData(&hcan1, 0x03, ENABLE_MOTOR, 8);
 1273              		.loc 1 45 3 view .LVU291
 1274 0214 0220     		movs	r0, #2
 1275 0216 FFF7FEFF 		bl	HAL_Delay
 1276              	.LVL84:
  46:Application/motor_task.c ****   HAL_Delay(2);
 1277              		.loc 1 46 3 view .LVU292
 1278 021a 0823     		movs	r3, #8
 1279 021c 0122     		movs	r2, #1
 1280 021e 0321     		movs	r1, #3
 1281 0220 2046     		mov	r0, r4
 1282 0222 FFF7FEFF 		bl	DM_CANx_SendStdData
 1283              	.LVL85:
  47:Application/motor_task.c **** 
 1284              		.loc 1 47 3 view .LVU293
 1285 0226 0220     		movs	r0, #2
 1286 0228 FFF7FEFF 		bl	HAL_Delay
 1287              	.LVL86:
  49:Application/motor_task.c **** }
 1288              		.loc 1 49 3 view .LVU294
 1289 022c 0821     		movs	r1, #8
 1290 022e 1048     		ldr	r0, .L51+52
 1291 0230 FFF7FEFF 		bl	HAL_TIM_PWM_Start
 1292              	.LVL87:
  50:Application/motor_task.c **** 
 1293              		.loc 1 50 1 is_stmt 0 view .LVU295
 1294 0234 BDEC068B 		vldm	sp!, {d8-d10}
 1295              	.LCFI12:
 1296              		.cfi_restore 84
 1297              		.cfi_restore 85
 1298              		.cfi_restore 82
 1299              		.cfi_restore 83
 1300              		.cfi_restore 80
 1301              		.cfi_restore 81
 1302              		.cfi_def_cfa_offset 16
 1303 0238 38BD     		pop	{r3, r4, r5, pc}
ARM GAS  C:\Users\86152\AppData\Local\Temp\ccVS2a4g.s 			page 31


 1304              	.L52:
 1305 023a 00BF     		.align	2
 1306              	.L51:
 1307 023c 00000000 		.word	0
 1308 0240 00000000 		.word	.LANCHOR2
 1309 0244 CDCCCC3D 		.word	1036831949
 1310 0248 00007A44 		.word	1148846080
 1311 024c 0000FA44 		.word	1157234688
 1312 0250 00007A45 		.word	1165623296
 1313 0254 00600646 		.word	1174822912
 1314 0258 3333333F 		.word	1060320051
 1315 025c 0AD7233C 		.word	1008981770
 1316 0260 CDCC4C3D 		.word	1028443341
 1317 0264 CDCCCC3E 		.word	1053609165
 1318 0268 00004842 		.word	1112014848
 1319 026c 00000000 		.word	hcan1
 1320 0270 00000000 		.word	htim4
 1321              		.cfi_endproc
 1322              	.LFE171:
 1324              		.section	.text.exo_task,"ax",%progbits
 1325              		.align	1
 1326              		.global	exo_task
 1327              		.syntax unified
 1328              		.thumb
 1329              		.thumb_func
 1331              	exo_task:
 1332              	.LFB172:
  53:Application/motor_task.c ****   exo_controller.dt = DWT_GetDeltaT(&exo_controller.DWT_count);
 1333              		.loc 1 53 1 is_stmt 1 view -0
 1334              		.cfi_startproc
 1335              		@ args = 0, pretend = 0, frame = 0
 1336              		@ frame_needed = 0, uses_anonymous_args = 0
 1337 0000 10B5     		push	{r4, lr}
 1338              	.LCFI13:
 1339              		.cfi_def_cfa_offset 8
 1340              		.cfi_offset 4, -8
 1341              		.cfi_offset 14, -4
  54:Application/motor_task.c ****   exo_controller.t += exo_controller.dt;
 1342              		.loc 1 54 3 view .LVU297
  54:Application/motor_task.c ****   exo_controller.t += exo_controller.dt;
 1343              		.loc 1 54 23 is_stmt 0 view .LVU298
 1344 0002 0A4C     		ldr	r4, .L55
 1345 0004 201D     		adds	r0, r4, #4
 1346 0006 FFF7FEFF 		bl	DWT_GetDeltaT
 1347              	.LVL88:
  54:Application/motor_task.c ****   exo_controller.t += exo_controller.dt;
 1348              		.loc 1 54 21 view .LVU299
 1349 000a 84ED030A 		vstr.32	s0, [r4, #12]
  55:Application/motor_task.c **** 
 1350              		.loc 1 55 3 is_stmt 1 view .LVU300
  55:Application/motor_task.c **** 
 1351              		.loc 1 55 20 is_stmt 0 view .LVU301
 1352 000e D4ED047A 		vldr.32	s15, [r4, #16]
 1353 0012 37EE800A 		vadd.f32	s0, s15, s0
 1354 0016 84ED040A 		vstr.32	s0, [r4, #16]
  57:Application/motor_task.c ****   get_exo_ctrl_value();
 1355              		.loc 1 57 3 is_stmt 1 view .LVU302
ARM GAS  C:\Users\86152\AppData\Local\Temp\ccVS2a4g.s 			page 32


 1356 001a FFF7FEFF 		bl	set_exo_mode
 1357              	.LVL89:
  58:Application/motor_task.c ****   set_exo_control();
 1358              		.loc 1 58 3 view .LVU303
 1359 001e FFF7FEFF 		bl	get_exo_ctrl_value
 1360              	.LVL90:
  59:Application/motor_task.c ****   send_exo_motor_current();
 1361              		.loc 1 59 3 view .LVU304
 1362 0022 FFF7FEFF 		bl	set_exo_control
 1363              	.LVL91:
  60:Application/motor_task.c **** }
 1364              		.loc 1 60 3 view .LVU305
 1365 0026 FFF7FEFF 		bl	send_exo_motor_current
 1366              	.LVL92:
  61:Application/motor_task.c **** 
 1367              		.loc 1 61 1 is_stmt 0 view .LVU306
 1368 002a 10BD     		pop	{r4, pc}
 1369              	.L56:
 1370              		.align	2
 1371              	.L55:
 1372 002c 00000000 		.word	.LANCHOR2
 1373              		.cfi_endproc
 1374              	.LFE172:
 1376              		.global	c
 1377              		.global	b
 1378              		.global	a
 1379              		.global	TargetAngle4
 1380              		.global	TargetAngle3
 1381              		.global	TargetAngle2
 1382              		.global	TargetAngle1
 1383              		.global	TargetTorque
 1384              		.global	TargetVelocity
 1385              		.global	exo_controller
 1386              		.global	debugoutput2
 1387              		.global	debugoutput
 1388              		.section	.bss.CAN_send_status.0,"aw",%nobits
 1389              		.set	.LANCHOR14,. + 0
 1392              	CAN_send_status.0:
 1393 0000 00       		.space	1
 1394              		.section	.bss.TargetAngle1,"aw",%nobits
 1395              		.align	2
 1396              		.set	.LANCHOR5,. + 0
 1399              	TargetAngle1:
 1400 0000 00000000 		.space	4
 1401              		.section	.bss.TargetAngle2,"aw",%nobits
 1402              		.align	2
 1403              		.set	.LANCHOR6,. + 0
 1406              	TargetAngle2:
 1407 0000 00000000 		.space	4
 1408              		.section	.bss.TargetAngle3,"aw",%nobits
 1409              		.align	2
 1410              		.set	.LANCHOR7,. + 0
 1413              	TargetAngle3:
 1414 0000 00000000 		.space	4
 1415              		.section	.bss.TargetAngle4,"aw",%nobits
 1416              		.align	2
 1417              		.set	.LANCHOR8,. + 0
ARM GAS  C:\Users\86152\AppData\Local\Temp\ccVS2a4g.s 			page 33


 1420              	TargetAngle4:
 1421 0000 00000000 		.space	4
 1422              		.section	.bss.TargetTorque,"aw",%nobits
 1423              		.align	2
 1424              		.set	.LANCHOR15,. + 0
 1427              	TargetTorque:
 1428 0000 00000000 		.space	4
 1429              		.section	.bss.TargetVelocity,"aw",%nobits
 1430              		.align	2
 1431              		.set	.LANCHOR12,. + 0
 1434              	TargetVelocity:
 1435 0000 00000000 		.space	4
 1436              		.section	.bss.c,"aw",%nobits
 1437              		.align	2
 1438              		.set	.LANCHOR11,. + 0
 1441              	c:
 1442 0000 00000000 		.space	4
 1443              		.section	.bss.debugoutput,"aw",%nobits
 1444              		.align	1
 1445              		.set	.LANCHOR13,. + 0
 1448              	debugoutput:
 1449 0000 0000     		.space	2
 1450              		.section	.bss.debugoutput2,"aw",%nobits
 1451              		.align	1
 1454              	debugoutput2:
 1455 0000 0000     		.space	2
 1456              		.section	.bss.exo_controller,"aw",%nobits
 1457              		.align	3
 1458              		.set	.LANCHOR2,. + 0
 1461              	exo_controller:
 1462 0000 00000000 		.space	2952
 1462      00000000 
 1462      00000000 
 1462      00000000 
 1462      00000000 
 1463              		.section	.bss.last_pin_state.1,"aw",%nobits
 1464              		.set	.LANCHOR4,. + 0
 1467              	last_pin_state.1:
 1468 0000 00       		.space	1
 1469              		.section	.bss.pin_state.4,"aw",%nobits
 1470              		.set	.LANCHOR0,. + 0
 1473              	pin_state.4:
 1474 0000 00       		.space	1
 1475              		.section	.bss.reset_count.3,"aw",%nobits
 1476              		.align	2
 1477              		.set	.LANCHOR1,. + 0
 1480              	reset_count.3:
 1481 0000 00000000 		.space	4
 1482              		.section	.bss.reset_timestamp.2,"aw",%nobits
 1483              		.align	2
 1484              		.set	.LANCHOR3,. + 0
 1487              	reset_timestamp.2:
 1488 0000 00000000 		.space	4
 1489              		.section	.data.a,"aw"
 1490              		.align	2
 1491              		.set	.LANCHOR9,. + 0
 1494              	a:
ARM GAS  C:\Users\86152\AppData\Local\Temp\ccVS2a4g.s 			page 34


 1495 0000 00003442 		.word	1110704128
 1496              		.section	.data.b,"aw"
 1497              		.align	2
 1498              		.set	.LANCHOR10,. + 0
 1501              	b:
 1502 0000 0000003F 		.word	1056964608
 1503              		.text
 1504              	.Letext0:
 1505              		.file 2 "c:\\program files (x86)\\gnu arm embedded toolchain\\10 2021.10\\arm-none-eabi\\include\\
 1506              		.file 3 "c:\\program files (x86)\\gnu arm embedded toolchain\\10 2021.10\\arm-none-eabi\\include\\
 1507              		.file 4 "Drivers/CMSIS/Device/ST/STM32F4xx/Include/stm32f407xx.h"
 1508              		.file 5 "Drivers/CMSIS/Device/ST/STM32F4xx/Include/stm32f4xx.h"
 1509              		.file 6 "Drivers/STM32F4xx_HAL_Driver/Inc/stm32f4xx_hal_def.h"
 1510              		.file 7 "Drivers/STM32F4xx_HAL_Driver/Inc/stm32f4xx_hal_gpio.h"
 1511              		.file 8 "Drivers/STM32F4xx_HAL_Driver/Inc/stm32f4xx_hal_dma.h"
 1512              		.file 9 "Drivers/STM32F4xx_HAL_Driver/Inc/stm32f4xx_hal_can.h"
 1513              		.file 10 "Drivers/STM32F4xx_HAL_Driver/Inc/stm32f4xx_hal_tim.h"
 1514              		.file 11 "Core/Inc/can.h"
 1515              		.file 12 "Core/Inc/tim.h"
 1516              		.file 13 "Components/user_lib.h"
 1517              		.file 14 "Components/Controller/controller.h"
 1518              		.file 15 "Application/motor.h"
 1519              		.file 16 "Application/ins_task.h"
 1520              		.file 17 "Components/Devices/dm_imu.h"
 1521              		.file 18 "Application/motor_task.h"
 1522              		.file 19 "Bsp/bsp_dwt.h"
 1523              		.file 20 "Bsp/bsp_PWM.h"
 1524              		.file 21 "Drivers/STM32F4xx_HAL_Driver/Inc/stm32f4xx_hal.h"
 1525              		.file 22 "c:\\program files (x86)\\gnu arm embedded toolchain\\10 2021.10\\arm-none-eabi\\include\
ARM GAS  C:\Users\86152\AppData\Local\Temp\ccVS2a4g.s 			page 35


DEFINED SYMBOLS
                            *ABS*:00000000 motor_task.c
C:\Users\86152\AppData\Local\Temp\ccVS2a4g.s:20     .text.set_exo_mode:00000000 $t
C:\Users\86152\AppData\Local\Temp\ccVS2a4g.s:25     .text.set_exo_mode:00000000 set_exo_mode
C:\Users\86152\AppData\Local\Temp\ccVS2a4g.s:173    .text.set_exo_mode:000000bc $d
C:\Users\86152\AppData\Local\Temp\ccVS2a4g.s:188    .text.get_exo_ctrl_value:00000000 $t
C:\Users\86152\AppData\Local\Temp\ccVS2a4g.s:193    .text.get_exo_ctrl_value:00000000 get_exo_ctrl_value
C:\Users\86152\AppData\Local\Temp\ccVS2a4g.s:393    .text.get_exo_ctrl_value:00000120 $d
C:\Users\86152\AppData\Local\Temp\ccVS2a4g.s:407    .text.set_exo_control:00000000 $t
C:\Users\86152\AppData\Local\Temp\ccVS2a4g.s:412    .text.set_exo_control:00000000 set_exo_control
C:\Users\86152\AppData\Local\Temp\ccVS2a4g.s:434    .text.set_exo_control:00000010 $d
C:\Users\86152\AppData\Local\Temp\ccVS2a4g.s:440    .text.set_exo_control:0000001c $t
C:\Users\86152\AppData\Local\Temp\ccVS2a4g.s:823    .text.set_exo_control:00000310 $d
C:\Users\86152\AppData\Local\Temp\ccVS2a4g.s:837    .text.send_exo_motor_current:00000000 $t
C:\Users\86152\AppData\Local\Temp\ccVS2a4g.s:842    .text.send_exo_motor_current:00000000 send_exo_motor_current
C:\Users\86152\AppData\Local\Temp\ccVS2a4g.s:1047   .text.send_exo_motor_current:00000160 $d
C:\Users\86152\AppData\Local\Temp\ccVS2a4g.s:1058   .text.exo_init:00000000 $t
C:\Users\86152\AppData\Local\Temp\ccVS2a4g.s:1064   .text.exo_init:00000000 exo_init
C:\Users\86152\AppData\Local\Temp\ccVS2a4g.s:1307   .text.exo_init:0000023c $d
C:\Users\86152\AppData\Local\Temp\ccVS2a4g.s:1325   .text.exo_task:00000000 $t
C:\Users\86152\AppData\Local\Temp\ccVS2a4g.s:1331   .text.exo_task:00000000 exo_task
C:\Users\86152\AppData\Local\Temp\ccVS2a4g.s:1372   .text.exo_task:0000002c $d
C:\Users\86152\AppData\Local\Temp\ccVS2a4g.s:1441   .bss.c:00000000 c
C:\Users\86152\AppData\Local\Temp\ccVS2a4g.s:1501   .data.b:00000000 b
C:\Users\86152\AppData\Local\Temp\ccVS2a4g.s:1494   .data.a:00000000 a
C:\Users\86152\AppData\Local\Temp\ccVS2a4g.s:1420   .bss.TargetAngle4:00000000 TargetAngle4
C:\Users\86152\AppData\Local\Temp\ccVS2a4g.s:1413   .bss.TargetAngle3:00000000 TargetAngle3
C:\Users\86152\AppData\Local\Temp\ccVS2a4g.s:1406   .bss.TargetAngle2:00000000 TargetAngle2
C:\Users\86152\AppData\Local\Temp\ccVS2a4g.s:1399   .bss.TargetAngle1:00000000 TargetAngle1
C:\Users\86152\AppData\Local\Temp\ccVS2a4g.s:1427   .bss.TargetTorque:00000000 TargetTorque
C:\Users\86152\AppData\Local\Temp\ccVS2a4g.s:1434   .bss.TargetVelocity:00000000 TargetVelocity
C:\Users\86152\AppData\Local\Temp\ccVS2a4g.s:1461   .bss.exo_controller:00000000 exo_controller
C:\Users\86152\AppData\Local\Temp\ccVS2a4g.s:1454   .bss.debugoutput2:00000000 debugoutput2
C:\Users\86152\AppData\Local\Temp\ccVS2a4g.s:1448   .bss.debugoutput:00000000 debugoutput
C:\Users\86152\AppData\Local\Temp\ccVS2a4g.s:1392   .bss.CAN_send_status.0:00000000 CAN_send_status.0
C:\Users\86152\AppData\Local\Temp\ccVS2a4g.s:1393   .bss.CAN_send_status.0:00000000 $d
C:\Users\86152\AppData\Local\Temp\ccVS2a4g.s:1395   .bss.TargetAngle1:00000000 $d
C:\Users\86152\AppData\Local\Temp\ccVS2a4g.s:1402   .bss.TargetAngle2:00000000 $d
C:\Users\86152\AppData\Local\Temp\ccVS2a4g.s:1409   .bss.TargetAngle3:00000000 $d
C:\Users\86152\AppData\Local\Temp\ccVS2a4g.s:1416   .bss.TargetAngle4:00000000 $d
C:\Users\86152\AppData\Local\Temp\ccVS2a4g.s:1423   .bss.TargetTorque:00000000 $d
C:\Users\86152\AppData\Local\Temp\ccVS2a4g.s:1430   .bss.TargetVelocity:00000000 $d
C:\Users\86152\AppData\Local\Temp\ccVS2a4g.s:1437   .bss.c:00000000 $d
C:\Users\86152\AppData\Local\Temp\ccVS2a4g.s:1444   .bss.debugoutput:00000000 $d
C:\Users\86152\AppData\Local\Temp\ccVS2a4g.s:1451   .bss.debugoutput2:00000000 $d
C:\Users\86152\AppData\Local\Temp\ccVS2a4g.s:1457   .bss.exo_controller:00000000 $d
C:\Users\86152\AppData\Local\Temp\ccVS2a4g.s:1467   .bss.last_pin_state.1:00000000 last_pin_state.1
C:\Users\86152\AppData\Local\Temp\ccVS2a4g.s:1468   .bss.last_pin_state.1:00000000 $d
C:\Users\86152\AppData\Local\Temp\ccVS2a4g.s:1473   .bss.pin_state.4:00000000 pin_state.4
C:\Users\86152\AppData\Local\Temp\ccVS2a4g.s:1474   .bss.pin_state.4:00000000 $d
C:\Users\86152\AppData\Local\Temp\ccVS2a4g.s:1476   .bss.reset_count.3:00000000 $d
C:\Users\86152\AppData\Local\Temp\ccVS2a4g.s:1480   .bss.reset_count.3:00000000 reset_count.3
C:\Users\86152\AppData\Local\Temp\ccVS2a4g.s:1483   .bss.reset_timestamp.2:00000000 $d
C:\Users\86152\AppData\Local\Temp\ccVS2a4g.s:1487   .bss.reset_timestamp.2:00000000 reset_timestamp.2
C:\Users\86152\AppData\Local\Temp\ccVS2a4g.s:1490   .data.a:00000000 $d
C:\Users\86152\AppData\Local\Temp\ccVS2a4g.s:1497   .data.b:00000000 $d

ARM GAS  C:\Users\86152\AppData\Local\Temp\ccVS2a4g.s 			page 36


UNDEFINED SYMBOLS
HAL_GPIO_ReadPin
TIM_Set_PWM
htim4
__aeabi_f2d
__aeabi_dmul
__aeabi_dadd
__aeabi_d2f
sin
PID_Calculate
float_constrain
Send_DM_MIT_Command
DWT_Delay
Send_LK_Current_Single
hcan1
hcan2
PID_Init
DM_CANx_SendStdData
HAL_Delay
HAL_TIM_PWM_Start
DWT_GetDeltaT
