ARM GAS  C:\Users\86152\AppData\Local\Temp\ccw7UxVh.s 			page 1


   1              		.cpu cortex-m4
   2              		.arch armv7e-m
   3              		.fpu fpv4-sp-d16
   4              		.eabi_attribute 27, 1
   5              		.eabi_attribute 28, 1
   6              		.eabi_attribute 20, 1
   7              		.eabi_attribute 21, 1
   8              		.eabi_attribute 23, 3
   9              		.eabi_attribute 24, 1
  10              		.eabi_attribute 25, 1
  11              		.eabi_attribute 26, 1
  12              		.eabi_attribute 30, 1
  13              		.eabi_attribute 34, 1
  14              		.eabi_attribute 18, 4
  15              		.file	"QuaternionEKF.c"
  16              		.text
  17              	.Ltext0:
  18              		.cfi_sections	.debug_frame
  19              		.section	.text.invSqrt,"ax",%progbits
  20              		.align	1
  21              		.syntax unified
  22              		.thumb
  23              		.thumb_func
  25              	invSqrt:
  26              	.LVL0:
  27              	.LFB169:
  28              		.file 1 "Components/Algorithm/QuaternionEKF.c"
   1:Components/Algorithm/QuaternionEKF.c **** /**
   2:Components/Algorithm/QuaternionEKF.c ****  ******************************************************************************
   3:Components/Algorithm/QuaternionEKF.c ****  * @file    QuaternionEKF.c
   4:Components/Algorithm/QuaternionEKF.c ****  * @author  Wang Hongxi
   5:Components/Algorithm/QuaternionEKF.c ****  * @version V1.3.0
   6:Components/Algorithm/QuaternionEKF.c ****  * @date    2022/8/13
   7:Components/Algorithm/QuaternionEKF.c ****  * @brief   attitude update with gyro bias estimate and chi-square test
   8:Components/Algorithm/QuaternionEKF.c ****  ******************************************************************************
   9:Components/Algorithm/QuaternionEKF.c ****  * @attention
  10:Components/Algorithm/QuaternionEKF.c ****  * 1st order LPF transfer function:
  11:Components/Algorithm/QuaternionEKF.c ****  *     1
  12:Components/Algorithm/QuaternionEKF.c ****  *  ‚Äî‚Äî‚Äî‚Äî‚Äî‚Äî‚Äî
  13:Components/Algorithm/QuaternionEKF.c ****  *  as + 1
  14:Components/Algorithm/QuaternionEKF.c ****  ******************************************************************************
  15:Components/Algorithm/QuaternionEKF.c ****  */
  16:Components/Algorithm/QuaternionEKF.c **** #include "QuaternionEKF.h"
  17:Components/Algorithm/QuaternionEKF.c **** 
  18:Components/Algorithm/QuaternionEKF.c **** const float IMU_QuaternionEKF_F[36] = {1, 0, 0, 0, 0, 0,
  19:Components/Algorithm/QuaternionEKF.c ****                                        0, 1, 0, 0, 0, 0,
  20:Components/Algorithm/QuaternionEKF.c ****                                        0, 0, 1, 0, 0, 0,
  21:Components/Algorithm/QuaternionEKF.c ****                                        0, 0, 0, 1, 0, 0,
  22:Components/Algorithm/QuaternionEKF.c ****                                        0, 0, 0, 0, 1, 0,
  23:Components/Algorithm/QuaternionEKF.c ****                                        0, 0, 0, 0, 0, 1};
  24:Components/Algorithm/QuaternionEKF.c **** float IMU_QuaternionEKF_P[36] = {100000, 0.1, 0.1, 0.1, 0.1, 0.1,
  25:Components/Algorithm/QuaternionEKF.c ****                                  0.1, 100000, 0.1, 0.1, 0.1, 0.1,
  26:Components/Algorithm/QuaternionEKF.c ****                                  0.1, 0.1, 100000, 0.1, 0.1, 0.1,
  27:Components/Algorithm/QuaternionEKF.c ****                                  0.1, 0.1, 0.1, 100000, 0.1, 0.1,
  28:Components/Algorithm/QuaternionEKF.c ****                                  0.1, 0.1, 0.1, 0.1, 100, 0.1,
  29:Components/Algorithm/QuaternionEKF.c ****                                  0.1, 0.1, 0.1, 0.1, 0.1, 100};
  30:Components/Algorithm/QuaternionEKF.c **** float IMU_QuaternionEKF_K[18];
ARM GAS  C:\Users\86152\AppData\Local\Temp\ccw7UxVh.s 			page 2


  31:Components/Algorithm/QuaternionEKF.c **** float IMU_QuaternionEKF_H[18];
  32:Components/Algorithm/QuaternionEKF.c **** 
  33:Components/Algorithm/QuaternionEKF.c **** static float invSqrt(float x);
  34:Components/Algorithm/QuaternionEKF.c **** static void IMU_QuaternionEKF_Observe(KalmanFilter_t *kf);
  35:Components/Algorithm/QuaternionEKF.c **** static void IMU_QuaternionEKF_F_Linearization_P_Fading(KalmanFilter_t *kf);
  36:Components/Algorithm/QuaternionEKF.c **** static void IMU_QuaternionEKF_SetH(KalmanFilter_t *kf);
  37:Components/Algorithm/QuaternionEKF.c **** static void IMU_QuaternionEKF_xhatUpdate(KalmanFilter_t *kf);
  38:Components/Algorithm/QuaternionEKF.c **** 
  39:Components/Algorithm/QuaternionEKF.c **** /**
  40:Components/Algorithm/QuaternionEKF.c ****  * @brief Quaternion EKF initialization and some reference value
  41:Components/Algorithm/QuaternionEKF.c ****  * @param[in] process_noise1 quaternion process noise    10
  42:Components/Algorithm/QuaternionEKF.c ****  * @param[in] process_noise2 gyro bias process noise     0.001
  43:Components/Algorithm/QuaternionEKF.c ****  * @param[in] measure_noise  accel measure noise         1000000
  44:Components/Algorithm/QuaternionEKF.c ****  * @param[in] lambda         fading coefficient          0.9996
  45:Components/Algorithm/QuaternionEKF.c ****  * @param[in] lpf            lowpass filter coefficient  0
  46:Components/Algorithm/QuaternionEKF.c ****  */
  47:Components/Algorithm/QuaternionEKF.c **** void IMU_QuaternionEKF_Init(QEKF_INS_t *qekf_ins, float process_noise1, float process_noise2, float
  48:Components/Algorithm/QuaternionEKF.c **** {
  49:Components/Algorithm/QuaternionEKF.c ****     qekf_ins->IMU_QuaternionEKF.User_Data = qekf_ins;
  50:Components/Algorithm/QuaternionEKF.c **** 
  51:Components/Algorithm/QuaternionEKF.c ****     qekf_ins->Initialized = 1;
  52:Components/Algorithm/QuaternionEKF.c ****     qekf_ins->Q1 = process_noise1;
  53:Components/Algorithm/QuaternionEKF.c ****     qekf_ins->Q2 = process_noise2;
  54:Components/Algorithm/QuaternionEKF.c ****     qekf_ins->R = measure_noise;
  55:Components/Algorithm/QuaternionEKF.c ****     qekf_ins->ChiSquareTestThreshold = 1e-8;
  56:Components/Algorithm/QuaternionEKF.c ****     qekf_ins->ConvergeFlag = 0;
  57:Components/Algorithm/QuaternionEKF.c ****     qekf_ins->ErrorCount = 0;
  58:Components/Algorithm/QuaternionEKF.c ****     qekf_ins->UpdateCount = 0;
  59:Components/Algorithm/QuaternionEKF.c ****     if (lambda > 1)
  60:Components/Algorithm/QuaternionEKF.c ****     {
  61:Components/Algorithm/QuaternionEKF.c ****         lambda = 1;
  62:Components/Algorithm/QuaternionEKF.c ****     }
  63:Components/Algorithm/QuaternionEKF.c ****     qekf_ins->lambda = lambda;
  64:Components/Algorithm/QuaternionEKF.c ****     qekf_ins->accLPFcoef = lpf;
  65:Components/Algorithm/QuaternionEKF.c **** 
  66:Components/Algorithm/QuaternionEKF.c ****     // ÂàùÂßãÂåñÁü©ÈòµÁª¥Â∫¶‰ø°ÊÅØ
  67:Components/Algorithm/QuaternionEKF.c ****     Kalman_Filter_Init(&qekf_ins->IMU_QuaternionEKF, 6, 0, 3);
  68:Components/Algorithm/QuaternionEKF.c ****     Matrix_Init(&qekf_ins->ChiSquare, 1, 1, (float *)qekf_ins->ChiSquare_Data);
  69:Components/Algorithm/QuaternionEKF.c **** 
  70:Components/Algorithm/QuaternionEKF.c ****     // ÂßøÊÄÅÂàùÂßãÂåñ
  71:Components/Algorithm/QuaternionEKF.c ****     qekf_ins->IMU_QuaternionEKF.xhat_data[0] = 1;
  72:Components/Algorithm/QuaternionEKF.c ****     qekf_ins->IMU_QuaternionEKF.xhat_data[1] = 0;
  73:Components/Algorithm/QuaternionEKF.c ****     qekf_ins->IMU_QuaternionEKF.xhat_data[2] = 0;
  74:Components/Algorithm/QuaternionEKF.c ****     qekf_ins->IMU_QuaternionEKF.xhat_data[3] = 0;
  75:Components/Algorithm/QuaternionEKF.c **** 
  76:Components/Algorithm/QuaternionEKF.c ****     // Ëá™ÂÆö‰πâÂáΩÊï∞ÂàùÂßãÂåñ,Áî®‰∫éÊâ©Â±ïÊàñÂ¢ûÂä†kfÁöÑÂü∫Á°ÄÂäüËÉΩ
  77:Components/Algorithm/QuaternionEKF.c ****     qekf_ins->IMU_QuaternionEKF.User_Func0_f = IMU_QuaternionEKF_Observe;
  78:Components/Algorithm/QuaternionEKF.c ****     qekf_ins->IMU_QuaternionEKF.User_Func1_f = IMU_QuaternionEKF_F_Linearization_P_Fading;
  79:Components/Algorithm/QuaternionEKF.c ****     qekf_ins->IMU_QuaternionEKF.User_Func2_f = IMU_QuaternionEKF_SetH;
  80:Components/Algorithm/QuaternionEKF.c ****     qekf_ins->IMU_QuaternionEKF.User_Func3_f = IMU_QuaternionEKF_xhatUpdate;
  81:Components/Algorithm/QuaternionEKF.c **** 
  82:Components/Algorithm/QuaternionEKF.c ****     // ËÆæÂÆöÊ†áÂøó‰Ωç,Áî®Ëá™ÂÆöÂáΩÊï∞ÊõøÊç¢kfÊ†áÂáÜÊ≠•È™§‰∏≠ÁöÑSetK(ËÆ°ÁÆóÂ¢ûÁõä)‰ª•Âèäxhatupdate(
  83:Components/Algorithm/QuaternionEKF.c ****     qekf_ins->IMU_QuaternionEKF.SkipEq3 = TRUE;
  84:Components/Algorithm/QuaternionEKF.c ****     qekf_ins->IMU_QuaternionEKF.SkipEq4 = TRUE;
  85:Components/Algorithm/QuaternionEKF.c **** 
  86:Components/Algorithm/QuaternionEKF.c ****     memcpy(qekf_ins->IMU_QuaternionEKF.F_data, IMU_QuaternionEKF_F, sizeof(IMU_QuaternionEKF_F));
  87:Components/Algorithm/QuaternionEKF.c ****     memcpy(qekf_ins->IMU_QuaternionEKF.P_data, IMU_QuaternionEKF_P, sizeof(IMU_QuaternionEKF_P));
ARM GAS  C:\Users\86152\AppData\Local\Temp\ccw7UxVh.s 			page 3


  88:Components/Algorithm/QuaternionEKF.c **** }
  89:Components/Algorithm/QuaternionEKF.c **** 
  90:Components/Algorithm/QuaternionEKF.c **** /**
  91:Components/Algorithm/QuaternionEKF.c ****  * @brief Quaternion EKF update
  92:Components/Algorithm/QuaternionEKF.c ****  * @param[in]       gyro x y z in rad/s
  93:Components/Algorithm/QuaternionEKF.c ****  * @param[in]       accel x y z in m/s¬≤
  94:Components/Algorithm/QuaternionEKF.c ****  * @param[in]       update period in s
  95:Components/Algorithm/QuaternionEKF.c ****  */
  96:Components/Algorithm/QuaternionEKF.c **** void IMU_QuaternionEKF_Update(QEKF_INS_t *qekf_ins, float gx, float gy, float gz, float ax, float a
  97:Components/Algorithm/QuaternionEKF.c **** {
  98:Components/Algorithm/QuaternionEKF.c ****     // 0.5(Ohm-Ohm^bias)*deltaT,Áî®‰∫éÊõ¥Êñ∞Â∑•‰ΩúÁÇπÂ§ÑÁöÑÁä∂ÊÄÅËΩ¨ÁßªFÁü©Èòµ
  99:Components/Algorithm/QuaternionEKF.c ****     static float halfgxdt, halfgydt, halfgzdt;
 100:Components/Algorithm/QuaternionEKF.c ****     static float accelInvNorm;
 101:Components/Algorithm/QuaternionEKF.c ****     if (!qekf_ins->Initialized)
 102:Components/Algorithm/QuaternionEKF.c ****     {
 103:Components/Algorithm/QuaternionEKF.c ****         IMU_QuaternionEKF_Init(qekf_ins, 10, 0.001, 1000000 * 10, 0.9996 * 0 + 1, 0);
 104:Components/Algorithm/QuaternionEKF.c ****     }
 105:Components/Algorithm/QuaternionEKF.c **** 
 106:Components/Algorithm/QuaternionEKF.c ****     /*   F, number with * represent vals to be set
 107:Components/Algorithm/QuaternionEKF.c ****      0      1*     2*     3*     4     5
 108:Components/Algorithm/QuaternionEKF.c ****      6*     7      8*     9*    10    11
 109:Components/Algorithm/QuaternionEKF.c ****     12*    13*    14     15*    16    17
 110:Components/Algorithm/QuaternionEKF.c ****     18*    19*    20*    21     22    23
 111:Components/Algorithm/QuaternionEKF.c ****     24     25     26     27     28    29
 112:Components/Algorithm/QuaternionEKF.c ****     30     31     32     33     34    35
 113:Components/Algorithm/QuaternionEKF.c ****     */
 114:Components/Algorithm/QuaternionEKF.c ****     qekf_ins->dt = dt;
 115:Components/Algorithm/QuaternionEKF.c **** 
 116:Components/Algorithm/QuaternionEKF.c ****     qekf_ins->Gyro[0] = gx - qekf_ins->GyroBias[0];
 117:Components/Algorithm/QuaternionEKF.c ****     qekf_ins->Gyro[1] = gy - qekf_ins->GyroBias[1];
 118:Components/Algorithm/QuaternionEKF.c ****     qekf_ins->Gyro[2] = gz - qekf_ins->GyroBias[2];
 119:Components/Algorithm/QuaternionEKF.c **** 
 120:Components/Algorithm/QuaternionEKF.c ****     // set F
 121:Components/Algorithm/QuaternionEKF.c ****     halfgxdt = 0.5f * qekf_ins->Gyro[0] * dt;
 122:Components/Algorithm/QuaternionEKF.c ****     halfgydt = 0.5f * qekf_ins->Gyro[1] * dt;
 123:Components/Algorithm/QuaternionEKF.c ****     halfgzdt = 0.5f * qekf_ins->Gyro[2] * dt;
 124:Components/Algorithm/QuaternionEKF.c **** 
 125:Components/Algorithm/QuaternionEKF.c ****     // Ê≠§ÈÉ®ÂàÜËÆæÂÆöÁä∂ÊÄÅËΩ¨ÁßªÁü©ÈòµFÁöÑÂ∑¶‰∏äËßíÈÉ®ÂàÜ 4x4Â≠êÁü©Èòµ,Âç≥0.5(Ohm-Ohm^bias)*delta
 126:Components/Algorithm/QuaternionEKF.c ****     // Ê≥®ÊÑèÂú®predictÊ≠•FÁöÑÂè≥‰∏äËßíÊòØ4x2ÁöÑÈõ∂Áü©Èòµ,Âõ†Ê≠§ÊØèÊ¨°predictÁöÑÊó∂ÂÄôÈÉΩ‰ºöË∞ÉÁî®m
 127:Components/Algorithm/QuaternionEKF.c ****     memcpy(qekf_ins->IMU_QuaternionEKF.F_data, IMU_QuaternionEKF_F, sizeof(IMU_QuaternionEKF_F));
 128:Components/Algorithm/QuaternionEKF.c **** 
 129:Components/Algorithm/QuaternionEKF.c ****     qekf_ins->IMU_QuaternionEKF.F_data[1] = -halfgxdt;
 130:Components/Algorithm/QuaternionEKF.c ****     qekf_ins->IMU_QuaternionEKF.F_data[2] = -halfgydt;
 131:Components/Algorithm/QuaternionEKF.c ****     qekf_ins->IMU_QuaternionEKF.F_data[3] = -halfgzdt;
 132:Components/Algorithm/QuaternionEKF.c **** 
 133:Components/Algorithm/QuaternionEKF.c ****     qekf_ins->IMU_QuaternionEKF.F_data[6] = halfgxdt;
 134:Components/Algorithm/QuaternionEKF.c ****     qekf_ins->IMU_QuaternionEKF.F_data[8] = halfgzdt;
 135:Components/Algorithm/QuaternionEKF.c ****     qekf_ins->IMU_QuaternionEKF.F_data[9] = -halfgydt;
 136:Components/Algorithm/QuaternionEKF.c **** 
 137:Components/Algorithm/QuaternionEKF.c ****     qekf_ins->IMU_QuaternionEKF.F_data[12] = halfgydt;
 138:Components/Algorithm/QuaternionEKF.c ****     qekf_ins->IMU_QuaternionEKF.F_data[13] = -halfgzdt;
 139:Components/Algorithm/QuaternionEKF.c ****     qekf_ins->IMU_QuaternionEKF.F_data[15] = halfgxdt;
 140:Components/Algorithm/QuaternionEKF.c **** 
 141:Components/Algorithm/QuaternionEKF.c ****     qekf_ins->IMU_QuaternionEKF.F_data[18] = halfgzdt;
 142:Components/Algorithm/QuaternionEKF.c ****     qekf_ins->IMU_QuaternionEKF.F_data[19] = halfgydt;
 143:Components/Algorithm/QuaternionEKF.c ****     qekf_ins->IMU_QuaternionEKF.F_data[20] = -halfgxdt;
 144:Components/Algorithm/QuaternionEKF.c **** 
ARM GAS  C:\Users\86152\AppData\Local\Temp\ccw7UxVh.s 			page 4


 145:Components/Algorithm/QuaternionEKF.c ****     // accel low pass filter,Âä†ÈÄüÂ∫¶Ëøá‰∏Ä‰∏ã‰ΩéÈÄöÊª§Ê≥¢Âπ≥ÊªëÊï∞ÊçÆ,Èôç‰ΩéÊíûÂáªÂíåÂºÇÂ∏∏ÁöÑÂΩ±
 146:Components/Algorithm/QuaternionEKF.c ****     if (qekf_ins->UpdateCount == 0) // Â¶ÇÊûúÊòØÁ¨¨‰∏ÄÊ¨°ËøõÂÖ•,ÈúÄË¶ÅÂàùÂßãÂåñ‰ΩéÈÄöÊª§Ê≥¢
 147:Components/Algorithm/QuaternionEKF.c ****     {
 148:Components/Algorithm/QuaternionEKF.c ****         qekf_ins->Accel[0] = ax;
 149:Components/Algorithm/QuaternionEKF.c ****         qekf_ins->Accel[1] = ay;
 150:Components/Algorithm/QuaternionEKF.c ****         qekf_ins->Accel[2] = az;
 151:Components/Algorithm/QuaternionEKF.c ****     }
 152:Components/Algorithm/QuaternionEKF.c ****     qekf_ins->Accel[0] = qekf_ins->Accel[0] * qekf_ins->accLPFcoef / (qekf_ins->dt + qekf_ins->accL
 153:Components/Algorithm/QuaternionEKF.c ****     qekf_ins->Accel[1] = qekf_ins->Accel[1] * qekf_ins->accLPFcoef / (qekf_ins->dt + qekf_ins->accL
 154:Components/Algorithm/QuaternionEKF.c ****     qekf_ins->Accel[2] = qekf_ins->Accel[2] * qekf_ins->accLPFcoef / (qekf_ins->dt + qekf_ins->accL
 155:Components/Algorithm/QuaternionEKF.c **** 
 156:Components/Algorithm/QuaternionEKF.c ****     // set z,Âçï‰ΩçÂåñÈáçÂäõÂä†ÈÄüÂ∫¶ÂêëÈáè
 157:Components/Algorithm/QuaternionEKF.c ****     accelInvNorm = invSqrt(qekf_ins->Accel[0] * qekf_ins->Accel[0] + qekf_ins->Accel[1] * qekf_ins-
 158:Components/Algorithm/QuaternionEKF.c ****     for (uint8_t i = 0; i < 3; i++)
 159:Components/Algorithm/QuaternionEKF.c ****     {
 160:Components/Algorithm/QuaternionEKF.c ****         qekf_ins->IMU_QuaternionEKF.MeasuredVector[i] = qekf_ins->Accel[i] * accelInvNorm; // Áî®Âä
 161:Components/Algorithm/QuaternionEKF.c ****     }
 162:Components/Algorithm/QuaternionEKF.c **** 
 163:Components/Algorithm/QuaternionEKF.c ****     // get body state
 164:Components/Algorithm/QuaternionEKF.c ****     qekf_ins->gyro_norm = 1.0f / invSqrt(qekf_ins->Gyro[0] * qekf_ins->Gyro[0] +
 165:Components/Algorithm/QuaternionEKF.c ****                                          qekf_ins->Gyro[1] * qekf_ins->Gyro[1] +
 166:Components/Algorithm/QuaternionEKF.c ****                                          qekf_ins->Gyro[2] * qekf_ins->Gyro[2]);
 167:Components/Algorithm/QuaternionEKF.c ****     qekf_ins->accl_norm = 1.0f / accelInvNorm;
 168:Components/Algorithm/QuaternionEKF.c **** 
 169:Components/Algorithm/QuaternionEKF.c ****     // Â¶ÇÊûúËßíÈÄüÂ∫¶Â∞è‰∫éÈòàÂÄº‰∏îÂä†ÈÄüÂ∫¶Â§Ñ‰∫éËÆæÂÆöËåÉÂõ¥ÂÜÖ,ËÆ§‰∏∫ËøêÂä®Á®≥ÂÆö,Âä†ÈÄüÂ∫¶ÂèØ
 170:Components/Algorithm/QuaternionEKF.c ****     // Á®çÂêéÂú®ÊúÄÂêéÁöÑÂßøÊÄÅÊõ¥Êñ∞ÈÉ®ÂàÜ‰ºöÂà©Áî®StableFlagÊù•Á°ÆÂÆö
 171:Components/Algorithm/QuaternionEKF.c ****     if (qekf_ins->gyro_norm < 0.3f && qekf_ins->accl_norm > 9.8f - 0.5f && qekf_ins->accl_norm < 9.
 172:Components/Algorithm/QuaternionEKF.c ****     {
 173:Components/Algorithm/QuaternionEKF.c ****         qekf_ins->StableFlag = 1;
 174:Components/Algorithm/QuaternionEKF.c ****     }
 175:Components/Algorithm/QuaternionEKF.c ****     else
 176:Components/Algorithm/QuaternionEKF.c ****     {
 177:Components/Algorithm/QuaternionEKF.c ****         qekf_ins->StableFlag = 0;
 178:Components/Algorithm/QuaternionEKF.c ****     }
 179:Components/Algorithm/QuaternionEKF.c **** 
 180:Components/Algorithm/QuaternionEKF.c ****     // set Q R,ËøáÁ®ãÂô™Â£∞ÂíåËßÇÊµãÂô™Â£∞Áü©Èòµ
 181:Components/Algorithm/QuaternionEKF.c ****     qekf_ins->IMU_QuaternionEKF.Q_data[0] = qekf_ins->Q1 * qekf_ins->dt;
 182:Components/Algorithm/QuaternionEKF.c ****     qekf_ins->IMU_QuaternionEKF.Q_data[7] = qekf_ins->Q1 * qekf_ins->dt;
 183:Components/Algorithm/QuaternionEKF.c ****     qekf_ins->IMU_QuaternionEKF.Q_data[14] = qekf_ins->Q1 * qekf_ins->dt;
 184:Components/Algorithm/QuaternionEKF.c ****     qekf_ins->IMU_QuaternionEKF.Q_data[21] = qekf_ins->Q1 * qekf_ins->dt;
 185:Components/Algorithm/QuaternionEKF.c ****     qekf_ins->IMU_QuaternionEKF.Q_data[28] = qekf_ins->Q2 * qekf_ins->dt;
 186:Components/Algorithm/QuaternionEKF.c ****     qekf_ins->IMU_QuaternionEKF.Q_data[35] = qekf_ins->Q2 * qekf_ins->dt;
 187:Components/Algorithm/QuaternionEKF.c ****     qekf_ins->IMU_QuaternionEKF.R_data[0] = qekf_ins->R;
 188:Components/Algorithm/QuaternionEKF.c ****     qekf_ins->IMU_QuaternionEKF.R_data[4] = qekf_ins->R;
 189:Components/Algorithm/QuaternionEKF.c ****     qekf_ins->IMU_QuaternionEKF.R_data[8] = qekf_ins->R;
 190:Components/Algorithm/QuaternionEKF.c **** 
 191:Components/Algorithm/QuaternionEKF.c ****     // Ë∞ÉÁî®kalman_filter.cÂ∞ÅË£ÖÂ•ΩÁöÑÂáΩÊï∞,Ê≥®ÊÑèÂá†‰∏™User_Funcx_fÁöÑË∞ÉÁî®
 192:Components/Algorithm/QuaternionEKF.c ****     Kalman_Filter_Update(&qekf_ins->IMU_QuaternionEKF);
 193:Components/Algorithm/QuaternionEKF.c **** 
 194:Components/Algorithm/QuaternionEKF.c ****     // Ëé∑ÂèñËûçÂêàÂêéÁöÑÊï∞ÊçÆ,ÂåÖÊã¨ÂõõÂÖÉÊï∞ÂíåxyÈõ∂È£òÂÄº
 195:Components/Algorithm/QuaternionEKF.c ****     qekf_ins->q[0] = qekf_ins->IMU_QuaternionEKF.FilteredValue[0];
 196:Components/Algorithm/QuaternionEKF.c ****     qekf_ins->q[1] = qekf_ins->IMU_QuaternionEKF.FilteredValue[1];
 197:Components/Algorithm/QuaternionEKF.c ****     qekf_ins->q[2] = qekf_ins->IMU_QuaternionEKF.FilteredValue[2];
 198:Components/Algorithm/QuaternionEKF.c ****     qekf_ins->q[3] = qekf_ins->IMU_QuaternionEKF.FilteredValue[3];
 199:Components/Algorithm/QuaternionEKF.c ****     qekf_ins->GyroBias[0] = qekf_ins->IMU_QuaternionEKF.FilteredValue[4];
 200:Components/Algorithm/QuaternionEKF.c ****     qekf_ins->GyroBias[1] = qekf_ins->IMU_QuaternionEKF.FilteredValue[5];
 201:Components/Algorithm/QuaternionEKF.c ****     qekf_ins->GyroBias[2] = 0; // Â§ßÈÉ®ÂàÜÊó∂ÂÄôzËΩ¥ÈÄöÂ§©,Êó†Ê≥ïËßÇÊµãyawÁöÑÊºÇÁßª
ARM GAS  C:\Users\86152\AppData\Local\Temp\ccw7UxVh.s 			page 5


 202:Components/Algorithm/QuaternionEKF.c **** 
 203:Components/Algorithm/QuaternionEKF.c ****     // // Âà©Áî®ÂõõÂÖÉÊï∞ÂèçËß£Ê¨ßÊãâËßí
 204:Components/Algorithm/QuaternionEKF.c ****     // qekf_ins->Yaw = atan2f(2.0f * (qekf_ins->q[0] * qekf_ins->q[3] + qekf_ins->q[1] * qekf_ins->
 205:Components/Algorithm/QuaternionEKF.c ****     // qekf_ins->Pitch = atan2f(2.0f * (qekf_ins->q[0] * qekf_ins->q[1] + qekf_ins->q[2] * qekf_ins
 206:Components/Algorithm/QuaternionEKF.c ****     // qekf_ins->Roll = asinf(-2.0f * (qekf_ins->q[1] * qekf_ins->q[3] - qekf_ins->q[0] * qekf_ins-
 207:Components/Algorithm/QuaternionEKF.c **** 
 208:Components/Algorithm/QuaternionEKF.c ****     // // get Yaw total, yawÊï∞ÊçÆÂèØËÉΩ‰ºöË∂ÖËøá360,Â§ÑÁêÜ‰∏Ä‰∏ãÊñπ‰æøÂÖ∂‰ªñÂäüËÉΩ‰ΩøÁî®(Â¶ÇÂ∞èÈôÄ
 209:Components/Algorithm/QuaternionEKF.c ****     // if (qekf_ins->Yaw - qekf_ins->YawAngleLast > 180.0f)
 210:Components/Algorithm/QuaternionEKF.c ****     // {
 211:Components/Algorithm/QuaternionEKF.c ****     //     qekf_ins->YawRoundCount--;
 212:Components/Algorithm/QuaternionEKF.c ****     // }
 213:Components/Algorithm/QuaternionEKF.c ****     // else if (qekf_ins->Yaw - qekf_ins->YawAngleLast < -180.0f)
 214:Components/Algorithm/QuaternionEKF.c ****     // {
 215:Components/Algorithm/QuaternionEKF.c ****     //     qekf_ins->YawRoundCount++;
 216:Components/Algorithm/QuaternionEKF.c ****     // }
 217:Components/Algorithm/QuaternionEKF.c ****     // qekf_ins->YawTotalAngle = 360.0f * qekf_ins->YawRoundCount + qekf_ins->Yaw;
 218:Components/Algorithm/QuaternionEKF.c ****     // qekf_ins->YawAngleLast = qekf_ins->Yaw;
 219:Components/Algorithm/QuaternionEKF.c ****     qekf_ins->UpdateCount++; // ÂàùÂßãÂåñ‰ΩéÈÄöÊª§Ê≥¢Áî®,ËÆ°Êï∞ÊµãËØïÁî®
 220:Components/Algorithm/QuaternionEKF.c **** }
 221:Components/Algorithm/QuaternionEKF.c **** 
 222:Components/Algorithm/QuaternionEKF.c **** /**
 223:Components/Algorithm/QuaternionEKF.c ****  * @brief Áî®‰∫éÊõ¥Êñ∞Á∫øÊÄßÂåñÂêéÁöÑÁä∂ÊÄÅËΩ¨ÁßªÁü©ÈòµFÂè≥‰∏äËßíÁöÑ‰∏Ä‰∏™4x2ÂàÜÂùóÁü©Èòµ,Á®çÂêéÁî®
 224:Components/Algorithm/QuaternionEKF.c ****  *        Âπ∂ÂØπÈõ∂ÊºÇÁöÑÊñπÂ∑ÆËøõË°åÈôêÂà∂,Èò≤Ê≠¢ËøáÂ∫¶Êî∂ÊïõÂπ∂ÈôêÂπÖÈò≤Ê≠¢ÂèëÊï£
 225:Components/Algorithm/QuaternionEKF.c ****  *
 226:Components/Algorithm/QuaternionEKF.c ****  * @param kf
 227:Components/Algorithm/QuaternionEKF.c ****  */
 228:Components/Algorithm/QuaternionEKF.c **** static void IMU_QuaternionEKF_F_Linearization_P_Fading(KalmanFilter_t *kf)
 229:Components/Algorithm/QuaternionEKF.c **** {
 230:Components/Algorithm/QuaternionEKF.c ****     static float q0, q1, q2, q3;
 231:Components/Algorithm/QuaternionEKF.c ****     static float qInvNorm;
 232:Components/Algorithm/QuaternionEKF.c **** 
 233:Components/Algorithm/QuaternionEKF.c ****     QEKF_INS_t *qekf_ins = (QEKF_INS_t *)kf->User_Data;
 234:Components/Algorithm/QuaternionEKF.c **** 
 235:Components/Algorithm/QuaternionEKF.c ****     q0 = kf->xhatminus_data[0];
 236:Components/Algorithm/QuaternionEKF.c ****     q1 = kf->xhatminus_data[1];
 237:Components/Algorithm/QuaternionEKF.c ****     q2 = kf->xhatminus_data[2];
 238:Components/Algorithm/QuaternionEKF.c ****     q3 = kf->xhatminus_data[3];
 239:Components/Algorithm/QuaternionEKF.c **** 
 240:Components/Algorithm/QuaternionEKF.c ****     // quaternion normalize
 241:Components/Algorithm/QuaternionEKF.c ****     qInvNorm = invSqrt(q0 * q0 + q1 * q1 + q2 * q2 + q3 * q3);
 242:Components/Algorithm/QuaternionEKF.c ****     for (uint8_t i = 0; i < 4; i++)
 243:Components/Algorithm/QuaternionEKF.c ****     {
 244:Components/Algorithm/QuaternionEKF.c ****         kf->xhatminus_data[i] *= qInvNorm;
 245:Components/Algorithm/QuaternionEKF.c ****     }
 246:Components/Algorithm/QuaternionEKF.c ****     /*  F, number with * represent vals to be set
 247:Components/Algorithm/QuaternionEKF.c ****      0     1     2     3     4*     5*
 248:Components/Algorithm/QuaternionEKF.c ****      6     7     8     9    10*    11*
 249:Components/Algorithm/QuaternionEKF.c ****     12    13    14    15    16*    17*
 250:Components/Algorithm/QuaternionEKF.c ****     18    19    20    21    22*    23*
 251:Components/Algorithm/QuaternionEKF.c ****     24    25    26    27    28     29
 252:Components/Algorithm/QuaternionEKF.c ****     30    31    32    33    34     35
 253:Components/Algorithm/QuaternionEKF.c ****     */
 254:Components/Algorithm/QuaternionEKF.c ****     // set F
 255:Components/Algorithm/QuaternionEKF.c ****     kf->F_data[4] = q1 * qekf_ins->dt / 2;
 256:Components/Algorithm/QuaternionEKF.c ****     kf->F_data[5] = q2 * qekf_ins->dt / 2;
 257:Components/Algorithm/QuaternionEKF.c **** 
 258:Components/Algorithm/QuaternionEKF.c ****     kf->F_data[10] = -q0 * qekf_ins->dt / 2;
ARM GAS  C:\Users\86152\AppData\Local\Temp\ccw7UxVh.s 			page 6


 259:Components/Algorithm/QuaternionEKF.c ****     kf->F_data[11] = q3 * qekf_ins->dt / 2;
 260:Components/Algorithm/QuaternionEKF.c **** 
 261:Components/Algorithm/QuaternionEKF.c ****     kf->F_data[16] = -q3 * qekf_ins->dt / 2;
 262:Components/Algorithm/QuaternionEKF.c ****     kf->F_data[17] = -q0 * qekf_ins->dt / 2;
 263:Components/Algorithm/QuaternionEKF.c **** 
 264:Components/Algorithm/QuaternionEKF.c ****     kf->F_data[22] = q2 * qekf_ins->dt / 2;
 265:Components/Algorithm/QuaternionEKF.c ****     kf->F_data[23] = -q1 * qekf_ins->dt / 2;
 266:Components/Algorithm/QuaternionEKF.c **** 
 267:Components/Algorithm/QuaternionEKF.c ****     // fading filter,Èò≤Ê≠¢Èõ∂È£òÂèÇÊï∞ËøáÂ∫¶Êî∂Êïõ
 268:Components/Algorithm/QuaternionEKF.c ****     kf->P_data[28] /= qekf_ins->lambda;
 269:Components/Algorithm/QuaternionEKF.c ****     kf->P_data[35] /= qekf_ins->lambda;
 270:Components/Algorithm/QuaternionEKF.c **** 
 271:Components/Algorithm/QuaternionEKF.c ****     // ÈôêÂπÖ,Èò≤Ê≠¢ÂèëÊï£
 272:Components/Algorithm/QuaternionEKF.c ****     if (kf->P_data[28] > 10000)
 273:Components/Algorithm/QuaternionEKF.c ****     {
 274:Components/Algorithm/QuaternionEKF.c ****         kf->P_data[28] = 10000;
 275:Components/Algorithm/QuaternionEKF.c ****     }
 276:Components/Algorithm/QuaternionEKF.c ****     if (kf->P_data[35] > 10000)
 277:Components/Algorithm/QuaternionEKF.c ****     {
 278:Components/Algorithm/QuaternionEKF.c ****         kf->P_data[35] = 10000;
 279:Components/Algorithm/QuaternionEKF.c ****     }
 280:Components/Algorithm/QuaternionEKF.c **** }
 281:Components/Algorithm/QuaternionEKF.c **** 
 282:Components/Algorithm/QuaternionEKF.c **** /**
 283:Components/Algorithm/QuaternionEKF.c ****  * @brief Âú®Â∑•‰ΩúÁÇπÂ§ÑËÆ°ÁÆóËßÇÊµãÂáΩÊï∞h(x)ÁöÑJacobiÁü©ÈòµH
 284:Components/Algorithm/QuaternionEKF.c ****  *
 285:Components/Algorithm/QuaternionEKF.c ****  * @param kf
 286:Components/Algorithm/QuaternionEKF.c ****  */
 287:Components/Algorithm/QuaternionEKF.c **** static void IMU_QuaternionEKF_SetH(KalmanFilter_t *kf)
 288:Components/Algorithm/QuaternionEKF.c **** {
 289:Components/Algorithm/QuaternionEKF.c ****     static float doubleq0, doubleq1, doubleq2, doubleq3;
 290:Components/Algorithm/QuaternionEKF.c ****     /* H
 291:Components/Algorithm/QuaternionEKF.c ****      0     1     2     3     4     5
 292:Components/Algorithm/QuaternionEKF.c ****      6     7     8     9    10    11
 293:Components/Algorithm/QuaternionEKF.c ****     12    13    14    15    16    17
 294:Components/Algorithm/QuaternionEKF.c ****     last two cols are zero
 295:Components/Algorithm/QuaternionEKF.c ****     */
 296:Components/Algorithm/QuaternionEKF.c ****     // set H
 297:Components/Algorithm/QuaternionEKF.c ****     doubleq0 = 2 * kf->xhatminus_data[0];
 298:Components/Algorithm/QuaternionEKF.c ****     doubleq1 = 2 * kf->xhatminus_data[1];
 299:Components/Algorithm/QuaternionEKF.c ****     doubleq2 = 2 * kf->xhatminus_data[2];
 300:Components/Algorithm/QuaternionEKF.c ****     doubleq3 = 2 * kf->xhatminus_data[3];
 301:Components/Algorithm/QuaternionEKF.c **** 
 302:Components/Algorithm/QuaternionEKF.c ****     memset(kf->H_data, 0, sizeof_float * kf->zSize * kf->xhatSize);
 303:Components/Algorithm/QuaternionEKF.c **** 
 304:Components/Algorithm/QuaternionEKF.c ****     kf->H_data[0] = -doubleq2;
 305:Components/Algorithm/QuaternionEKF.c ****     kf->H_data[1] = doubleq3;
 306:Components/Algorithm/QuaternionEKF.c ****     kf->H_data[2] = -doubleq0;
 307:Components/Algorithm/QuaternionEKF.c ****     kf->H_data[3] = doubleq1;
 308:Components/Algorithm/QuaternionEKF.c **** 
 309:Components/Algorithm/QuaternionEKF.c ****     kf->H_data[6] = doubleq1;
 310:Components/Algorithm/QuaternionEKF.c ****     kf->H_data[7] = doubleq0;
 311:Components/Algorithm/QuaternionEKF.c ****     kf->H_data[8] = doubleq3;
 312:Components/Algorithm/QuaternionEKF.c ****     kf->H_data[9] = doubleq2;
 313:Components/Algorithm/QuaternionEKF.c **** 
 314:Components/Algorithm/QuaternionEKF.c ****     kf->H_data[12] = doubleq0;
 315:Components/Algorithm/QuaternionEKF.c ****     kf->H_data[13] = -doubleq1;
ARM GAS  C:\Users\86152\AppData\Local\Temp\ccw7UxVh.s 			page 7


 316:Components/Algorithm/QuaternionEKF.c ****     kf->H_data[14] = -doubleq2;
 317:Components/Algorithm/QuaternionEKF.c ****     kf->H_data[15] = doubleq3;
 318:Components/Algorithm/QuaternionEKF.c **** }
 319:Components/Algorithm/QuaternionEKF.c **** 
 320:Components/Algorithm/QuaternionEKF.c **** /**
 321:Components/Algorithm/QuaternionEKF.c ****  * @brief Âà©Áî®ËßÇÊµãÂÄºÂíåÂÖàÈ™å‰º∞ËÆ°ÂæóÂà∞ÊúÄ‰ºòÁöÑÂêéÈ™å‰º∞ËÆ°
 322:Components/Algorithm/QuaternionEKF.c ****  *        Âä†ÂÖ•‰∫ÜÂç°ÊñπÊ£ÄÈ™å‰ª•Âà§Êñ≠ËûçÂêàÂä†ÈÄüÂ∫¶ÁöÑÊù°‰ª∂ÊòØÂê¶Êª°Ë∂≥
 323:Components/Algorithm/QuaternionEKF.c ****  *        ÂêåÊó∂ÂºïÂÖ•ÂèëÊï£‰øùÊä§‰øùËØÅÊÅ∂Âä£Â∑•ÂÜµ‰∏ãÁöÑÂøÖË¶ÅÈáèÊµãÊõ¥Êñ∞
 324:Components/Algorithm/QuaternionEKF.c ****  *
 325:Components/Algorithm/QuaternionEKF.c ****  * @param kf
 326:Components/Algorithm/QuaternionEKF.c ****  */
 327:Components/Algorithm/QuaternionEKF.c **** static void IMU_QuaternionEKF_xhatUpdate(KalmanFilter_t *kf)
 328:Components/Algorithm/QuaternionEKF.c **** {
 329:Components/Algorithm/QuaternionEKF.c ****     static float q0, q1, q2, q3;
 330:Components/Algorithm/QuaternionEKF.c **** 
 331:Components/Algorithm/QuaternionEKF.c ****     QEKF_INS_t *qekf_ins = (QEKF_INS_t *)kf->User_Data;
 332:Components/Algorithm/QuaternionEKF.c ****     kf->MatStatus = Matrix_Transpose(&kf->H, &kf->HT); // z|x => x|z
 333:Components/Algorithm/QuaternionEKF.c ****     kf->temp_matrix.numRows = kf->H.numRows;
 334:Components/Algorithm/QuaternionEKF.c ****     kf->temp_matrix.numCols = kf->Pminus.numCols;
 335:Components/Algorithm/QuaternionEKF.c ****     kf->MatStatus = Matrix_Multiply(&kf->H, &kf->Pminus, &kf->temp_matrix); // temp_matrix = H¬∑P'(
 336:Components/Algorithm/QuaternionEKF.c ****     kf->temp_matrix1.numRows = kf->temp_matrix.numRows;
 337:Components/Algorithm/QuaternionEKF.c ****     kf->temp_matrix1.numCols = kf->HT.numCols;
 338:Components/Algorithm/QuaternionEKF.c ****     kf->MatStatus = Matrix_Multiply(&kf->temp_matrix, &kf->HT, &kf->temp_matrix1); // temp_matrix1 
 339:Components/Algorithm/QuaternionEKF.c ****     kf->S.numRows = kf->R.numRows;
 340:Components/Algorithm/QuaternionEKF.c ****     kf->S.numCols = kf->R.numCols;
 341:Components/Algorithm/QuaternionEKF.c ****     kf->MatStatus = Matrix_Add(&kf->temp_matrix1, &kf->R, &kf->S); // S = H P'(k) HT + R
 342:Components/Algorithm/QuaternionEKF.c ****     kf->MatStatus = Matrix_Inverse(&kf->S, &kf->temp_matrix1);     // temp_matrix1 = inv(H¬∑P'(k)¬∑
 343:Components/Algorithm/QuaternionEKF.c **** 
 344:Components/Algorithm/QuaternionEKF.c ****     q0 = kf->xhatminus_data[0];
 345:Components/Algorithm/QuaternionEKF.c ****     q1 = kf->xhatminus_data[1];
 346:Components/Algorithm/QuaternionEKF.c ****     q2 = kf->xhatminus_data[2];
 347:Components/Algorithm/QuaternionEKF.c ****     q3 = kf->xhatminus_data[3];
 348:Components/Algorithm/QuaternionEKF.c **** 
 349:Components/Algorithm/QuaternionEKF.c ****     kf->temp_vector.numRows = kf->H.numRows;
 350:Components/Algorithm/QuaternionEKF.c ****     kf->temp_vector.numCols = 1;
 351:Components/Algorithm/QuaternionEKF.c ****     // ËÆ°ÁÆóÈ¢ÑÊµãÂæóÂà∞ÁöÑÈáçÂäõÂä†ÈÄüÂ∫¶ÊñπÂêë(ÈÄöËøáÂßøÊÄÅËé∑ÂèñÁöÑ)
 352:Components/Algorithm/QuaternionEKF.c ****     kf->temp_vector_data[0] = 2 * (q1 * q3 - q0 * q2);
 353:Components/Algorithm/QuaternionEKF.c ****     kf->temp_vector_data[1] = 2 * (q0 * q1 + q2 * q3);
 354:Components/Algorithm/QuaternionEKF.c ****     kf->temp_vector_data[2] = q0 * q0 - q1 * q1 - q2 * q2 + q3 * q3; // temp_vector = h(xhat'(k))
 355:Components/Algorithm/QuaternionEKF.c **** 
 356:Components/Algorithm/QuaternionEKF.c ****     // ËÆ°ÁÆóÈ¢ÑÊµãÂÄºÂíåÂêÑ‰∏™ËΩ¥ÁöÑÊñπÂêë‰ΩôÂº¶
 357:Components/Algorithm/QuaternionEKF.c ****     for (uint8_t i = 0; i < 3; i++)
 358:Components/Algorithm/QuaternionEKF.c ****     {
 359:Components/Algorithm/QuaternionEKF.c ****         qekf_ins->OrientationCosine[i] = acosf(fabsf(kf->temp_vector_data[i]));
 360:Components/Algorithm/QuaternionEKF.c ****     }
 361:Components/Algorithm/QuaternionEKF.c **** 
 362:Components/Algorithm/QuaternionEKF.c ****     // Âà©Áî®Âä†ÈÄüÂ∫¶ËÆ°Êï∞ÊçÆ‰øÆÊ≠£
 363:Components/Algorithm/QuaternionEKF.c ****     kf->temp_vector1.numRows = kf->z.numRows;
 364:Components/Algorithm/QuaternionEKF.c ****     kf->temp_vector1.numCols = 1;
 365:Components/Algorithm/QuaternionEKF.c ****     kf->MatStatus = Matrix_Subtract(&kf->z, &kf->temp_vector, &kf->temp_vector1); // temp_vector1 =
 366:Components/Algorithm/QuaternionEKF.c **** 
 367:Components/Algorithm/QuaternionEKF.c ****     // chi-square test,Âç°ÊñπÊ£ÄÈ™å
 368:Components/Algorithm/QuaternionEKF.c ****     kf->temp_matrix.numRows = kf->temp_vector1.numRows;
 369:Components/Algorithm/QuaternionEKF.c ****     kf->temp_matrix.numCols = 1;
 370:Components/Algorithm/QuaternionEKF.c ****     kf->MatStatus = Matrix_Multiply(&kf->temp_matrix1, &kf->temp_vector1, &kf->temp_matrix); // tem
 371:Components/Algorithm/QuaternionEKF.c ****     kf->temp_vector.numRows = 1;
 372:Components/Algorithm/QuaternionEKF.c ****     kf->temp_vector.numCols = kf->temp_vector1.numRows;
ARM GAS  C:\Users\86152\AppData\Local\Temp\ccw7UxVh.s 			page 8


 373:Components/Algorithm/QuaternionEKF.c ****     kf->MatStatus = Matrix_Transpose(&kf->temp_vector1, &kf->temp_vector); // temp_vector = z(k) - 
 374:Components/Algorithm/QuaternionEKF.c ****     kf->MatStatus = Matrix_Multiply(&kf->temp_vector, &kf->temp_matrix, &qekf_ins->ChiSquare);
 375:Components/Algorithm/QuaternionEKF.c ****     // rk is small,filter converged/converging
 376:Components/Algorithm/QuaternionEKF.c ****     if (qekf_ins->ChiSquare_Data[0] < 0.5f * qekf_ins->ChiSquareTestThreshold)
 377:Components/Algorithm/QuaternionEKF.c ****     {
 378:Components/Algorithm/QuaternionEKF.c ****         qekf_ins->ConvergeFlag = 1;
 379:Components/Algorithm/QuaternionEKF.c ****     }
 380:Components/Algorithm/QuaternionEKF.c ****     // rk is bigger than thre but once converged
 381:Components/Algorithm/QuaternionEKF.c ****     if (qekf_ins->ChiSquare_Data[0] > qekf_ins->ChiSquareTestThreshold && qekf_ins->ConvergeFlag)
 382:Components/Algorithm/QuaternionEKF.c ****     {
 383:Components/Algorithm/QuaternionEKF.c ****         if (qekf_ins->StableFlag)
 384:Components/Algorithm/QuaternionEKF.c ****         {
 385:Components/Algorithm/QuaternionEKF.c ****             qekf_ins->ErrorCount++; // ËΩΩ‰ΩìÈùôÊ≠¢Êó∂‰ªçÊó†Ê≥ïÈÄöËøáÂç°ÊñπÊ£ÄÈ™å
 386:Components/Algorithm/QuaternionEKF.c ****         }
 387:Components/Algorithm/QuaternionEKF.c ****         else
 388:Components/Algorithm/QuaternionEKF.c ****         {
 389:Components/Algorithm/QuaternionEKF.c ****             qekf_ins->ErrorCount = 0;
 390:Components/Algorithm/QuaternionEKF.c ****         }
 391:Components/Algorithm/QuaternionEKF.c **** 
 392:Components/Algorithm/QuaternionEKF.c ****         if (qekf_ins->ErrorCount > 50)
 393:Components/Algorithm/QuaternionEKF.c ****         {
 394:Components/Algorithm/QuaternionEKF.c ****             // Êª§Ê≥¢Âô®ÂèëÊï£
 395:Components/Algorithm/QuaternionEKF.c ****             qekf_ins->ConvergeFlag = 0;
 396:Components/Algorithm/QuaternionEKF.c ****             kf->SkipEq5 = FALSE; // step-5 is cov mat P updating
 397:Components/Algorithm/QuaternionEKF.c ****         }
 398:Components/Algorithm/QuaternionEKF.c ****         else
 399:Components/Algorithm/QuaternionEKF.c ****         {
 400:Components/Algorithm/QuaternionEKF.c ****             //  ÊÆãÂ∑ÆÊú™ÈÄöËøáÂç°ÊñπÊ£ÄÈ™å ‰ªÖÈ¢ÑÊµã
 401:Components/Algorithm/QuaternionEKF.c ****             //  xhat(k) = xhat'(k)
 402:Components/Algorithm/QuaternionEKF.c ****             //  P(k) = P'(k)
 403:Components/Algorithm/QuaternionEKF.c ****             memcpy(kf->xhat_data, kf->xhatminus_data, sizeof_float * kf->xhatSize);
 404:Components/Algorithm/QuaternionEKF.c ****             memcpy(kf->P_data, kf->Pminus_data, sizeof_float * kf->xhatSize * kf->xhatSize);
 405:Components/Algorithm/QuaternionEKF.c ****             kf->SkipEq5 = TRUE; // part5 is P updating
 406:Components/Algorithm/QuaternionEKF.c ****             return;
 407:Components/Algorithm/QuaternionEKF.c ****         }
 408:Components/Algorithm/QuaternionEKF.c ****     }
 409:Components/Algorithm/QuaternionEKF.c ****     else // if divergent or rk is not that big/acceptable,use adaptive gain
 410:Components/Algorithm/QuaternionEKF.c ****     {
 411:Components/Algorithm/QuaternionEKF.c ****         // scale adaptive,rkË∂äÂ∞èÂàôÂ¢ûÁõäË∂äÂ§ß,Âê¶ÂàôÊõ¥Áõ∏‰ø°È¢ÑÊµãÂÄº
 412:Components/Algorithm/QuaternionEKF.c ****         if (qekf_ins->ChiSquare_Data[0] > 0.1f * qekf_ins->ChiSquareTestThreshold && qekf_ins->Conv
 413:Components/Algorithm/QuaternionEKF.c ****         {
 414:Components/Algorithm/QuaternionEKF.c ****             qekf_ins->AdaptiveGainScale = (qekf_ins->ChiSquareTestThreshold - qekf_ins->ChiSquare_D
 415:Components/Algorithm/QuaternionEKF.c ****         }
 416:Components/Algorithm/QuaternionEKF.c ****         else
 417:Components/Algorithm/QuaternionEKF.c ****         {
 418:Components/Algorithm/QuaternionEKF.c ****             qekf_ins->AdaptiveGainScale = 1;
 419:Components/Algorithm/QuaternionEKF.c ****         }
 420:Components/Algorithm/QuaternionEKF.c ****         qekf_ins->ErrorCount = 0;
 421:Components/Algorithm/QuaternionEKF.c ****         kf->SkipEq5 = FALSE;
 422:Components/Algorithm/QuaternionEKF.c ****     }
 423:Components/Algorithm/QuaternionEKF.c **** 
 424:Components/Algorithm/QuaternionEKF.c ****     // cal kf-gain K
 425:Components/Algorithm/QuaternionEKF.c ****     kf->temp_matrix.numRows = kf->Pminus.numRows;
 426:Components/Algorithm/QuaternionEKF.c ****     kf->temp_matrix.numCols = kf->HT.numCols;
 427:Components/Algorithm/QuaternionEKF.c ****     kf->MatStatus = Matrix_Multiply(&kf->Pminus, &kf->HT, &kf->temp_matrix); // temp_matrix = P'(k)
 428:Components/Algorithm/QuaternionEKF.c ****     kf->MatStatus = Matrix_Multiply(&kf->temp_matrix, &kf->temp_matrix1, &kf->K);
 429:Components/Algorithm/QuaternionEKF.c **** 
ARM GAS  C:\Users\86152\AppData\Local\Temp\ccw7UxVh.s 			page 9


 430:Components/Algorithm/QuaternionEKF.c ****     // implement adaptive
 431:Components/Algorithm/QuaternionEKF.c ****     for (uint8_t i = 0; i < kf->K.numRows * kf->K.numCols; i++)
 432:Components/Algorithm/QuaternionEKF.c ****     {
 433:Components/Algorithm/QuaternionEKF.c ****         kf->K_data[i] *= qekf_ins->AdaptiveGainScale;
 434:Components/Algorithm/QuaternionEKF.c ****     }
 435:Components/Algorithm/QuaternionEKF.c ****     for (uint8_t i = 4; i < 6; i++)
 436:Components/Algorithm/QuaternionEKF.c ****     {
 437:Components/Algorithm/QuaternionEKF.c ****         for (uint8_t j = 0; j < 3; j++)
 438:Components/Algorithm/QuaternionEKF.c ****         {
 439:Components/Algorithm/QuaternionEKF.c ****             kf->K_data[i * 3 + j] *= qekf_ins->OrientationCosine[i - 4] / 1.5707963f; // 1 rad
 440:Components/Algorithm/QuaternionEKF.c ****         }
 441:Components/Algorithm/QuaternionEKF.c ****     }
 442:Components/Algorithm/QuaternionEKF.c **** 
 443:Components/Algorithm/QuaternionEKF.c ****     kf->temp_vector.numRows = kf->K.numRows;
 444:Components/Algorithm/QuaternionEKF.c ****     kf->temp_vector.numCols = 1;
 445:Components/Algorithm/QuaternionEKF.c ****     kf->MatStatus = Matrix_Multiply(&kf->K, &kf->temp_vector1, &kf->temp_vector); // temp_vector = 
 446:Components/Algorithm/QuaternionEKF.c **** 
 447:Components/Algorithm/QuaternionEKF.c ****     // Èõ∂ÊºÇ‰øÆÊ≠£ÈôêÂπÖ,‰∏ÄËà¨‰∏ç‰ºöÊúâËøáÂ§ßÁöÑÊºÇÁßª
 448:Components/Algorithm/QuaternionEKF.c ****     if (qekf_ins->ConvergeFlag)
 449:Components/Algorithm/QuaternionEKF.c ****     {
 450:Components/Algorithm/QuaternionEKF.c ****         for (uint8_t i = 4; i < 6; i++)
 451:Components/Algorithm/QuaternionEKF.c ****         {
 452:Components/Algorithm/QuaternionEKF.c ****             if (kf->temp_vector.pData[i] > 1e-2f * qekf_ins->dt)
 453:Components/Algorithm/QuaternionEKF.c ****             {
 454:Components/Algorithm/QuaternionEKF.c ****                 kf->temp_vector.pData[i] = 1e-2f * qekf_ins->dt;
 455:Components/Algorithm/QuaternionEKF.c ****             }
 456:Components/Algorithm/QuaternionEKF.c ****             if (kf->temp_vector.pData[i] < -1e-2f * qekf_ins->dt)
 457:Components/Algorithm/QuaternionEKF.c ****             {
 458:Components/Algorithm/QuaternionEKF.c ****                 kf->temp_vector.pData[i] = -1e-2f * qekf_ins->dt;
 459:Components/Algorithm/QuaternionEKF.c ****             }
 460:Components/Algorithm/QuaternionEKF.c ****         }
 461:Components/Algorithm/QuaternionEKF.c ****     }
 462:Components/Algorithm/QuaternionEKF.c **** 
 463:Components/Algorithm/QuaternionEKF.c ****     // ‰∏ç‰øÆÊ≠£yawËΩ¥Êï∞ÊçÆ
 464:Components/Algorithm/QuaternionEKF.c ****     kf->temp_vector.pData[3] = 0;
 465:Components/Algorithm/QuaternionEKF.c ****     kf->MatStatus = Matrix_Add(&kf->xhatminus, &kf->temp_vector, &kf->xhat);
 466:Components/Algorithm/QuaternionEKF.c **** }
 467:Components/Algorithm/QuaternionEKF.c **** 
 468:Components/Algorithm/QuaternionEKF.c **** /**
 469:Components/Algorithm/QuaternionEKF.c ****  * @brief EKFËßÇÊµãÁéØËäÇ,ÂÖ∂ÂÆûÂ∞±ÊòØÊääÊï∞ÊçÆÂ§çÂà∂‰∏Ä‰∏ã
 470:Components/Algorithm/QuaternionEKF.c ****  *
 471:Components/Algorithm/QuaternionEKF.c ****  * @param kf kfÁ±ªÂûãÂÆö‰πâ
 472:Components/Algorithm/QuaternionEKF.c ****  */
 473:Components/Algorithm/QuaternionEKF.c **** static void IMU_QuaternionEKF_Observe(KalmanFilter_t *kf)
 474:Components/Algorithm/QuaternionEKF.c **** {
 475:Components/Algorithm/QuaternionEKF.c ****     memcpy(IMU_QuaternionEKF_P, kf->P_data, sizeof(IMU_QuaternionEKF_P));
 476:Components/Algorithm/QuaternionEKF.c ****     memcpy(IMU_QuaternionEKF_K, kf->K_data, sizeof(IMU_QuaternionEKF_K));
 477:Components/Algorithm/QuaternionEKF.c ****     memcpy(IMU_QuaternionEKF_H, kf->H_data, sizeof(IMU_QuaternionEKF_H));
 478:Components/Algorithm/QuaternionEKF.c **** }
 479:Components/Algorithm/QuaternionEKF.c **** 
 480:Components/Algorithm/QuaternionEKF.c **** /**
 481:Components/Algorithm/QuaternionEKF.c ****  * @brief Ëá™ÂÆö‰πâ1/sqrt(x),ÈÄüÂ∫¶Êõ¥Âø´
 482:Components/Algorithm/QuaternionEKF.c ****  *
 483:Components/Algorithm/QuaternionEKF.c ****  * @param x x
 484:Components/Algorithm/QuaternionEKF.c ****  * @return float
 485:Components/Algorithm/QuaternionEKF.c ****  */
 486:Components/Algorithm/QuaternionEKF.c **** static float invSqrt(float x)
ARM GAS  C:\Users\86152\AppData\Local\Temp\ccw7UxVh.s 			page 10


 487:Components/Algorithm/QuaternionEKF.c **** {
  29              		.loc 1 487 1 view -0
  30              		.cfi_startproc
  31              		@ args = 0, pretend = 0, frame = 0
  32              		@ frame_needed = 0, uses_anonymous_args = 0
  33              		@ link register save eliminated.
 488:Components/Algorithm/QuaternionEKF.c ****     float halfx = 0.5f * x;
  34              		.loc 1 488 5 view .LVU1
  35              		.loc 1 488 11 is_stmt 0 view .LVU2
  36 0000 F6EE007A 		vmov.f32	s15, #5.0e-1
  37 0004 60EE277A 		vmul.f32	s15, s0, s15
  38              	.LVL1:
 489:Components/Algorithm/QuaternionEKF.c ****     float y = x;
  39              		.loc 1 489 5 is_stmt 1 view .LVU3
 490:Components/Algorithm/QuaternionEKF.c ****     long i = *(long *)&y;
  40              		.loc 1 490 5 view .LVU4
  41              		.loc 1 490 14 is_stmt 0 view .LVU5
  42 0008 10EE103A 		vmov	r3, s0	@ int
  43              	.LVL2:
 491:Components/Algorithm/QuaternionEKF.c ****     i = 0x5f375a86 - (i >> 1);
  44              		.loc 1 491 5 is_stmt 1 view .LVU6
 492:Components/Algorithm/QuaternionEKF.c ****     y = *(float *)&i;
  45              		.loc 1 492 5 view .LVU7
  46              		.loc 1 492 9 is_stmt 0 view .LVU8
  47 000c 074A     		ldr	r2, .L2
  48 000e A2EB6303 		sub	r3, r2, r3, asr #1
  49              	.LVL3:
  50              		.loc 1 492 9 view .LVU9
  51 0012 07EE103A 		vmov	s14, r3	@ int
  52              	.LVL4:
 493:Components/Algorithm/QuaternionEKF.c ****     y = y * (1.5f - (halfx * y * y));
  53              		.loc 1 493 5 is_stmt 1 view .LVU10
  54              		.loc 1 493 28 is_stmt 0 view .LVU11
  55 0016 67EE277A 		vmul.f32	s15, s14, s15
  56              	.LVL5:
  57              		.loc 1 493 32 view .LVU12
  58 001a 67EE277A 		vmul.f32	s15, s14, s15
  59              		.loc 1 493 19 view .LVU13
  60 001e B7EE080A 		vmov.f32	s0, #1.5e+0
  61              	.LVL6:
  62              		.loc 1 493 19 view .LVU14
  63 0022 30EE670A 		vsub.f32	s0, s0, s15
  64              	.LVL7:
 494:Components/Algorithm/QuaternionEKF.c ****     return y;
  65              		.loc 1 494 5 is_stmt 1 view .LVU15
 495:Components/Algorithm/QuaternionEKF.c **** }
  66              		.loc 1 495 1 is_stmt 0 view .LVU16
  67 0026 27EE000A 		vmul.f32	s0, s14, s0
  68 002a 7047     		bx	lr
  69              	.L3:
  70              		.align	2
  71              	.L2:
  72 002c 865A375F 		.word	1597463174
  73              		.cfi_endproc
  74              	.LFE169:
  76              		.section	.text.IMU_QuaternionEKF_F_Linearization_P_Fading,"ax",%progbits
  77              		.align	1
ARM GAS  C:\Users\86152\AppData\Local\Temp\ccw7UxVh.s 			page 11


  78              		.syntax unified
  79              		.thumb
  80              		.thumb_func
  82              	IMU_QuaternionEKF_F_Linearization_P_Fading:
  83              	.LVL8:
  84              	.LFB165:
 229:Components/Algorithm/QuaternionEKF.c ****     static float q0, q1, q2, q3;
  85              		.loc 1 229 1 is_stmt 1 view -0
  86              		.cfi_startproc
  87              		@ args = 0, pretend = 0, frame = 0
  88              		@ frame_needed = 0, uses_anonymous_args = 0
 229:Components/Algorithm/QuaternionEKF.c ****     static float q0, q1, q2, q3;
  89              		.loc 1 229 1 is_stmt 0 view .LVU18
  90 0000 38B5     		push	{r3, r4, r5, lr}
  91              	.LCFI0:
  92              		.cfi_def_cfa_offset 16
  93              		.cfi_offset 3, -16
  94              		.cfi_offset 4, -12
  95              		.cfi_offset 5, -8
  96              		.cfi_offset 14, -4
  97 0002 2DED048B 		vpush.64	{d8, d9}
  98              	.LCFI1:
  99              		.cfi_def_cfa_offset 32
 100              		.cfi_offset 80, -32
 101              		.cfi_offset 81, -28
 102              		.cfi_offset 82, -24
 103              		.cfi_offset 83, -20
 104 0006 0446     		mov	r4, r0
 230:Components/Algorithm/QuaternionEKF.c ****     static float qInvNorm;
 105              		.loc 1 230 5 is_stmt 1 view .LVU19
 231:Components/Algorithm/QuaternionEKF.c **** 
 106              		.loc 1 231 5 view .LVU20
 233:Components/Algorithm/QuaternionEKF.c **** 
 107              		.loc 1 233 5 view .LVU21
 233:Components/Algorithm/QuaternionEKF.c **** 
 108              		.loc 1 233 17 is_stmt 0 view .LVU22
 109 0008 D0F8E850 		ldr	r5, [r0, #232]
 110              	.LVL9:
 235:Components/Algorithm/QuaternionEKF.c ****     q1 = kf->xhatminus_data[1];
 111              		.loc 1 235 5 is_stmt 1 view .LVU23
 235:Components/Algorithm/QuaternionEKF.c ****     q1 = kf->xhatminus_data[1];
 112              		.loc 1 235 12 is_stmt 0 view .LVU24
 113 000c D0F8F030 		ldr	r3, [r0, #240]
 235:Components/Algorithm/QuaternionEKF.c ****     q1 = kf->xhatminus_data[1];
 114              		.loc 1 235 28 view .LVU25
 115 0010 93ED009A 		vldr.32	s18, [r3]
 235:Components/Algorithm/QuaternionEKF.c ****     q1 = kf->xhatminus_data[1];
 116              		.loc 1 235 8 view .LVU26
 117 0014 5B4A     		ldr	r2, .L14
 118 0016 82ED009A 		vstr.32	s18, [r2]
 236:Components/Algorithm/QuaternionEKF.c ****     q2 = kf->xhatminus_data[2];
 119              		.loc 1 236 5 is_stmt 1 view .LVU27
 236:Components/Algorithm/QuaternionEKF.c ****     q2 = kf->xhatminus_data[2];
 120              		.loc 1 236 8 is_stmt 0 view .LVU28
 121 001a 93ED018A 		vldr.32	s16, [r3, #4]
 122 001e 5A4A     		ldr	r2, .L14+4
 123 0020 82ED008A 		vstr.32	s16, [r2]
ARM GAS  C:\Users\86152\AppData\Local\Temp\ccw7UxVh.s 			page 12


 237:Components/Algorithm/QuaternionEKF.c ****     q3 = kf->xhatminus_data[3];
 124              		.loc 1 237 5 is_stmt 1 view .LVU29
 237:Components/Algorithm/QuaternionEKF.c ****     q3 = kf->xhatminus_data[3];
 125              		.loc 1 237 8 is_stmt 0 view .LVU30
 126 0024 D3ED028A 		vldr.32	s17, [r3, #8]
 127 0028 584A     		ldr	r2, .L14+8
 128 002a C2ED008A 		vstr.32	s17, [r2]
 238:Components/Algorithm/QuaternionEKF.c **** 
 129              		.loc 1 238 5 is_stmt 1 view .LVU31
 238:Components/Algorithm/QuaternionEKF.c **** 
 130              		.loc 1 238 8 is_stmt 0 view .LVU32
 131 002e D3ED039A 		vldr.32	s19, [r3, #12]
 132 0032 574B     		ldr	r3, .L14+12
 133 0034 C3ED009A 		vstr.32	s19, [r3]
 241:Components/Algorithm/QuaternionEKF.c ****     for (uint8_t i = 0; i < 4; i++)
 134              		.loc 1 241 5 is_stmt 1 view .LVU33
 241:Components/Algorithm/QuaternionEKF.c ****     for (uint8_t i = 0; i < 4; i++)
 135              		.loc 1 241 27 is_stmt 0 view .LVU34
 136 0038 69EE097A 		vmul.f32	s15, s18, s18
 241:Components/Algorithm/QuaternionEKF.c ****     for (uint8_t i = 0; i < 4; i++)
 137              		.loc 1 241 37 view .LVU35
 138 003c 28EE080A 		vmul.f32	s0, s16, s16
 241:Components/Algorithm/QuaternionEKF.c ****     for (uint8_t i = 0; i < 4; i++)
 139              		.loc 1 241 32 view .LVU36
 140 0040 77EE807A 		vadd.f32	s15, s15, s0
 241:Components/Algorithm/QuaternionEKF.c ****     for (uint8_t i = 0; i < 4; i++)
 141              		.loc 1 241 47 view .LVU37
 142 0044 28EEA80A 		vmul.f32	s0, s17, s17
 241:Components/Algorithm/QuaternionEKF.c ****     for (uint8_t i = 0; i < 4; i++)
 143              		.loc 1 241 42 view .LVU38
 144 0048 77EE807A 		vadd.f32	s15, s15, s0
 241:Components/Algorithm/QuaternionEKF.c ****     for (uint8_t i = 0; i < 4; i++)
 145              		.loc 1 241 57 view .LVU39
 146 004c 29EEA90A 		vmul.f32	s0, s19, s19
 241:Components/Algorithm/QuaternionEKF.c ****     for (uint8_t i = 0; i < 4; i++)
 147              		.loc 1 241 16 view .LVU40
 148 0050 37EE800A 		vadd.f32	s0, s15, s0
 149 0054 FFF7FEFF 		bl	invSqrt
 150              	.LVL10:
 241:Components/Algorithm/QuaternionEKF.c ****     for (uint8_t i = 0; i < 4; i++)
 151              		.loc 1 241 14 view .LVU41
 152 0058 4E4B     		ldr	r3, .L14+16
 153 005a 83ED000A 		vstr.32	s0, [r3]
 242:Components/Algorithm/QuaternionEKF.c ****     {
 154              		.loc 1 242 5 is_stmt 1 view .LVU42
 155              	.LBB2:
 242:Components/Algorithm/QuaternionEKF.c ****     {
 156              		.loc 1 242 10 view .LVU43
 157              	.LVL11:
 242:Components/Algorithm/QuaternionEKF.c ****     {
 158              		.loc 1 242 18 is_stmt 0 view .LVU44
 159 005e 0023     		movs	r3, #0
 242:Components/Algorithm/QuaternionEKF.c ****     {
 160              		.loc 1 242 5 view .LVU45
 161 0060 0BE0     		b	.L5
 162              	.LVL12:
 163              	.L6:
ARM GAS  C:\Users\86152\AppData\Local\Temp\ccw7UxVh.s 			page 13


 244:Components/Algorithm/QuaternionEKF.c ****     }
 164              		.loc 1 244 9 is_stmt 1 discriminator 3 view .LVU46
 244:Components/Algorithm/QuaternionEKF.c ****     }
 165              		.loc 1 244 11 is_stmt 0 discriminator 3 view .LVU47
 166 0062 D4F8F020 		ldr	r2, [r4, #240]
 244:Components/Algorithm/QuaternionEKF.c ****     }
 167              		.loc 1 244 31 discriminator 3 view .LVU48
 168 0066 02EB8302 		add	r2, r2, r3, lsl #2
 169 006a D2ED007A 		vldr.32	s15, [r2]
 170 006e 67EE807A 		vmul.f32	s15, s15, s0
 171 0072 C2ED007A 		vstr.32	s15, [r2]
 242:Components/Algorithm/QuaternionEKF.c ****     {
 172              		.loc 1 242 32 is_stmt 1 discriminator 3 view .LVU49
 242:Components/Algorithm/QuaternionEKF.c ****     {
 173              		.loc 1 242 33 is_stmt 0 discriminator 3 view .LVU50
 174 0076 0133     		adds	r3, r3, #1
 175              	.LVL13:
 242:Components/Algorithm/QuaternionEKF.c ****     {
 176              		.loc 1 242 33 discriminator 3 view .LVU51
 177 0078 DBB2     		uxtb	r3, r3
 178              	.LVL14:
 179              	.L5:
 242:Components/Algorithm/QuaternionEKF.c ****     {
 180              		.loc 1 242 25 is_stmt 1 discriminator 1 view .LVU52
 242:Components/Algorithm/QuaternionEKF.c ****     {
 181              		.loc 1 242 5 is_stmt 0 discriminator 1 view .LVU53
 182 007a 032B     		cmp	r3, #3
 183 007c F1D9     		bls	.L6
 184              	.LBE2:
 255:Components/Algorithm/QuaternionEKF.c ****     kf->F_data[5] = q2 * qekf_ins->dt / 2;
 185              		.loc 1 255 5 is_stmt 1 view .LVU54
 255:Components/Algorithm/QuaternionEKF.c ****     kf->F_data[5] = q2 * qekf_ins->dt / 2;
 186              		.loc 1 255 34 is_stmt 0 view .LVU55
 187 007e 95ED6F7A 		vldr.32	s14, [r5, #444]
 255:Components/Algorithm/QuaternionEKF.c ****     kf->F_data[5] = q2 * qekf_ins->dt / 2;
 188              		.loc 1 255 24 view .LVU56
 189 0082 28EE077A 		vmul.f32	s14, s16, s14
 255:Components/Algorithm/QuaternionEKF.c ****     kf->F_data[5] = q2 * qekf_ins->dt / 2;
 190              		.loc 1 255 7 view .LVU57
 191 0086 D4F80431 		ldr	r3, [r4, #260]
 192              	.LVL15:
 255:Components/Algorithm/QuaternionEKF.c ****     kf->F_data[5] = q2 * qekf_ins->dt / 2;
 193              		.loc 1 255 39 view .LVU58
 194 008a F6EE007A 		vmov.f32	s15, #5.0e-1
 195 008e 27EE277A 		vmul.f32	s14, s14, s15
 255:Components/Algorithm/QuaternionEKF.c ****     kf->F_data[5] = q2 * qekf_ins->dt / 2;
 196              		.loc 1 255 19 view .LVU59
 197 0092 83ED047A 		vstr.32	s14, [r3, #16]
 256:Components/Algorithm/QuaternionEKF.c **** 
 198              		.loc 1 256 5 is_stmt 1 view .LVU60
 256:Components/Algorithm/QuaternionEKF.c **** 
 199              		.loc 1 256 34 is_stmt 0 view .LVU61
 200 0096 95ED6F7A 		vldr.32	s14, [r5, #444]
 256:Components/Algorithm/QuaternionEKF.c **** 
 201              		.loc 1 256 24 view .LVU62
 202 009a 28EE877A 		vmul.f32	s14, s17, s14
 256:Components/Algorithm/QuaternionEKF.c **** 
ARM GAS  C:\Users\86152\AppData\Local\Temp\ccw7UxVh.s 			page 14


 203              		.loc 1 256 7 view .LVU63
 204 009e D4F80431 		ldr	r3, [r4, #260]
 256:Components/Algorithm/QuaternionEKF.c **** 
 205              		.loc 1 256 39 view .LVU64
 206 00a2 27EE277A 		vmul.f32	s14, s14, s15
 256:Components/Algorithm/QuaternionEKF.c **** 
 207              		.loc 1 256 19 view .LVU65
 208 00a6 83ED057A 		vstr.32	s14, [r3, #20]
 258:Components/Algorithm/QuaternionEKF.c ****     kf->F_data[11] = q3 * qekf_ins->dt / 2;
 209              		.loc 1 258 5 is_stmt 1 view .LVU66
 258:Components/Algorithm/QuaternionEKF.c ****     kf->F_data[11] = q3 * qekf_ins->dt / 2;
 210              		.loc 1 258 36 is_stmt 0 view .LVU67
 211 00aa 95ED6F7A 		vldr.32	s14, [r5, #444]
 258:Components/Algorithm/QuaternionEKF.c ****     kf->F_data[11] = q3 * qekf_ins->dt / 2;
 212              		.loc 1 258 26 view .LVU68
 213 00ae 29EE477A 		vnmul.f32	s14, s18, s14
 258:Components/Algorithm/QuaternionEKF.c ****     kf->F_data[11] = q3 * qekf_ins->dt / 2;
 214              		.loc 1 258 7 view .LVU69
 215 00b2 D4F80431 		ldr	r3, [r4, #260]
 258:Components/Algorithm/QuaternionEKF.c ****     kf->F_data[11] = q3 * qekf_ins->dt / 2;
 216              		.loc 1 258 41 view .LVU70
 217 00b6 27EE277A 		vmul.f32	s14, s14, s15
 258:Components/Algorithm/QuaternionEKF.c ****     kf->F_data[11] = q3 * qekf_ins->dt / 2;
 218              		.loc 1 258 20 view .LVU71
 219 00ba 83ED0A7A 		vstr.32	s14, [r3, #40]
 259:Components/Algorithm/QuaternionEKF.c **** 
 220              		.loc 1 259 5 is_stmt 1 view .LVU72
 259:Components/Algorithm/QuaternionEKF.c **** 
 221              		.loc 1 259 35 is_stmt 0 view .LVU73
 222 00be 95ED6F7A 		vldr.32	s14, [r5, #444]
 259:Components/Algorithm/QuaternionEKF.c **** 
 223              		.loc 1 259 25 view .LVU74
 224 00c2 29EE877A 		vmul.f32	s14, s19, s14
 259:Components/Algorithm/QuaternionEKF.c **** 
 225              		.loc 1 259 7 view .LVU75
 226 00c6 D4F80431 		ldr	r3, [r4, #260]
 259:Components/Algorithm/QuaternionEKF.c **** 
 227              		.loc 1 259 40 view .LVU76
 228 00ca 27EE277A 		vmul.f32	s14, s14, s15
 259:Components/Algorithm/QuaternionEKF.c **** 
 229              		.loc 1 259 20 view .LVU77
 230 00ce 83ED0B7A 		vstr.32	s14, [r3, #44]
 261:Components/Algorithm/QuaternionEKF.c ****     kf->F_data[17] = -q0 * qekf_ins->dt / 2;
 231              		.loc 1 261 5 is_stmt 1 view .LVU78
 261:Components/Algorithm/QuaternionEKF.c ****     kf->F_data[17] = -q0 * qekf_ins->dt / 2;
 232              		.loc 1 261 36 is_stmt 0 view .LVU79
 233 00d2 95ED6F7A 		vldr.32	s14, [r5, #444]
 261:Components/Algorithm/QuaternionEKF.c ****     kf->F_data[17] = -q0 * qekf_ins->dt / 2;
 234              		.loc 1 261 26 view .LVU80
 235 00d6 69EEC79A 		vnmul.f32	s19, s19, s14
 261:Components/Algorithm/QuaternionEKF.c ****     kf->F_data[17] = -q0 * qekf_ins->dt / 2;
 236              		.loc 1 261 7 view .LVU81
 237 00da D4F80431 		ldr	r3, [r4, #260]
 261:Components/Algorithm/QuaternionEKF.c ****     kf->F_data[17] = -q0 * qekf_ins->dt / 2;
 238              		.loc 1 261 41 view .LVU82
 239 00de 69EEA79A 		vmul.f32	s19, s19, s15
 261:Components/Algorithm/QuaternionEKF.c ****     kf->F_data[17] = -q0 * qekf_ins->dt / 2;
ARM GAS  C:\Users\86152\AppData\Local\Temp\ccw7UxVh.s 			page 15


 240              		.loc 1 261 20 view .LVU83
 241 00e2 C3ED109A 		vstr.32	s19, [r3, #64]
 262:Components/Algorithm/QuaternionEKF.c **** 
 242              		.loc 1 262 5 is_stmt 1 view .LVU84
 262:Components/Algorithm/QuaternionEKF.c **** 
 243              		.loc 1 262 36 is_stmt 0 view .LVU85
 244 00e6 95ED6F7A 		vldr.32	s14, [r5, #444]
 262:Components/Algorithm/QuaternionEKF.c **** 
 245              		.loc 1 262 26 view .LVU86
 246 00ea 29EE479A 		vnmul.f32	s18, s18, s14
 262:Components/Algorithm/QuaternionEKF.c **** 
 247              		.loc 1 262 7 view .LVU87
 248 00ee D4F80431 		ldr	r3, [r4, #260]
 262:Components/Algorithm/QuaternionEKF.c **** 
 249              		.loc 1 262 41 view .LVU88
 250 00f2 29EE279A 		vmul.f32	s18, s18, s15
 262:Components/Algorithm/QuaternionEKF.c **** 
 251              		.loc 1 262 20 view .LVU89
 252 00f6 83ED119A 		vstr.32	s18, [r3, #68]
 264:Components/Algorithm/QuaternionEKF.c ****     kf->F_data[23] = -q1 * qekf_ins->dt / 2;
 253              		.loc 1 264 5 is_stmt 1 view .LVU90
 264:Components/Algorithm/QuaternionEKF.c ****     kf->F_data[23] = -q1 * qekf_ins->dt / 2;
 254              		.loc 1 264 35 is_stmt 0 view .LVU91
 255 00fa 95ED6F7A 		vldr.32	s14, [r5, #444]
 264:Components/Algorithm/QuaternionEKF.c ****     kf->F_data[23] = -q1 * qekf_ins->dt / 2;
 256              		.loc 1 264 25 view .LVU92
 257 00fe 68EE878A 		vmul.f32	s17, s17, s14
 264:Components/Algorithm/QuaternionEKF.c ****     kf->F_data[23] = -q1 * qekf_ins->dt / 2;
 258              		.loc 1 264 7 view .LVU93
 259 0102 D4F80431 		ldr	r3, [r4, #260]
 264:Components/Algorithm/QuaternionEKF.c ****     kf->F_data[23] = -q1 * qekf_ins->dt / 2;
 260              		.loc 1 264 40 view .LVU94
 261 0106 68EEA78A 		vmul.f32	s17, s17, s15
 264:Components/Algorithm/QuaternionEKF.c ****     kf->F_data[23] = -q1 * qekf_ins->dt / 2;
 262              		.loc 1 264 20 view .LVU95
 263 010a C3ED168A 		vstr.32	s17, [r3, #88]
 265:Components/Algorithm/QuaternionEKF.c **** 
 264              		.loc 1 265 5 is_stmt 1 view .LVU96
 265:Components/Algorithm/QuaternionEKF.c **** 
 265              		.loc 1 265 36 is_stmt 0 view .LVU97
 266 010e 95ED6F7A 		vldr.32	s14, [r5, #444]
 265:Components/Algorithm/QuaternionEKF.c **** 
 267              		.loc 1 265 26 view .LVU98
 268 0112 28EE478A 		vnmul.f32	s16, s16, s14
 265:Components/Algorithm/QuaternionEKF.c **** 
 269              		.loc 1 265 7 view .LVU99
 270 0116 D4F80431 		ldr	r3, [r4, #260]
 265:Components/Algorithm/QuaternionEKF.c **** 
 271              		.loc 1 265 41 view .LVU100
 272 011a 28EE278A 		vmul.f32	s16, s16, s15
 265:Components/Algorithm/QuaternionEKF.c **** 
 273              		.loc 1 265 20 view .LVU101
 274 011e 83ED178A 		vstr.32	s16, [r3, #92]
 268:Components/Algorithm/QuaternionEKF.c ****     kf->P_data[35] /= qekf_ins->lambda;
 275              		.loc 1 268 5 is_stmt 1 view .LVU102
 268:Components/Algorithm/QuaternionEKF.c ****     kf->P_data[35] /= qekf_ins->lambda;
 276              		.loc 1 268 7 is_stmt 0 view .LVU103
ARM GAS  C:\Users\86152\AppData\Local\Temp\ccw7UxVh.s 			page 16


 277 0122 D4F8FC30 		ldr	r3, [r4, #252]
 268:Components/Algorithm/QuaternionEKF.c ****     kf->P_data[35] /= qekf_ins->lambda;
 278              		.loc 1 268 31 view .LVU104
 279 0126 95ED747A 		vldr.32	s14, [r5, #464]
 268:Components/Algorithm/QuaternionEKF.c ****     kf->P_data[35] /= qekf_ins->lambda;
 280              		.loc 1 268 20 view .LVU105
 281 012a D3ED1C6A 		vldr.32	s13, [r3, #112]
 282 012e C6EE877A 		vdiv.f32	s15, s13, s14
 283 0132 C3ED1C7A 		vstr.32	s15, [r3, #112]
 269:Components/Algorithm/QuaternionEKF.c **** 
 284              		.loc 1 269 5 is_stmt 1 view .LVU106
 269:Components/Algorithm/QuaternionEKF.c **** 
 285              		.loc 1 269 7 is_stmt 0 view .LVU107
 286 0136 D4F8FC30 		ldr	r3, [r4, #252]
 269:Components/Algorithm/QuaternionEKF.c **** 
 287              		.loc 1 269 31 view .LVU108
 288 013a 95ED747A 		vldr.32	s14, [r5, #464]
 269:Components/Algorithm/QuaternionEKF.c **** 
 289              		.loc 1 269 20 view .LVU109
 290 013e D3ED236A 		vldr.32	s13, [r3, #140]
 291 0142 C6EE877A 		vdiv.f32	s15, s13, s14
 292 0146 C3ED237A 		vstr.32	s15, [r3, #140]
 272:Components/Algorithm/QuaternionEKF.c ****     {
 293              		.loc 1 272 5 is_stmt 1 view .LVU110
 272:Components/Algorithm/QuaternionEKF.c ****     {
 294              		.loc 1 272 11 is_stmt 0 view .LVU111
 295 014a D4F8FC30 		ldr	r3, [r4, #252]
 272:Components/Algorithm/QuaternionEKF.c ****     {
 296              		.loc 1 272 19 view .LVU112
 297 014e 93ED1C7A 		vldr.32	s14, [r3, #112]
 272:Components/Algorithm/QuaternionEKF.c ****     {
 298              		.loc 1 272 8 view .LVU113
 299 0152 DFED117A 		vldr.32	s15, .L14+20
 300 0156 B4EEE77A 		vcmpe.f32	s14, s15
 301 015a F1EE10FA 		vmrs	APSR_nzcv, FPSCR
 302 015e 01DD     		ble	.L7
 274:Components/Algorithm/QuaternionEKF.c ****     }
 303              		.loc 1 274 9 is_stmt 1 view .LVU114
 274:Components/Algorithm/QuaternionEKF.c ****     }
 304              		.loc 1 274 24 is_stmt 0 view .LVU115
 305 0160 C3ED1C7A 		vstr.32	s15, [r3, #112]
 306              	.L7:
 276:Components/Algorithm/QuaternionEKF.c ****     {
 307              		.loc 1 276 5 is_stmt 1 view .LVU116
 276:Components/Algorithm/QuaternionEKF.c ****     {
 308              		.loc 1 276 11 is_stmt 0 view .LVU117
 309 0164 D4F8FC30 		ldr	r3, [r4, #252]
 276:Components/Algorithm/QuaternionEKF.c ****     {
 310              		.loc 1 276 19 view .LVU118
 311 0168 93ED237A 		vldr.32	s14, [r3, #140]
 276:Components/Algorithm/QuaternionEKF.c ****     {
 312              		.loc 1 276 8 view .LVU119
 313 016c DFED0A7A 		vldr.32	s15, .L14+20
 314 0170 B4EEE77A 		vcmpe.f32	s14, s15
 315 0174 F1EE10FA 		vmrs	APSR_nzcv, FPSCR
 316 0178 01DD     		ble	.L4
 278:Components/Algorithm/QuaternionEKF.c ****     }
ARM GAS  C:\Users\86152\AppData\Local\Temp\ccw7UxVh.s 			page 17


 317              		.loc 1 278 9 is_stmt 1 view .LVU120
 278:Components/Algorithm/QuaternionEKF.c ****     }
 318              		.loc 1 278 24 is_stmt 0 view .LVU121
 319 017a C3ED237A 		vstr.32	s15, [r3, #140]
 320              	.L4:
 280:Components/Algorithm/QuaternionEKF.c **** 
 321              		.loc 1 280 1 view .LVU122
 322 017e BDEC048B 		vldm	sp!, {d8-d9}
 323              	.LCFI2:
 324              		.cfi_restore 82
 325              		.cfi_restore 83
 326              		.cfi_restore 80
 327              		.cfi_restore 81
 328              		.cfi_def_cfa_offset 16
 329 0182 38BD     		pop	{r3, r4, r5, pc}
 330              	.LVL16:
 331              	.L15:
 280:Components/Algorithm/QuaternionEKF.c **** 
 332              		.loc 1 280 1 view .LVU123
 333              		.align	2
 334              	.L14:
 335 0184 00000000 		.word	.LANCHOR0
 336 0188 00000000 		.word	.LANCHOR1
 337 018c 00000000 		.word	.LANCHOR2
 338 0190 00000000 		.word	.LANCHOR3
 339 0194 00000000 		.word	.LANCHOR4
 340 0198 00401C46 		.word	1176256512
 341              		.cfi_endproc
 342              	.LFE165:
 344              		.section	.text.IMU_QuaternionEKF_Observe,"ax",%progbits
 345              		.align	1
 346              		.syntax unified
 347              		.thumb
 348              		.thumb_func
 350              	IMU_QuaternionEKF_Observe:
 351              	.LVL17:
 352              	.LFB168:
 474:Components/Algorithm/QuaternionEKF.c ****     memcpy(IMU_QuaternionEKF_P, kf->P_data, sizeof(IMU_QuaternionEKF_P));
 353              		.loc 1 474 1 is_stmt 1 view -0
 354              		.cfi_startproc
 355              		@ args = 0, pretend = 0, frame = 0
 356              		@ frame_needed = 0, uses_anonymous_args = 0
 474:Components/Algorithm/QuaternionEKF.c ****     memcpy(IMU_QuaternionEKF_P, kf->P_data, sizeof(IMU_QuaternionEKF_P));
 357              		.loc 1 474 1 is_stmt 0 view .LVU125
 358 0000 38B5     		push	{r3, r4, r5, lr}
 359              	.LCFI3:
 360              		.cfi_def_cfa_offset 16
 361              		.cfi_offset 3, -16
 362              		.cfi_offset 4, -12
 363              		.cfi_offset 5, -8
 364              		.cfi_offset 14, -4
 365 0002 0446     		mov	r4, r0
 475:Components/Algorithm/QuaternionEKF.c ****     memcpy(IMU_QuaternionEKF_K, kf->K_data, sizeof(IMU_QuaternionEKF_K));
 366              		.loc 1 475 5 is_stmt 1 view .LVU126
 367 0004 9022     		movs	r2, #144
 368 0006 D0F8FC10 		ldr	r1, [r0, #252]
 369 000a 0848     		ldr	r0, .L18
ARM GAS  C:\Users\86152\AppData\Local\Temp\ccw7UxVh.s 			page 18


 370              	.LVL18:
 475:Components/Algorithm/QuaternionEKF.c ****     memcpy(IMU_QuaternionEKF_K, kf->K_data, sizeof(IMU_QuaternionEKF_K));
 371              		.loc 1 475 5 is_stmt 0 view .LVU127
 372 000c FFF7FEFF 		bl	memcpy
 373              	.LVL19:
 476:Components/Algorithm/QuaternionEKF.c ****     memcpy(IMU_QuaternionEKF_H, kf->H_data, sizeof(IMU_QuaternionEKF_H));
 374              		.loc 1 476 5 is_stmt 1 view .LVU128
 375 0010 4825     		movs	r5, #72
 376 0012 2A46     		mov	r2, r5
 377 0014 D4F82011 		ldr	r1, [r4, #288]
 378 0018 0548     		ldr	r0, .L18+4
 379 001a FFF7FEFF 		bl	memcpy
 380              	.LVL20:
 477:Components/Algorithm/QuaternionEKF.c **** }
 381              		.loc 1 477 5 view .LVU129
 382 001e 2A46     		mov	r2, r5
 383 0020 D4F81011 		ldr	r1, [r4, #272]
 384 0024 0348     		ldr	r0, .L18+8
 385 0026 FFF7FEFF 		bl	memcpy
 386              	.LVL21:
 478:Components/Algorithm/QuaternionEKF.c **** 
 387              		.loc 1 478 1 is_stmt 0 view .LVU130
 388 002a 38BD     		pop	{r3, r4, r5, pc}
 389              	.LVL22:
 390              	.L19:
 478:Components/Algorithm/QuaternionEKF.c **** 
 391              		.loc 1 478 1 view .LVU131
 392              		.align	2
 393              	.L18:
 394 002c 00000000 		.word	.LANCHOR5
 395 0030 00000000 		.word	.LANCHOR6
 396 0034 00000000 		.word	.LANCHOR7
 397              		.cfi_endproc
 398              	.LFE168:
 400              		.section	.text.IMU_QuaternionEKF_xhatUpdate,"ax",%progbits
 401              		.align	1
 402              		.syntax unified
 403              		.thumb
 404              		.thumb_func
 406              	IMU_QuaternionEKF_xhatUpdate:
 407              	.LVL23:
 408              	.LFB167:
 328:Components/Algorithm/QuaternionEKF.c ****     static float q0, q1, q2, q3;
 409              		.loc 1 328 1 is_stmt 1 view -0
 410              		.cfi_startproc
 411              		@ args = 0, pretend = 0, frame = 8
 412              		@ frame_needed = 0, uses_anonymous_args = 0
 328:Components/Algorithm/QuaternionEKF.c ****     static float q0, q1, q2, q3;
 413              		.loc 1 328 1 is_stmt 0 view .LVU133
 414 0000 2DE9F04F 		push	{r4, r5, r6, r7, r8, r9, r10, fp, lr}
 415              	.LCFI4:
 416              		.cfi_def_cfa_offset 36
 417              		.cfi_offset 4, -36
 418              		.cfi_offset 5, -32
 419              		.cfi_offset 6, -28
 420              		.cfi_offset 7, -24
 421              		.cfi_offset 8, -20
ARM GAS  C:\Users\86152\AppData\Local\Temp\ccw7UxVh.s 			page 19


 422              		.cfi_offset 9, -16
 423              		.cfi_offset 10, -12
 424              		.cfi_offset 11, -8
 425              		.cfi_offset 14, -4
 426 0004 83B0     		sub	sp, sp, #12
 427              	.LCFI5:
 428              		.cfi_def_cfa_offset 48
 429 0006 0446     		mov	r4, r0
 329:Components/Algorithm/QuaternionEKF.c **** 
 430              		.loc 1 329 5 is_stmt 1 view .LVU134
 331:Components/Algorithm/QuaternionEKF.c ****     kf->MatStatus = Matrix_Transpose(&kf->H, &kf->HT); // z|x => x|z
 431              		.loc 1 331 5 view .LVU135
 331:Components/Algorithm/QuaternionEKF.c ****     kf->MatStatus = Matrix_Transpose(&kf->H, &kf->HT); // z|x => x|z
 432              		.loc 1 331 17 is_stmt 0 view .LVU136
 433 0008 D0F8E850 		ldr	r5, [r0, #232]
 434              	.LVL24:
 332:Components/Algorithm/QuaternionEKF.c ****     kf->temp_matrix.numRows = kf->H.numRows;
 435              		.loc 1 332 5 is_stmt 1 view .LVU137
 332:Components/Algorithm/QuaternionEKF.c ****     kf->temp_matrix.numRows = kf->H.numRows;
 436              		.loc 1 332 38 is_stmt 0 view .LVU138
 437 000c 00F17807 		add	r7, r0, #120
 332:Components/Algorithm/QuaternionEKF.c ****     kf->temp_matrix.numRows = kf->H.numRows;
 438              		.loc 1 332 21 view .LVU139
 439 0010 00F1800B 		add	fp, r0, #128
 440 0014 5946     		mov	r1, fp
 441 0016 3846     		mov	r0, r7
 442              	.LVL25:
 332:Components/Algorithm/QuaternionEKF.c ****     kf->temp_matrix.numRows = kf->H.numRows;
 443              		.loc 1 332 21 view .LVU140
 444 0018 FFF7FEFF 		bl	arm_mat_trans_f32
 445              	.LVL26:
 332:Components/Algorithm/QuaternionEKF.c ****     kf->temp_matrix.numRows = kf->H.numRows;
 446              		.loc 1 332 19 view .LVU141
 447 001c 84F8C800 		strb	r0, [r4, #200]
 333:Components/Algorithm/QuaternionEKF.c ****     kf->temp_matrix.numCols = kf->Pminus.numCols;
 448              		.loc 1 333 5 is_stmt 1 view .LVU142
 333:Components/Algorithm/QuaternionEKF.c ****     kf->temp_matrix.numCols = kf->Pminus.numCols;
 449              		.loc 1 333 36 is_stmt 0 view .LVU143
 450 0020 B4F87830 		ldrh	r3, [r4, #120]
 333:Components/Algorithm/QuaternionEKF.c ****     kf->temp_matrix.numCols = kf->Pminus.numCols;
 451              		.loc 1 333 29 view .LVU144
 452 0024 A4F8A830 		strh	r3, [r4, #168]	@ movhi
 334:Components/Algorithm/QuaternionEKF.c ****     kf->MatStatus = Matrix_Multiply(&kf->H, &kf->Pminus, &kf->temp_matrix); // temp_matrix = H¬∑P'(
 453              		.loc 1 334 5 is_stmt 1 view .LVU145
 334:Components/Algorithm/QuaternionEKF.c ****     kf->MatStatus = Matrix_Multiply(&kf->H, &kf->Pminus, &kf->temp_matrix); // temp_matrix = H¬∑P'(
 454              		.loc 1 334 41 is_stmt 0 view .LVU146
 455 0028 B4F85A30 		ldrh	r3, [r4, #90]
 334:Components/Algorithm/QuaternionEKF.c ****     kf->MatStatus = Matrix_Multiply(&kf->H, &kf->Pminus, &kf->temp_matrix); // temp_matrix = H¬∑P'(
 456              		.loc 1 334 29 view .LVU147
 457 002c A4F8AA30 		strh	r3, [r4, #170]	@ movhi
 335:Components/Algorithm/QuaternionEKF.c ****     kf->temp_matrix1.numRows = kf->temp_matrix.numRows;
 458              		.loc 1 335 5 is_stmt 1 view .LVU148
 335:Components/Algorithm/QuaternionEKF.c ****     kf->temp_matrix1.numRows = kf->temp_matrix.numRows;
 459              		.loc 1 335 45 is_stmt 0 view .LVU149
 460 0030 04F15803 		add	r3, r4, #88
 461 0034 0193     		str	r3, [sp, #4]
 335:Components/Algorithm/QuaternionEKF.c ****     kf->temp_matrix1.numRows = kf->temp_matrix.numRows;
ARM GAS  C:\Users\86152\AppData\Local\Temp\ccw7UxVh.s 			page 20


 462              		.loc 1 335 21 view .LVU150
 463 0036 04F1A806 		add	r6, r4, #168
 464 003a 3246     		mov	r2, r6
 465 003c 1946     		mov	r1, r3
 466 003e 3846     		mov	r0, r7
 467 0040 FFF7FEFF 		bl	arm_mat_mult_f32
 468              	.LVL27:
 335:Components/Algorithm/QuaternionEKF.c ****     kf->temp_matrix1.numRows = kf->temp_matrix.numRows;
 469              		.loc 1 335 19 view .LVU151
 470 0044 84F8C800 		strb	r0, [r4, #200]
 336:Components/Algorithm/QuaternionEKF.c ****     kf->temp_matrix1.numCols = kf->HT.numCols;
 471              		.loc 1 336 5 is_stmt 1 view .LVU152
 336:Components/Algorithm/QuaternionEKF.c ****     kf->temp_matrix1.numCols = kf->HT.numCols;
 472              		.loc 1 336 47 is_stmt 0 view .LVU153
 473 0048 B4F8A830 		ldrh	r3, [r4, #168]
 336:Components/Algorithm/QuaternionEKF.c ****     kf->temp_matrix1.numCols = kf->HT.numCols;
 474              		.loc 1 336 30 view .LVU154
 475 004c A4F8B030 		strh	r3, [r4, #176]	@ movhi
 337:Components/Algorithm/QuaternionEKF.c ****     kf->MatStatus = Matrix_Multiply(&kf->temp_matrix, &kf->HT, &kf->temp_matrix1); // temp_matrix1 
 476              		.loc 1 337 5 is_stmt 1 view .LVU155
 337:Components/Algorithm/QuaternionEKF.c ****     kf->MatStatus = Matrix_Multiply(&kf->temp_matrix, &kf->HT, &kf->temp_matrix1); // temp_matrix1 
 477              		.loc 1 337 38 is_stmt 0 view .LVU156
 478 0050 B4F88230 		ldrh	r3, [r4, #130]
 337:Components/Algorithm/QuaternionEKF.c ****     kf->MatStatus = Matrix_Multiply(&kf->temp_matrix, &kf->HT, &kf->temp_matrix1); // temp_matrix1 
 479              		.loc 1 337 30 view .LVU157
 480 0054 A4F8B230 		strh	r3, [r4, #178]	@ movhi
 338:Components/Algorithm/QuaternionEKF.c ****     kf->S.numRows = kf->R.numRows;
 481              		.loc 1 338 5 is_stmt 1 view .LVU158
 338:Components/Algorithm/QuaternionEKF.c ****     kf->S.numRows = kf->R.numRows;
 482              		.loc 1 338 21 is_stmt 0 view .LVU159
 483 0058 04F1B007 		add	r7, r4, #176
 484 005c 3A46     		mov	r2, r7
 485 005e 5946     		mov	r1, fp
 486 0060 3046     		mov	r0, r6
 487 0062 FFF7FEFF 		bl	arm_mat_mult_f32
 488              	.LVL28:
 338:Components/Algorithm/QuaternionEKF.c ****     kf->S.numRows = kf->R.numRows;
 489              		.loc 1 338 19 view .LVU160
 490 0066 84F8C800 		strb	r0, [r4, #200]
 339:Components/Algorithm/QuaternionEKF.c ****     kf->S.numCols = kf->R.numCols;
 491              		.loc 1 339 5 is_stmt 1 view .LVU161
 339:Components/Algorithm/QuaternionEKF.c ****     kf->S.numCols = kf->R.numCols;
 492              		.loc 1 339 26 is_stmt 0 view .LVU162
 493 006a B4F89030 		ldrh	r3, [r4, #144]
 339:Components/Algorithm/QuaternionEKF.c ****     kf->S.numCols = kf->R.numCols;
 494              		.loc 1 339 19 view .LVU163
 495 006e A4F8A030 		strh	r3, [r4, #160]	@ movhi
 340:Components/Algorithm/QuaternionEKF.c ****     kf->MatStatus = Matrix_Add(&kf->temp_matrix1, &kf->R, &kf->S); // S = H P'(k) HT + R
 496              		.loc 1 340 5 is_stmt 1 view .LVU164
 340:Components/Algorithm/QuaternionEKF.c ****     kf->MatStatus = Matrix_Add(&kf->temp_matrix1, &kf->R, &kf->S); // S = H P'(k) HT + R
 497              		.loc 1 340 26 is_stmt 0 view .LVU165
 498 0072 B4F89230 		ldrh	r3, [r4, #146]
 340:Components/Algorithm/QuaternionEKF.c ****     kf->MatStatus = Matrix_Add(&kf->temp_matrix1, &kf->R, &kf->S); // S = H P'(k) HT + R
 499              		.loc 1 340 19 view .LVU166
 500 0076 A4F8A230 		strh	r3, [r4, #162]	@ movhi
 341:Components/Algorithm/QuaternionEKF.c ****     kf->MatStatus = Matrix_Inverse(&kf->S, &kf->temp_matrix1);     // temp_matrix1 = inv(H¬∑P'(k)¬∑
 501              		.loc 1 341 5 is_stmt 1 view .LVU167
ARM GAS  C:\Users\86152\AppData\Local\Temp\ccw7UxVh.s 			page 21


 341:Components/Algorithm/QuaternionEKF.c ****     kf->MatStatus = Matrix_Inverse(&kf->S, &kf->temp_matrix1);     // temp_matrix1 = inv(H¬∑P'(k)¬∑
 502              		.loc 1 341 21 is_stmt 0 view .LVU168
 503 007a 04F1A008 		add	r8, r4, #160
 504 007e 4246     		mov	r2, r8
 505 0080 04F19001 		add	r1, r4, #144
 506 0084 3846     		mov	r0, r7
 507 0086 FFF7FEFF 		bl	arm_mat_add_f32
 508              	.LVL29:
 341:Components/Algorithm/QuaternionEKF.c ****     kf->MatStatus = Matrix_Inverse(&kf->S, &kf->temp_matrix1);     // temp_matrix1 = inv(H¬∑P'(k)¬∑
 509              		.loc 1 341 19 view .LVU169
 510 008a 84F8C800 		strb	r0, [r4, #200]
 342:Components/Algorithm/QuaternionEKF.c **** 
 511              		.loc 1 342 5 is_stmt 1 view .LVU170
 342:Components/Algorithm/QuaternionEKF.c **** 
 512              		.loc 1 342 21 is_stmt 0 view .LVU171
 513 008e 3946     		mov	r1, r7
 514 0090 4046     		mov	r0, r8
 515 0092 FFF7FEFF 		bl	arm_mat_inverse_f32
 516              	.LVL30:
 342:Components/Algorithm/QuaternionEKF.c **** 
 517              		.loc 1 342 19 view .LVU172
 518 0096 84F8C800 		strb	r0, [r4, #200]
 344:Components/Algorithm/QuaternionEKF.c ****     q1 = kf->xhatminus_data[1];
 519              		.loc 1 344 5 is_stmt 1 view .LVU173
 344:Components/Algorithm/QuaternionEKF.c ****     q1 = kf->xhatminus_data[1];
 520              		.loc 1 344 12 is_stmt 0 view .LVU174
 521 009a D4F8F030 		ldr	r3, [r4, #240]
 344:Components/Algorithm/QuaternionEKF.c ****     q1 = kf->xhatminus_data[1];
 522              		.loc 1 344 28 view .LVU175
 523 009e D3ED007A 		vldr.32	s15, [r3]
 344:Components/Algorithm/QuaternionEKF.c ****     q1 = kf->xhatminus_data[1];
 524              		.loc 1 344 8 view .LVU176
 525 00a2 D44A     		ldr	r2, .L57
 526 00a4 C2ED007A 		vstr.32	s15, [r2]
 345:Components/Algorithm/QuaternionEKF.c ****     q2 = kf->xhatminus_data[2];
 527              		.loc 1 345 5 is_stmt 1 view .LVU177
 345:Components/Algorithm/QuaternionEKF.c ****     q2 = kf->xhatminus_data[2];
 528              		.loc 1 345 8 is_stmt 0 view .LVU178
 529 00a8 93ED016A 		vldr.32	s12, [r3, #4]
 530 00ac D24A     		ldr	r2, .L57+4
 531 00ae 82ED006A 		vstr.32	s12, [r2]
 346:Components/Algorithm/QuaternionEKF.c ****     q3 = kf->xhatminus_data[3];
 532              		.loc 1 346 5 is_stmt 1 view .LVU179
 346:Components/Algorithm/QuaternionEKF.c ****     q3 = kf->xhatminus_data[3];
 533              		.loc 1 346 8 is_stmt 0 view .LVU180
 534 00b2 D3ED026A 		vldr.32	s13, [r3, #8]
 535 00b6 D14A     		ldr	r2, .L57+8
 536 00b8 C2ED006A 		vstr.32	s13, [r2]
 347:Components/Algorithm/QuaternionEKF.c **** 
 537              		.loc 1 347 5 is_stmt 1 view .LVU181
 347:Components/Algorithm/QuaternionEKF.c **** 
 538              		.loc 1 347 8 is_stmt 0 view .LVU182
 539 00bc 93ED037A 		vldr.32	s14, [r3, #12]
 540 00c0 CF4B     		ldr	r3, .L57+12
 541 00c2 83ED007A 		vstr.32	s14, [r3]
 349:Components/Algorithm/QuaternionEKF.c ****     kf->temp_vector.numCols = 1;
 542              		.loc 1 349 5 is_stmt 1 view .LVU183
ARM GAS  C:\Users\86152\AppData\Local\Temp\ccw7UxVh.s 			page 22


 349:Components/Algorithm/QuaternionEKF.c ****     kf->temp_vector.numCols = 1;
 543              		.loc 1 349 36 is_stmt 0 view .LVU184
 544 00c6 B4F87830 		ldrh	r3, [r4, #120]
 349:Components/Algorithm/QuaternionEKF.c ****     kf->temp_vector.numCols = 1;
 545              		.loc 1 349 29 view .LVU185
 546 00ca A4F8B830 		strh	r3, [r4, #184]	@ movhi
 350:Components/Algorithm/QuaternionEKF.c ****     // ËÆ°ÁÆóÈ¢ÑÊµãÂæóÂà∞ÁöÑÈáçÂäõÂä†ÈÄüÂ∫¶ÊñπÂêë(ÈÄöËøáÂßøÊÄÅËé∑ÂèñÁöÑ)
 547              		.loc 1 350 5 is_stmt 1 view .LVU186
 350:Components/Algorithm/QuaternionEKF.c ****     // ËÆ°ÁÆóÈ¢ÑÊµãÂæóÂà∞ÁöÑÈáçÂäõÂä†ÈÄüÂ∫¶ÊñπÂêë(ÈÄöËøáÂßøÊÄÅËé∑ÂèñÁöÑ)
 548              		.loc 1 350 29 is_stmt 0 view .LVU187
 549 00ce 0123     		movs	r3, #1
 550 00d0 A4F8BA30 		strh	r3, [r4, #186]	@ movhi
 352:Components/Algorithm/QuaternionEKF.c ****     kf->temp_vector_data[1] = 2 * (q0 * q1 + q2 * q3);
 551              		.loc 1 352 5 is_stmt 1 view .LVU188
 352:Components/Algorithm/QuaternionEKF.c ****     kf->temp_vector_data[1] = 2 * (q0 * q1 + q2 * q3);
 552              		.loc 1 352 39 is_stmt 0 view .LVU189
 553 00d4 66EE075A 		vmul.f32	s11, s12, s14
 352:Components/Algorithm/QuaternionEKF.c ****     kf->temp_vector_data[1] = 2 * (q0 * q1 + q2 * q3);
 554              		.loc 1 352 49 view .LVU190
 555 00d8 27EEA65A 		vmul.f32	s10, s15, s13
 352:Components/Algorithm/QuaternionEKF.c ****     kf->temp_vector_data[1] = 2 * (q0 * q1 + q2 * q3);
 556              		.loc 1 352 44 view .LVU191
 557 00dc 75EEC55A 		vsub.f32	s11, s11, s10
 352:Components/Algorithm/QuaternionEKF.c ****     kf->temp_vector_data[1] = 2 * (q0 * q1 + q2 * q3);
 558              		.loc 1 352 7 view .LVU192
 559 00e0 D4F83031 		ldr	r3, [r4, #304]
 352:Components/Algorithm/QuaternionEKF.c ****     kf->temp_vector_data[1] = 2 * (q0 * q1 + q2 * q3);
 560              		.loc 1 352 33 view .LVU193
 561 00e4 75EEA55A 		vadd.f32	s11, s11, s11
 352:Components/Algorithm/QuaternionEKF.c ****     kf->temp_vector_data[1] = 2 * (q0 * q1 + q2 * q3);
 562              		.loc 1 352 29 view .LVU194
 563 00e8 C3ED005A 		vstr.32	s11, [r3]
 353:Components/Algorithm/QuaternionEKF.c ****     kf->temp_vector_data[2] = q0 * q0 - q1 * q1 - q2 * q2 + q3 * q3; // temp_vector = h(xhat'(k))
 564              		.loc 1 353 5 is_stmt 1 view .LVU195
 353:Components/Algorithm/QuaternionEKF.c ****     kf->temp_vector_data[2] = q0 * q0 - q1 * q1 - q2 * q2 + q3 * q3; // temp_vector = h(xhat'(k))
 565              		.loc 1 353 39 is_stmt 0 view .LVU196
 566 00ec 67EE865A 		vmul.f32	s11, s15, s12
 353:Components/Algorithm/QuaternionEKF.c ****     kf->temp_vector_data[2] = q0 * q0 - q1 * q1 - q2 * q2 + q3 * q3; // temp_vector = h(xhat'(k))
 567              		.loc 1 353 49 view .LVU197
 568 00f0 26EE875A 		vmul.f32	s10, s13, s14
 353:Components/Algorithm/QuaternionEKF.c ****     kf->temp_vector_data[2] = q0 * q0 - q1 * q1 - q2 * q2 + q3 * q3; // temp_vector = h(xhat'(k))
 569              		.loc 1 353 44 view .LVU198
 570 00f4 75EE855A 		vadd.f32	s11, s11, s10
 353:Components/Algorithm/QuaternionEKF.c ****     kf->temp_vector_data[2] = q0 * q0 - q1 * q1 - q2 * q2 + q3 * q3; // temp_vector = h(xhat'(k))
 571              		.loc 1 353 7 view .LVU199
 572 00f8 D4F83031 		ldr	r3, [r4, #304]
 353:Components/Algorithm/QuaternionEKF.c ****     kf->temp_vector_data[2] = q0 * q0 - q1 * q1 - q2 * q2 + q3 * q3; // temp_vector = h(xhat'(k))
 573              		.loc 1 353 33 view .LVU200
 574 00fc 75EEA55A 		vadd.f32	s11, s11, s11
 353:Components/Algorithm/QuaternionEKF.c ****     kf->temp_vector_data[2] = q0 * q0 - q1 * q1 - q2 * q2 + q3 * q3; // temp_vector = h(xhat'(k))
 575              		.loc 1 353 29 view .LVU201
 576 0100 C3ED015A 		vstr.32	s11, [r3, #4]
 354:Components/Algorithm/QuaternionEKF.c **** 
 577              		.loc 1 354 5 is_stmt 1 view .LVU202
 354:Components/Algorithm/QuaternionEKF.c **** 
 578              		.loc 1 354 34 is_stmt 0 view .LVU203
 579 0104 67EEA77A 		vmul.f32	s15, s15, s15
ARM GAS  C:\Users\86152\AppData\Local\Temp\ccw7UxVh.s 			page 23


 354:Components/Algorithm/QuaternionEKF.c **** 
 580              		.loc 1 354 44 view .LVU204
 581 0108 26EE066A 		vmul.f32	s12, s12, s12
 354:Components/Algorithm/QuaternionEKF.c **** 
 582              		.loc 1 354 39 view .LVU205
 583 010c 77EEC67A 		vsub.f32	s15, s15, s12
 354:Components/Algorithm/QuaternionEKF.c **** 
 584              		.loc 1 354 54 view .LVU206
 585 0110 66EEA66A 		vmul.f32	s13, s13, s13
 354:Components/Algorithm/QuaternionEKF.c **** 
 586              		.loc 1 354 49 view .LVU207
 587 0114 77EEE67A 		vsub.f32	s15, s15, s13
 354:Components/Algorithm/QuaternionEKF.c **** 
 588              		.loc 1 354 64 view .LVU208
 589 0118 27EE077A 		vmul.f32	s14, s14, s14
 354:Components/Algorithm/QuaternionEKF.c **** 
 590              		.loc 1 354 7 view .LVU209
 591 011c D4F83031 		ldr	r3, [r4, #304]
 354:Components/Algorithm/QuaternionEKF.c **** 
 592              		.loc 1 354 59 view .LVU210
 593 0120 77EE877A 		vadd.f32	s15, s15, s14
 354:Components/Algorithm/QuaternionEKF.c **** 
 594              		.loc 1 354 29 view .LVU211
 595 0124 C3ED027A 		vstr.32	s15, [r3, #8]
 357:Components/Algorithm/QuaternionEKF.c ****     {
 596              		.loc 1 357 5 is_stmt 1 view .LVU212
 597              	.LBB3:
 357:Components/Algorithm/QuaternionEKF.c ****     {
 598              		.loc 1 357 10 view .LVU213
 599              	.LVL31:
 357:Components/Algorithm/QuaternionEKF.c ****     {
 600              		.loc 1 357 18 is_stmt 0 view .LVU214
 601 0128 4FF00008 		mov	r8, #0
 357:Components/Algorithm/QuaternionEKF.c ****     {
 602              		.loc 1 357 5 view .LVU215
 603 012c 13E0     		b	.L21
 604              	.LVL32:
 605              	.L22:
 359:Components/Algorithm/QuaternionEKF.c ****     }
 606              		.loc 1 359 9 is_stmt 1 discriminator 3 view .LVU216
 359:Components/Algorithm/QuaternionEKF.c ****     }
 607              		.loc 1 359 56 is_stmt 0 discriminator 3 view .LVU217
 608 012e D4F83031 		ldr	r3, [r4, #304]
 359:Components/Algorithm/QuaternionEKF.c ****     }
 609              		.loc 1 359 74 discriminator 3 view .LVU218
 610 0132 03EB8803 		add	r3, r3, r8, lsl #2
 611 0136 93ED000A 		vldr.32	s0, [r3]
 359:Components/Algorithm/QuaternionEKF.c ****     }
 612              		.loc 1 359 42 discriminator 3 view .LVU219
 613 013a B0EEC00A 		vabs.f32	s0, s0
 614 013e FFF7FEFF 		bl	acosf
 615              	.LVL33:
 359:Components/Algorithm/QuaternionEKF.c ****     }
 616              		.loc 1 359 40 discriminator 3 view .LVU220
 617 0142 08F16003 		add	r3, r8, #96
 618 0146 05EB8303 		add	r3, r5, r3, lsl #2
 619 014a 83ED010A 		vstr.32	s0, [r3, #4]
ARM GAS  C:\Users\86152\AppData\Local\Temp\ccw7UxVh.s 			page 24


 357:Components/Algorithm/QuaternionEKF.c ****     {
 620              		.loc 1 357 32 is_stmt 1 discriminator 3 view .LVU221
 357:Components/Algorithm/QuaternionEKF.c ****     {
 621              		.loc 1 357 33 is_stmt 0 discriminator 3 view .LVU222
 622 014e 08F10108 		add	r8, r8, #1
 623              	.LVL34:
 357:Components/Algorithm/QuaternionEKF.c ****     {
 624              		.loc 1 357 33 discriminator 3 view .LVU223
 625 0152 5FFA88F8 		uxtb	r8, r8
 626              	.LVL35:
 627              	.L21:
 357:Components/Algorithm/QuaternionEKF.c ****     {
 628              		.loc 1 357 25 is_stmt 1 discriminator 1 view .LVU224
 357:Components/Algorithm/QuaternionEKF.c ****     {
 629              		.loc 1 357 5 is_stmt 0 discriminator 1 view .LVU225
 630 0156 B8F1020F 		cmp	r8, #2
 631 015a E8D9     		bls	.L22
 632              	.LBE3:
 363:Components/Algorithm/QuaternionEKF.c ****     kf->temp_vector1.numCols = 1;
 633              		.loc 1 363 5 is_stmt 1 view .LVU226
 363:Components/Algorithm/QuaternionEKF.c ****     kf->temp_vector1.numCols = 1;
 634              		.loc 1 363 37 is_stmt 0 view .LVU227
 635 015c B4F84830 		ldrh	r3, [r4, #72]
 363:Components/Algorithm/QuaternionEKF.c ****     kf->temp_vector1.numCols = 1;
 636              		.loc 1 363 30 view .LVU228
 637 0160 A4F8C030 		strh	r3, [r4, #192]	@ movhi
 364:Components/Algorithm/QuaternionEKF.c ****     kf->MatStatus = Matrix_Subtract(&kf->z, &kf->temp_vector, &kf->temp_vector1); // temp_vector1 =
 638              		.loc 1 364 5 is_stmt 1 view .LVU229
 364:Components/Algorithm/QuaternionEKF.c ****     kf->MatStatus = Matrix_Subtract(&kf->z, &kf->temp_vector, &kf->temp_vector1); // temp_vector1 =
 639              		.loc 1 364 30 is_stmt 0 view .LVU230
 640 0164 4FF0010A 		mov	r10, #1
 641 0168 A4F8C2A0 		strh	r10, [r4, #194]	@ movhi
 365:Components/Algorithm/QuaternionEKF.c **** 
 642              		.loc 1 365 5 is_stmt 1 view .LVU231
 365:Components/Algorithm/QuaternionEKF.c **** 
 643              		.loc 1 365 45 is_stmt 0 view .LVU232
 644 016c 04F1B808 		add	r8, r4, #184
 645              	.LVL36:
 365:Components/Algorithm/QuaternionEKF.c **** 
 646              		.loc 1 365 21 view .LVU233
 647 0170 04F1C009 		add	r9, r4, #192
 648 0174 4A46     		mov	r2, r9
 649 0176 4146     		mov	r1, r8
 650 0178 04F14800 		add	r0, r4, #72
 651 017c FFF7FEFF 		bl	arm_mat_sub_f32
 652              	.LVL37:
 365:Components/Algorithm/QuaternionEKF.c **** 
 653              		.loc 1 365 19 view .LVU234
 654 0180 84F8C800 		strb	r0, [r4, #200]
 368:Components/Algorithm/QuaternionEKF.c ****     kf->temp_matrix.numCols = 1;
 655              		.loc 1 368 5 is_stmt 1 view .LVU235
 368:Components/Algorithm/QuaternionEKF.c ****     kf->temp_matrix.numCols = 1;
 656              		.loc 1 368 47 is_stmt 0 view .LVU236
 657 0184 B4F8C030 		ldrh	r3, [r4, #192]
 368:Components/Algorithm/QuaternionEKF.c ****     kf->temp_matrix.numCols = 1;
 658              		.loc 1 368 29 view .LVU237
 659 0188 A4F8A830 		strh	r3, [r4, #168]	@ movhi
ARM GAS  C:\Users\86152\AppData\Local\Temp\ccw7UxVh.s 			page 25


 369:Components/Algorithm/QuaternionEKF.c ****     kf->MatStatus = Matrix_Multiply(&kf->temp_matrix1, &kf->temp_vector1, &kf->temp_matrix); // tem
 660              		.loc 1 369 5 is_stmt 1 view .LVU238
 369:Components/Algorithm/QuaternionEKF.c ****     kf->MatStatus = Matrix_Multiply(&kf->temp_matrix1, &kf->temp_vector1, &kf->temp_matrix); // tem
 661              		.loc 1 369 29 is_stmt 0 view .LVU239
 662 018c A4F8AAA0 		strh	r10, [r4, #170]	@ movhi
 370:Components/Algorithm/QuaternionEKF.c ****     kf->temp_vector.numRows = 1;
 663              		.loc 1 370 5 is_stmt 1 view .LVU240
 370:Components/Algorithm/QuaternionEKF.c ****     kf->temp_vector.numRows = 1;
 664              		.loc 1 370 21 is_stmt 0 view .LVU241
 665 0190 3246     		mov	r2, r6
 666 0192 4946     		mov	r1, r9
 667 0194 3846     		mov	r0, r7
 668 0196 FFF7FEFF 		bl	arm_mat_mult_f32
 669              	.LVL38:
 370:Components/Algorithm/QuaternionEKF.c ****     kf->temp_vector.numRows = 1;
 670              		.loc 1 370 19 view .LVU242
 671 019a 84F8C800 		strb	r0, [r4, #200]
 371:Components/Algorithm/QuaternionEKF.c ****     kf->temp_vector.numCols = kf->temp_vector1.numRows;
 672              		.loc 1 371 5 is_stmt 1 view .LVU243
 371:Components/Algorithm/QuaternionEKF.c ****     kf->temp_vector.numCols = kf->temp_vector1.numRows;
 673              		.loc 1 371 29 is_stmt 0 view .LVU244
 674 019e A4F8B8A0 		strh	r10, [r4, #184]	@ movhi
 372:Components/Algorithm/QuaternionEKF.c ****     kf->MatStatus = Matrix_Transpose(&kf->temp_vector1, &kf->temp_vector); // temp_vector = z(k) - 
 675              		.loc 1 372 5 is_stmt 1 view .LVU245
 372:Components/Algorithm/QuaternionEKF.c ****     kf->MatStatus = Matrix_Transpose(&kf->temp_vector1, &kf->temp_vector); // temp_vector = z(k) - 
 676              		.loc 1 372 47 is_stmt 0 view .LVU246
 677 01a2 B4F8C030 		ldrh	r3, [r4, #192]
 372:Components/Algorithm/QuaternionEKF.c ****     kf->MatStatus = Matrix_Transpose(&kf->temp_vector1, &kf->temp_vector); // temp_vector = z(k) - 
 678              		.loc 1 372 29 view .LVU247
 679 01a6 A4F8BA30 		strh	r3, [r4, #186]	@ movhi
 373:Components/Algorithm/QuaternionEKF.c ****     kf->MatStatus = Matrix_Multiply(&kf->temp_vector, &kf->temp_matrix, &qekf_ins->ChiSquare);
 680              		.loc 1 373 5 is_stmt 1 view .LVU248
 373:Components/Algorithm/QuaternionEKF.c ****     kf->MatStatus = Matrix_Multiply(&kf->temp_vector, &kf->temp_matrix, &qekf_ins->ChiSquare);
 681              		.loc 1 373 21 is_stmt 0 view .LVU249
 682 01aa 4146     		mov	r1, r8
 683 01ac 4846     		mov	r0, r9
 684 01ae FFF7FEFF 		bl	arm_mat_trans_f32
 685              	.LVL39:
 373:Components/Algorithm/QuaternionEKF.c ****     kf->MatStatus = Matrix_Multiply(&kf->temp_vector, &kf->temp_matrix, &qekf_ins->ChiSquare);
 686              		.loc 1 373 19 view .LVU250
 687 01b2 84F8C800 		strb	r0, [r4, #200]
 374:Components/Algorithm/QuaternionEKF.c ****     // rk is small,filter converged/converging
 688              		.loc 1 374 5 is_stmt 1 view .LVU251
 374:Components/Algorithm/QuaternionEKF.c ****     // rk is small,filter converged/converging
 689              		.loc 1 374 21 is_stmt 0 view .LVU252
 690 01b6 05F5E072 		add	r2, r5, #448
 691 01ba 3146     		mov	r1, r6
 692 01bc 4046     		mov	r0, r8
 693 01be FFF7FEFF 		bl	arm_mat_mult_f32
 694              	.LVL40:
 374:Components/Algorithm/QuaternionEKF.c ****     // rk is small,filter converged/converging
 695              		.loc 1 374 19 view .LVU253
 696 01c2 84F8C800 		strb	r0, [r4, #200]
 376:Components/Algorithm/QuaternionEKF.c ****     {
 697              		.loc 1 376 5 is_stmt 1 view .LVU254
 376:Components/Algorithm/QuaternionEKF.c ****     {
 698              		.loc 1 376 33 is_stmt 0 view .LVU255
ARM GAS  C:\Users\86152\AppData\Local\Temp\ccw7UxVh.s 			page 26


 699 01c6 95ED727A 		vldr.32	s14, [r5, #456]
 376:Components/Algorithm/QuaternionEKF.c ****     {
 700              		.loc 1 376 54 view .LVU256
 701 01ca D5ED737A 		vldr.32	s15, [r5, #460]
 376:Components/Algorithm/QuaternionEKF.c ****     {
 702              		.loc 1 376 44 view .LVU257
 703 01ce F6EE006A 		vmov.f32	s13, #5.0e-1
 704 01d2 67EEA66A 		vmul.f32	s13, s15, s13
 376:Components/Algorithm/QuaternionEKF.c ****     {
 705              		.loc 1 376 8 view .LVU258
 706 01d6 B4EEE67A 		vcmpe.f32	s14, s13
 707 01da F1EE10FA 		vmrs	APSR_nzcv, FPSCR
 708 01de 01D5     		bpl	.L23
 378:Components/Algorithm/QuaternionEKF.c ****     }
 709              		.loc 1 378 9 is_stmt 1 view .LVU259
 378:Components/Algorithm/QuaternionEKF.c ****     }
 710              		.loc 1 378 32 is_stmt 0 view .LVU260
 711 01e0 85F83CA1 		strb	r10, [r5, #316]
 712              	.L23:
 381:Components/Algorithm/QuaternionEKF.c ****     {
 713              		.loc 1 381 5 is_stmt 1 view .LVU261
 381:Components/Algorithm/QuaternionEKF.c ****     {
 714              		.loc 1 381 8 is_stmt 0 view .LVU262
 715 01e4 B4EEE77A 		vcmpe.f32	s14, s15
 716 01e8 F1EE10FA 		vmrs	APSR_nzcv, FPSCR
 717 01ec 3FDD     		ble	.L25
 381:Components/Algorithm/QuaternionEKF.c ****     {
 718              		.loc 1 381 83 discriminator 1 view .LVU263
 719 01ee 95F83C31 		ldrb	r3, [r5, #316]	@ zero_extendqisi2
 381:Components/Algorithm/QuaternionEKF.c ****     {
 720              		.loc 1 381 72 discriminator 1 view .LVU264
 721 01f2 002B     		cmp	r3, #0
 722 01f4 3BD0     		beq	.L25
 383:Components/Algorithm/QuaternionEKF.c ****         {
 723              		.loc 1 383 9 is_stmt 1 view .LVU265
 383:Components/Algorithm/QuaternionEKF.c ****         {
 724              		.loc 1 383 21 is_stmt 0 view .LVU266
 725 01f6 95F83D31 		ldrb	r3, [r5, #317]	@ zero_extendqisi2
 383:Components/Algorithm/QuaternionEKF.c ****         {
 726              		.loc 1 383 12 view .LVU267
 727 01fa C3B1     		cbz	r3, .L27
 385:Components/Algorithm/QuaternionEKF.c ****         }
 728              		.loc 1 385 13 is_stmt 1 view .LVU268
 385:Components/Algorithm/QuaternionEKF.c ****         }
 729              		.loc 1 385 21 is_stmt 0 view .LVU269
 730 01fc D5F84031 		ldr	r3, [r5, #320]
 731 0200 D5F84421 		ldr	r2, [r5, #324]
 385:Components/Algorithm/QuaternionEKF.c ****         }
 732              		.loc 1 385 33 view .LVU270
 733 0204 0133     		adds	r3, r3, #1
 734 0206 42F10002 		adc	r2, r2, #0
 735 020a C5F84031 		str	r3, [r5, #320]
 736 020e C5F84421 		str	r2, [r5, #324]
 737              	.L28:
 392:Components/Algorithm/QuaternionEKF.c ****         {
 738              		.loc 1 392 9 is_stmt 1 view .LVU271
 392:Components/Algorithm/QuaternionEKF.c ****         {
ARM GAS  C:\Users\86152\AppData\Local\Temp\ccw7UxVh.s 			page 27


 739              		.loc 1 392 21 is_stmt 0 view .LVU272
 740 0212 D5F84021 		ldr	r2, [r5, #320]
 741 0216 D5F84431 		ldr	r3, [r5, #324]
 392:Components/Algorithm/QuaternionEKF.c ****         {
 742              		.loc 1 392 12 view .LVU273
 743 021a 332A     		cmp	r2, #51
 744 021c 73F10003 		sbcs	r3, r3, #0
 745 0220 0AD3     		bcc	.L29
 395:Components/Algorithm/QuaternionEKF.c ****             kf->SkipEq5 = FALSE; // step-5 is cov mat P updating
 746              		.loc 1 395 13 is_stmt 1 view .LVU274
 395:Components/Algorithm/QuaternionEKF.c ****             kf->SkipEq5 = FALSE; // step-5 is cov mat P updating
 747              		.loc 1 395 36 is_stmt 0 view .LVU275
 748 0222 0023     		movs	r3, #0
 749 0224 85F83C31 		strb	r3, [r5, #316]
 396:Components/Algorithm/QuaternionEKF.c ****         }
 750              		.loc 1 396 13 is_stmt 1 view .LVU276
 396:Components/Algorithm/QuaternionEKF.c ****         }
 751              		.loc 1 396 25 is_stmt 0 view .LVU277
 752 0228 84F82C30 		strb	r3, [r4, #44]
 392:Components/Algorithm/QuaternionEKF.c ****         {
 753              		.loc 1 392 12 view .LVU278
 754 022c 41E0     		b	.L30
 755              	.L27:
 389:Components/Algorithm/QuaternionEKF.c ****         }
 756              		.loc 1 389 13 is_stmt 1 view .LVU279
 389:Components/Algorithm/QuaternionEKF.c ****         }
 757              		.loc 1 389 34 is_stmt 0 view .LVU280
 758 022e 0022     		movs	r2, #0
 759 0230 0023     		movs	r3, #0
 760 0232 C5E95023 		strd	r2, [r5, #320]
 761 0236 ECE7     		b	.L28
 762              	.L29:
 403:Components/Algorithm/QuaternionEKF.c ****             memcpy(kf->P_data, kf->Pminus_data, sizeof_float * kf->xhatSize * kf->xhatSize);
 763              		.loc 1 403 13 is_stmt 1 view .LVU281
 403:Components/Algorithm/QuaternionEKF.c ****             memcpy(kf->P_data, kf->Pminus_data, sizeof_float * kf->xhatSize * kf->xhatSize);
 764              		.loc 1 403 72 is_stmt 0 view .LVU282
 765 0238 227B     		ldrb	r2, [r4, #12]	@ zero_extendqisi2
 403:Components/Algorithm/QuaternionEKF.c ****             memcpy(kf->P_data, kf->Pminus_data, sizeof_float * kf->xhatSize * kf->xhatSize);
 766              		.loc 1 403 68 view .LVU283
 767 023a 724D     		ldr	r5, .L57+16
 768              	.LVL41:
 403:Components/Algorithm/QuaternionEKF.c ****             memcpy(kf->P_data, kf->Pminus_data, sizeof_float * kf->xhatSize * kf->xhatSize);
 769              		.loc 1 403 68 view .LVU284
 770 023c 2B88     		ldrh	r3, [r5]
 403:Components/Algorithm/QuaternionEKF.c ****             memcpy(kf->P_data, kf->Pminus_data, sizeof_float * kf->xhatSize * kf->xhatSize);
 771              		.loc 1 403 13 view .LVU285
 772 023e 03FB02F2 		mul	r2, r3, r2
 773 0242 D4F8F010 		ldr	r1, [r4, #240]
 774 0246 D4F8EC00 		ldr	r0, [r4, #236]
 775 024a FFF7FEFF 		bl	memcpy
 776              	.LVL42:
 404:Components/Algorithm/QuaternionEKF.c ****             kf->SkipEq5 = TRUE; // part5 is P updating
 777              		.loc 1 404 13 is_stmt 1 view .LVU286
 404:Components/Algorithm/QuaternionEKF.c ****             kf->SkipEq5 = TRUE; // part5 is P updating
 778              		.loc 1 404 66 is_stmt 0 view .LVU287
 779 024e 227B     		ldrb	r2, [r4, #12]	@ zero_extendqisi2
 404:Components/Algorithm/QuaternionEKF.c ****             kf->SkipEq5 = TRUE; // part5 is P updating
ARM GAS  C:\Users\86152\AppData\Local\Temp\ccw7UxVh.s 			page 28


 780              		.loc 1 404 62 view .LVU288
 781 0250 2B88     		ldrh	r3, [r5]
 782 0252 02FB03F3 		mul	r3, r2, r3
 404:Components/Algorithm/QuaternionEKF.c ****             kf->SkipEq5 = TRUE; // part5 is P updating
 783              		.loc 1 404 13 view .LVU289
 784 0256 03FB02F2 		mul	r2, r3, r2
 785 025a D4F80011 		ldr	r1, [r4, #256]
 786 025e D4F8FC00 		ldr	r0, [r4, #252]
 787 0262 FFF7FEFF 		bl	memcpy
 788              	.LVL43:
 405:Components/Algorithm/QuaternionEKF.c ****             return;
 789              		.loc 1 405 13 is_stmt 1 view .LVU290
 405:Components/Algorithm/QuaternionEKF.c ****             return;
 790              		.loc 1 405 25 is_stmt 0 view .LVU291
 791 0266 0123     		movs	r3, #1
 792 0268 84F82C30 		strb	r3, [r4, #44]
 406:Components/Algorithm/QuaternionEKF.c ****         }
 793              		.loc 1 406 13 is_stmt 1 view .LVU292
 794 026c 92E0     		b	.L20
 795              	.LVL44:
 796              	.L25:
 412:Components/Algorithm/QuaternionEKF.c ****         {
 797              		.loc 1 412 9 view .LVU293
 412:Components/Algorithm/QuaternionEKF.c ****         {
 798              		.loc 1 412 48 is_stmt 0 view .LVU294
 799 026e DFED666A 		vldr.32	s13, .L57+20
 800 0272 67EEA66A 		vmul.f32	s13, s15, s13
 412:Components/Algorithm/QuaternionEKF.c ****         {
 801              		.loc 1 412 12 view .LVU295
 802 0276 B4EEE67A 		vcmpe.f32	s14, s13
 803 027a F1EE10FA 		vmrs	APSR_nzcv, FPSCR
 804 027e 0DDD     		ble	.L32
 412:Components/Algorithm/QuaternionEKF.c ****         {
 805              		.loc 1 412 94 discriminator 1 view .LVU296
 806 0280 95F83C31 		ldrb	r3, [r5, #316]	@ zero_extendqisi2
 412:Components/Algorithm/QuaternionEKF.c ****         {
 807              		.loc 1 412 83 discriminator 1 view .LVU297
 808 0284 53B1     		cbz	r3, .L32
 414:Components/Algorithm/QuaternionEKF.c ****         }
 809              		.loc 1 414 13 is_stmt 1 view .LVU298
 414:Components/Algorithm/QuaternionEKF.c ****         }
 810              		.loc 1 414 77 is_stmt 0 view .LVU299
 811 0286 37EEC77A 		vsub.f32	s14, s15, s14
 414:Components/Algorithm/QuaternionEKF.c ****         }
 812              		.loc 1 414 116 view .LVU300
 813 028a DFED606A 		vldr.32	s13, .L57+24
 814 028e 67EEA67A 		vmul.f32	s15, s15, s13
 414:Components/Algorithm/QuaternionEKF.c ****         }
 815              		.loc 1 414 108 view .LVU301
 816 0292 C7EE276A 		vdiv.f32	s13, s14, s15
 414:Components/Algorithm/QuaternionEKF.c ****         }
 817              		.loc 1 414 41 view .LVU302
 818 0296 C5ED676A 		vstr.32	s13, [r5, #412]
 819 029a 03E0     		b	.L34
 820              	.L32:
 418:Components/Algorithm/QuaternionEKF.c ****         }
 821              		.loc 1 418 13 is_stmt 1 view .LVU303
ARM GAS  C:\Users\86152\AppData\Local\Temp\ccw7UxVh.s 			page 29


 418:Components/Algorithm/QuaternionEKF.c ****         }
 822              		.loc 1 418 41 is_stmt 0 view .LVU304
 823 029c 4FF07E53 		mov	r3, #1065353216
 824 02a0 C5F89C31 		str	r3, [r5, #412]	@ float
 825              	.L34:
 420:Components/Algorithm/QuaternionEKF.c ****         kf->SkipEq5 = FALSE;
 826              		.loc 1 420 9 is_stmt 1 view .LVU305
 420:Components/Algorithm/QuaternionEKF.c ****         kf->SkipEq5 = FALSE;
 827              		.loc 1 420 30 is_stmt 0 view .LVU306
 828 02a4 0022     		movs	r2, #0
 829 02a6 0023     		movs	r3, #0
 830 02a8 C5E95023 		strd	r2, [r5, #320]
 421:Components/Algorithm/QuaternionEKF.c ****     }
 831              		.loc 1 421 9 is_stmt 1 view .LVU307
 421:Components/Algorithm/QuaternionEKF.c ****     }
 832              		.loc 1 421 21 is_stmt 0 view .LVU308
 833 02ac 0023     		movs	r3, #0
 834 02ae 84F82C30 		strb	r3, [r4, #44]
 835              	.L30:
 425:Components/Algorithm/QuaternionEKF.c ****     kf->temp_matrix.numCols = kf->HT.numCols;
 836              		.loc 1 425 5 is_stmt 1 view .LVU309
 425:Components/Algorithm/QuaternionEKF.c ****     kf->temp_matrix.numCols = kf->HT.numCols;
 837              		.loc 1 425 41 is_stmt 0 view .LVU310
 838 02b2 B4F85830 		ldrh	r3, [r4, #88]
 425:Components/Algorithm/QuaternionEKF.c ****     kf->temp_matrix.numCols = kf->HT.numCols;
 839              		.loc 1 425 29 view .LVU311
 840 02b6 A4F8A830 		strh	r3, [r4, #168]	@ movhi
 426:Components/Algorithm/QuaternionEKF.c ****     kf->MatStatus = Matrix_Multiply(&kf->Pminus, &kf->HT, &kf->temp_matrix); // temp_matrix = P'(k)
 841              		.loc 1 426 5 is_stmt 1 view .LVU312
 426:Components/Algorithm/QuaternionEKF.c ****     kf->MatStatus = Matrix_Multiply(&kf->Pminus, &kf->HT, &kf->temp_matrix); // temp_matrix = P'(k)
 842              		.loc 1 426 37 is_stmt 0 view .LVU313
 843 02ba B4F88230 		ldrh	r3, [r4, #130]
 426:Components/Algorithm/QuaternionEKF.c ****     kf->MatStatus = Matrix_Multiply(&kf->Pminus, &kf->HT, &kf->temp_matrix); // temp_matrix = P'(k)
 844              		.loc 1 426 29 view .LVU314
 845 02be A4F8AA30 		strh	r3, [r4, #170]	@ movhi
 427:Components/Algorithm/QuaternionEKF.c ****     kf->MatStatus = Matrix_Multiply(&kf->temp_matrix, &kf->temp_matrix1, &kf->K);
 846              		.loc 1 427 5 is_stmt 1 view .LVU315
 427:Components/Algorithm/QuaternionEKF.c ****     kf->MatStatus = Matrix_Multiply(&kf->temp_matrix, &kf->temp_matrix1, &kf->K);
 847              		.loc 1 427 21 is_stmt 0 view .LVU316
 848 02c2 3246     		mov	r2, r6
 849 02c4 5946     		mov	r1, fp
 850 02c6 0198     		ldr	r0, [sp, #4]
 851 02c8 FFF7FEFF 		bl	arm_mat_mult_f32
 852              	.LVL45:
 427:Components/Algorithm/QuaternionEKF.c ****     kf->MatStatus = Matrix_Multiply(&kf->temp_matrix, &kf->temp_matrix1, &kf->K);
 853              		.loc 1 427 19 view .LVU317
 854 02cc 84F8C800 		strb	r0, [r4, #200]
 428:Components/Algorithm/QuaternionEKF.c **** 
 855              		.loc 1 428 5 is_stmt 1 view .LVU318
 428:Components/Algorithm/QuaternionEKF.c **** 
 856              		.loc 1 428 21 is_stmt 0 view .LVU319
 857 02d0 04F1980A 		add	r10, r4, #152
 858 02d4 5246     		mov	r2, r10
 859 02d6 3946     		mov	r1, r7
 860 02d8 3046     		mov	r0, r6
 861 02da FFF7FEFF 		bl	arm_mat_mult_f32
 862              	.LVL46:
ARM GAS  C:\Users\86152\AppData\Local\Temp\ccw7UxVh.s 			page 30


 428:Components/Algorithm/QuaternionEKF.c **** 
 863              		.loc 1 428 19 view .LVU320
 864 02de 84F8C800 		strb	r0, [r4, #200]
 431:Components/Algorithm/QuaternionEKF.c ****     {
 865              		.loc 1 431 5 is_stmt 1 view .LVU321
 866              	.LBB4:
 431:Components/Algorithm/QuaternionEKF.c ****     {
 867              		.loc 1 431 10 view .LVU322
 868              	.LVL47:
 431:Components/Algorithm/QuaternionEKF.c ****     {
 869              		.loc 1 431 18 is_stmt 0 view .LVU323
 870 02e2 0023     		movs	r3, #0
 431:Components/Algorithm/QuaternionEKF.c ****     {
 871              		.loc 1 431 5 view .LVU324
 872 02e4 0DE0     		b	.L35
 873              	.LVL48:
 874              	.L36:
 433:Components/Algorithm/QuaternionEKF.c ****     }
 875              		.loc 1 433 9 is_stmt 1 discriminator 3 view .LVU325
 433:Components/Algorithm/QuaternionEKF.c ****     }
 876              		.loc 1 433 11 is_stmt 0 discriminator 3 view .LVU326
 877 02e6 D4F82021 		ldr	r2, [r4, #288]
 433:Components/Algorithm/QuaternionEKF.c ****     }
 878              		.loc 1 433 23 discriminator 3 view .LVU327
 879 02ea 02EB8302 		add	r2, r2, r3, lsl #2
 433:Components/Algorithm/QuaternionEKF.c ****     }
 880              		.loc 1 433 34 discriminator 3 view .LVU328
 881 02ee 95ED677A 		vldr.32	s14, [r5, #412]
 433:Components/Algorithm/QuaternionEKF.c ****     }
 882              		.loc 1 433 23 discriminator 3 view .LVU329
 883 02f2 D2ED007A 		vldr.32	s15, [r2]
 884 02f6 67EE877A 		vmul.f32	s15, s15, s14
 885 02fa C2ED007A 		vstr.32	s15, [r2]
 431:Components/Algorithm/QuaternionEKF.c ****     {
 886              		.loc 1 431 60 is_stmt 1 discriminator 3 view .LVU330
 431:Components/Algorithm/QuaternionEKF.c ****     {
 887              		.loc 1 431 61 is_stmt 0 discriminator 3 view .LVU331
 888 02fe 0133     		adds	r3, r3, #1
 889              	.LVL49:
 431:Components/Algorithm/QuaternionEKF.c ****     {
 890              		.loc 1 431 61 discriminator 3 view .LVU332
 891 0300 DBB2     		uxtb	r3, r3
 892              	.LVL50:
 893              	.L35:
 431:Components/Algorithm/QuaternionEKF.c ****     {
 894              		.loc 1 431 25 is_stmt 1 discriminator 1 view .LVU333
 431:Components/Algorithm/QuaternionEKF.c ****     {
 895              		.loc 1 431 34 is_stmt 0 discriminator 1 view .LVU334
 896 0302 B4F89820 		ldrh	r2, [r4, #152]
 431:Components/Algorithm/QuaternionEKF.c ****     {
 897              		.loc 1 431 50 discriminator 1 view .LVU335
 898 0306 B4F89A10 		ldrh	r1, [r4, #154]
 431:Components/Algorithm/QuaternionEKF.c ****     {
 899              		.loc 1 431 43 discriminator 1 view .LVU336
 900 030a 01FB02F2 		mul	r2, r1, r2
 431:Components/Algorithm/QuaternionEKF.c ****     {
 901              		.loc 1 431 5 discriminator 1 view .LVU337
ARM GAS  C:\Users\86152\AppData\Local\Temp\ccw7UxVh.s 			page 31


 902 030e 9342     		cmp	r3, r2
 903 0310 E9DB     		blt	.L36
 904              	.LBE4:
 905              	.LBB5:
 435:Components/Algorithm/QuaternionEKF.c ****     {
 906              		.loc 1 435 18 view .LVU338
 907 0312 0422     		movs	r2, #4
 908 0314 01E0     		b	.L37
 909              	.LVL51:
 910              	.L56:
 435:Components/Algorithm/QuaternionEKF.c ****     {
 911              		.loc 1 435 32 is_stmt 1 discriminator 2 view .LVU339
 435:Components/Algorithm/QuaternionEKF.c ****     {
 912              		.loc 1 435 33 is_stmt 0 discriminator 2 view .LVU340
 913 0316 0132     		adds	r2, r2, #1
 914              	.LVL52:
 435:Components/Algorithm/QuaternionEKF.c ****     {
 915              		.loc 1 435 33 discriminator 2 view .LVU341
 916 0318 D2B2     		uxtb	r2, r2
 917              	.LVL53:
 918              	.L37:
 435:Components/Algorithm/QuaternionEKF.c ****     {
 919              		.loc 1 435 25 is_stmt 1 discriminator 1 view .LVU342
 435:Components/Algorithm/QuaternionEKF.c ****     {
 920              		.loc 1 435 5 is_stmt 0 discriminator 1 view .LVU343
 921 031a 052A     		cmp	r2, #5
 922 031c 1CD8     		bhi	.L55
 923              	.LBB6:
 437:Components/Algorithm/QuaternionEKF.c ****         {
 924              		.loc 1 437 22 view .LVU344
 925 031e 0023     		movs	r3, #0
 926              	.L39:
 927              	.LVL54:
 437:Components/Algorithm/QuaternionEKF.c ****         {
 928              		.loc 1 437 29 is_stmt 1 discriminator 1 view .LVU345
 437:Components/Algorithm/QuaternionEKF.c ****         {
 929              		.loc 1 437 9 is_stmt 0 discriminator 1 view .LVU346
 930 0320 022B     		cmp	r3, #2
 931 0322 F8D8     		bhi	.L56
 439:Components/Algorithm/QuaternionEKF.c ****         }
 932              		.loc 1 439 13 is_stmt 1 discriminator 3 view .LVU347
 439:Components/Algorithm/QuaternionEKF.c ****         }
 933              		.loc 1 439 15 is_stmt 0 discriminator 3 view .LVU348
 934 0324 D4F82011 		ldr	r1, [r4, #288]
 439:Components/Algorithm/QuaternionEKF.c ****         }
 935              		.loc 1 439 35 discriminator 3 view .LVU349
 936 0328 02EB4200 		add	r0, r2, r2, lsl #1
 937 032c 1844     		add	r0, r0, r3
 938 032e 01EB8001 		add	r1, r1, r0, lsl #2
 439:Components/Algorithm/QuaternionEKF.c ****         }
 939              		.loc 1 439 65 discriminator 3 view .LVU350
 940 0332 02F15C00 		add	r0, r2, #92
 941 0336 05EB8000 		add	r0, r5, r0, lsl #2
 942 033a D0ED016A 		vldr.32	s13, [r0, #4]
 439:Components/Algorithm/QuaternionEKF.c ****         }
 943              		.loc 1 439 73 discriminator 3 view .LVU351
 944 033e DFED347A 		vldr.32	s15, .L57+28
ARM GAS  C:\Users\86152\AppData\Local\Temp\ccw7UxVh.s 			page 32


 945 0342 86EEA77A 		vdiv.f32	s14, s13, s15
 439:Components/Algorithm/QuaternionEKF.c ****         }
 946              		.loc 1 439 35 discriminator 3 view .LVU352
 947 0346 D1ED007A 		vldr.32	s15, [r1]
 948 034a 67EE877A 		vmul.f32	s15, s15, s14
 949 034e C1ED007A 		vstr.32	s15, [r1]
 437:Components/Algorithm/QuaternionEKF.c ****         {
 950              		.loc 1 437 36 is_stmt 1 discriminator 3 view .LVU353
 437:Components/Algorithm/QuaternionEKF.c ****         {
 951              		.loc 1 437 37 is_stmt 0 discriminator 3 view .LVU354
 952 0352 0133     		adds	r3, r3, #1
 953              	.LVL55:
 437:Components/Algorithm/QuaternionEKF.c ****         {
 954              		.loc 1 437 37 discriminator 3 view .LVU355
 955 0354 DBB2     		uxtb	r3, r3
 956              	.LVL56:
 437:Components/Algorithm/QuaternionEKF.c ****         {
 957              		.loc 1 437 37 discriminator 3 view .LVU356
 958 0356 E3E7     		b	.L39
 959              	.LVL57:
 960              	.L55:
 437:Components/Algorithm/QuaternionEKF.c ****         {
 961              		.loc 1 437 37 discriminator 3 view .LVU357
 962              	.LBE6:
 963              	.LBE5:
 443:Components/Algorithm/QuaternionEKF.c ****     kf->temp_vector.numCols = 1;
 964              		.loc 1 443 5 is_stmt 1 view .LVU358
 443:Components/Algorithm/QuaternionEKF.c ****     kf->temp_vector.numCols = 1;
 965              		.loc 1 443 36 is_stmt 0 view .LVU359
 966 0358 B4F89830 		ldrh	r3, [r4, #152]
 443:Components/Algorithm/QuaternionEKF.c ****     kf->temp_vector.numCols = 1;
 967              		.loc 1 443 29 view .LVU360
 968 035c A4F8B830 		strh	r3, [r4, #184]	@ movhi
 444:Components/Algorithm/QuaternionEKF.c ****     kf->MatStatus = Matrix_Multiply(&kf->K, &kf->temp_vector1, &kf->temp_vector); // temp_vector = 
 969              		.loc 1 444 5 is_stmt 1 view .LVU361
 444:Components/Algorithm/QuaternionEKF.c ****     kf->MatStatus = Matrix_Multiply(&kf->K, &kf->temp_vector1, &kf->temp_vector); // temp_vector = 
 970              		.loc 1 444 29 is_stmt 0 view .LVU362
 971 0360 0123     		movs	r3, #1
 972 0362 A4F8BA30 		strh	r3, [r4, #186]	@ movhi
 445:Components/Algorithm/QuaternionEKF.c **** 
 973              		.loc 1 445 5 is_stmt 1 view .LVU363
 445:Components/Algorithm/QuaternionEKF.c **** 
 974              		.loc 1 445 21 is_stmt 0 view .LVU364
 975 0366 4246     		mov	r2, r8
 976              	.LVL58:
 445:Components/Algorithm/QuaternionEKF.c **** 
 977              		.loc 1 445 21 view .LVU365
 978 0368 4946     		mov	r1, r9
 979 036a 5046     		mov	r0, r10
 980 036c FFF7FEFF 		bl	arm_mat_mult_f32
 981              	.LVL59:
 445:Components/Algorithm/QuaternionEKF.c **** 
 982              		.loc 1 445 19 view .LVU366
 983 0370 84F8C800 		strb	r0, [r4, #200]
 448:Components/Algorithm/QuaternionEKF.c ****     {
 984              		.loc 1 448 5 is_stmt 1 view .LVU367
 448:Components/Algorithm/QuaternionEKF.c ****     {
ARM GAS  C:\Users\86152\AppData\Local\Temp\ccw7UxVh.s 			page 33


 985              		.loc 1 448 17 is_stmt 0 view .LVU368
 986 0374 95F83C31 		ldrb	r3, [r5, #316]	@ zero_extendqisi2
 448:Components/Algorithm/QuaternionEKF.c ****     {
 987              		.loc 1 448 8 view .LVU369
 988 0378 D3BB     		cbnz	r3, .L48
 989              	.L41:
 464:Components/Algorithm/QuaternionEKF.c ****     kf->MatStatus = Matrix_Add(&kf->xhatminus, &kf->temp_vector, &kf->xhat);
 990              		.loc 1 464 5 is_stmt 1 view .LVU370
 464:Components/Algorithm/QuaternionEKF.c ****     kf->MatStatus = Matrix_Add(&kf->xhatminus, &kf->temp_vector, &kf->xhat);
 991              		.loc 1 464 20 is_stmt 0 view .LVU371
 992 037a D4F8BC30 		ldr	r3, [r4, #188]
 464:Components/Algorithm/QuaternionEKF.c ****     kf->MatStatus = Matrix_Add(&kf->xhatminus, &kf->temp_vector, &kf->xhat);
 993              		.loc 1 464 30 view .LVU372
 994 037e 0022     		movs	r2, #0
 995 0380 DA60     		str	r2, [r3, #12]	@ float
 465:Components/Algorithm/QuaternionEKF.c **** }
 996              		.loc 1 465 5 is_stmt 1 view .LVU373
 465:Components/Algorithm/QuaternionEKF.c **** }
 997              		.loc 1 465 21 is_stmt 0 view .LVU374
 998 0382 04F13002 		add	r2, r4, #48
 999 0386 4146     		mov	r1, r8
 1000 0388 04F13800 		add	r0, r4, #56
 1001 038c FFF7FEFF 		bl	arm_mat_add_f32
 1002              	.LVL60:
 465:Components/Algorithm/QuaternionEKF.c **** }
 1003              		.loc 1 465 19 view .LVU375
 1004 0390 84F8C800 		strb	r0, [r4, #200]
 1005              	.LVL61:
 1006              	.L20:
 466:Components/Algorithm/QuaternionEKF.c **** 
 1007              		.loc 1 466 1 view .LVU376
 1008 0394 03B0     		add	sp, sp, #12
 1009              	.LCFI6:
 1010              		.cfi_remember_state
 1011              		.cfi_def_cfa_offset 36
 1012              		@ sp needed
 1013 0396 BDE8F08F 		pop	{r4, r5, r6, r7, r8, r9, r10, fp, pc}
 1014              	.LVL62:
 1015              	.L44:
 1016              	.LCFI7:
 1017              		.cfi_restore_state
 1018              	.LBB7:
 450:Components/Algorithm/QuaternionEKF.c ****         {
 1019              		.loc 1 450 36 is_stmt 1 discriminator 2 view .LVU377
 450:Components/Algorithm/QuaternionEKF.c ****         {
 1020              		.loc 1 450 37 is_stmt 0 discriminator 2 view .LVU378
 1021 039a 0133     		adds	r3, r3, #1
 1022              	.LVL63:
 450:Components/Algorithm/QuaternionEKF.c ****         {
 1023              		.loc 1 450 37 discriminator 2 view .LVU379
 1024 039c DBB2     		uxtb	r3, r3
 1025              	.LVL64:
 1026              	.L40:
 450:Components/Algorithm/QuaternionEKF.c ****         {
 1027              		.loc 1 450 29 is_stmt 1 discriminator 1 view .LVU380
 450:Components/Algorithm/QuaternionEKF.c ****         {
 1028              		.loc 1 450 9 is_stmt 0 discriminator 1 view .LVU381
ARM GAS  C:\Users\86152\AppData\Local\Temp\ccw7UxVh.s 			page 34


 1029 039e 052B     		cmp	r3, #5
 1030 03a0 EBD8     		bhi	.L41
 452:Components/Algorithm/QuaternionEKF.c ****             {
 1031              		.loc 1 452 13 is_stmt 1 view .LVU382
 452:Components/Algorithm/QuaternionEKF.c ****             {
 1032              		.loc 1 452 32 is_stmt 0 view .LVU383
 1033 03a2 D4F8BC10 		ldr	r1, [r4, #188]
 452:Components/Algorithm/QuaternionEKF.c ****             {
 1034              		.loc 1 452 38 view .LVU384
 1035 03a6 9800     		lsls	r0, r3, #2
 1036 03a8 01EB8301 		add	r1, r1, r3, lsl #2
 1037 03ac 91ED007A 		vldr.32	s14, [r1]
 452:Components/Algorithm/QuaternionEKF.c ****             {
 1038              		.loc 1 452 60 view .LVU385
 1039 03b0 D5ED6F7A 		vldr.32	s15, [r5, #444]
 452:Components/Algorithm/QuaternionEKF.c ****             {
 1040              		.loc 1 452 50 view .LVU386
 1041 03b4 DFED176A 		vldr.32	s13, .L57+32
 1042 03b8 67EEA67A 		vmul.f32	s15, s15, s13
 452:Components/Algorithm/QuaternionEKF.c ****             {
 1043              		.loc 1 452 16 view .LVU387
 1044 03bc B4EEE77A 		vcmpe.f32	s14, s15
 1045 03c0 F1EE10FA 		vmrs	APSR_nzcv, FPSCR
 1046 03c4 01DD     		ble	.L42
 454:Components/Algorithm/QuaternionEKF.c ****             }
 1047              		.loc 1 454 17 is_stmt 1 view .LVU388
 454:Components/Algorithm/QuaternionEKF.c ****             }
 1048              		.loc 1 454 42 is_stmt 0 view .LVU389
 1049 03c6 C1ED007A 		vstr.32	s15, [r1]
 1050              	.L42:
 456:Components/Algorithm/QuaternionEKF.c ****             {
 1051              		.loc 1 456 13 is_stmt 1 view .LVU390
 456:Components/Algorithm/QuaternionEKF.c ****             {
 1052              		.loc 1 456 32 is_stmt 0 view .LVU391
 1053 03ca D4F8BC20 		ldr	r2, [r4, #188]
 456:Components/Algorithm/QuaternionEKF.c ****             {
 1054              		.loc 1 456 38 view .LVU392
 1055 03ce 0244     		add	r2, r2, r0
 1056 03d0 92ED007A 		vldr.32	s14, [r2]
 456:Components/Algorithm/QuaternionEKF.c ****             {
 1057              		.loc 1 456 61 view .LVU393
 1058 03d4 D5ED6F7A 		vldr.32	s15, [r5, #444]
 456:Components/Algorithm/QuaternionEKF.c ****             {
 1059              		.loc 1 456 51 view .LVU394
 1060 03d8 DFED0F6A 		vldr.32	s13, .L57+36
 1061 03dc 67EEA67A 		vmul.f32	s15, s15, s13
 456:Components/Algorithm/QuaternionEKF.c ****             {
 1062              		.loc 1 456 16 view .LVU395
 1063 03e0 B4EEE77A 		vcmpe.f32	s14, s15
 1064 03e4 F1EE10FA 		vmrs	APSR_nzcv, FPSCR
 1065 03e8 D7D5     		bpl	.L44
 458:Components/Algorithm/QuaternionEKF.c ****             }
 1066              		.loc 1 458 17 is_stmt 1 view .LVU396
 458:Components/Algorithm/QuaternionEKF.c ****             }
 1067              		.loc 1 458 42 is_stmt 0 view .LVU397
 1068 03ea C2ED007A 		vstr.32	s15, [r2]
 1069 03ee D4E7     		b	.L44
ARM GAS  C:\Users\86152\AppData\Local\Temp\ccw7UxVh.s 			page 35


 1070              	.LVL65:
 1071              	.L48:
 450:Components/Algorithm/QuaternionEKF.c ****         {
 1072              		.loc 1 450 22 view .LVU398
 1073 03f0 0423     		movs	r3, #4
 1074 03f2 D4E7     		b	.L40
 1075              	.L58:
 1076              		.align	2
 1077              	.L57:
 1078 03f4 00000000 		.word	.LANCHOR8
 1079 03f8 00000000 		.word	.LANCHOR9
 1080 03fc 00000000 		.word	.LANCHOR10
 1081 0400 00000000 		.word	.LANCHOR11
 1082 0404 00000000 		.word	sizeof_float
 1083 0408 CDCCCC3D 		.word	1036831949
 1084 040c 6666663F 		.word	1063675494
 1085 0410 DA0FC93F 		.word	1070141402
 1086 0414 0AD7233C 		.word	1008981770
 1087 0418 0AD723BC 		.word	-1138501878
 1088              	.LBE7:
 1089              		.cfi_endproc
 1090              	.LFE167:
 1092              		.section	.text.IMU_QuaternionEKF_SetH,"ax",%progbits
 1093              		.align	1
 1094              		.syntax unified
 1095              		.thumb
 1096              		.thumb_func
 1098              	IMU_QuaternionEKF_SetH:
 1099              	.LVL66:
 1100              	.LFB166:
 288:Components/Algorithm/QuaternionEKF.c ****     static float doubleq0, doubleq1, doubleq2, doubleq3;
 1101              		.loc 1 288 1 is_stmt 1 view -0
 1102              		.cfi_startproc
 1103              		@ args = 0, pretend = 0, frame = 0
 1104              		@ frame_needed = 0, uses_anonymous_args = 0
 288:Components/Algorithm/QuaternionEKF.c ****     static float doubleq0, doubleq1, doubleq2, doubleq3;
 1105              		.loc 1 288 1 is_stmt 0 view .LVU400
 1106 0000 10B5     		push	{r4, lr}
 1107              	.LCFI8:
 1108              		.cfi_def_cfa_offset 8
 1109              		.cfi_offset 4, -8
 1110              		.cfi_offset 14, -4
 1111 0002 2DED048B 		vpush.64	{d8, d9}
 1112              	.LCFI9:
 1113              		.cfi_def_cfa_offset 24
 1114              		.cfi_offset 80, -24
 1115              		.cfi_offset 81, -20
 1116              		.cfi_offset 82, -16
 1117              		.cfi_offset 83, -12
 1118 0006 0446     		mov	r4, r0
 289:Components/Algorithm/QuaternionEKF.c ****     /* H
 1119              		.loc 1 289 5 is_stmt 1 view .LVU401
 297:Components/Algorithm/QuaternionEKF.c ****     doubleq1 = 2 * kf->xhatminus_data[1];
 1120              		.loc 1 297 5 view .LVU402
 297:Components/Algorithm/QuaternionEKF.c ****     doubleq1 = 2 * kf->xhatminus_data[1];
 1121              		.loc 1 297 22 is_stmt 0 view .LVU403
 1122 0008 D0F8F030 		ldr	r3, [r0, #240]
ARM GAS  C:\Users\86152\AppData\Local\Temp\ccw7UxVh.s 			page 36


 297:Components/Algorithm/QuaternionEKF.c ****     doubleq1 = 2 * kf->xhatminus_data[1];
 1123              		.loc 1 297 38 view .LVU404
 1124 000c 93ED009A 		vldr.32	s18, [r3]
 297:Components/Algorithm/QuaternionEKF.c ****     doubleq1 = 2 * kf->xhatminus_data[1];
 1125              		.loc 1 297 18 view .LVU405
 1126 0010 39EE099A 		vadd.f32	s18, s18, s18
 297:Components/Algorithm/QuaternionEKF.c ****     doubleq1 = 2 * kf->xhatminus_data[1];
 1127              		.loc 1 297 14 view .LVU406
 1128 0014 2E4A     		ldr	r2, .L61
 1129 0016 82ED009A 		vstr.32	s18, [r2]
 298:Components/Algorithm/QuaternionEKF.c ****     doubleq2 = 2 * kf->xhatminus_data[2];
 1130              		.loc 1 298 5 is_stmt 1 view .LVU407
 298:Components/Algorithm/QuaternionEKF.c ****     doubleq2 = 2 * kf->xhatminus_data[2];
 1131              		.loc 1 298 38 is_stmt 0 view .LVU408
 1132 001a 93ED018A 		vldr.32	s16, [r3, #4]
 298:Components/Algorithm/QuaternionEKF.c ****     doubleq2 = 2 * kf->xhatminus_data[2];
 1133              		.loc 1 298 18 view .LVU409
 1134 001e 38EE088A 		vadd.f32	s16, s16, s16
 298:Components/Algorithm/QuaternionEKF.c ****     doubleq2 = 2 * kf->xhatminus_data[2];
 1135              		.loc 1 298 14 view .LVU410
 1136 0022 2C4A     		ldr	r2, .L61+4
 1137 0024 82ED008A 		vstr.32	s16, [r2]
 299:Components/Algorithm/QuaternionEKF.c ****     doubleq3 = 2 * kf->xhatminus_data[3];
 1138              		.loc 1 299 5 is_stmt 1 view .LVU411
 299:Components/Algorithm/QuaternionEKF.c ****     doubleq3 = 2 * kf->xhatminus_data[3];
 1139              		.loc 1 299 38 is_stmt 0 view .LVU412
 1140 0028 D3ED029A 		vldr.32	s19, [r3, #8]
 299:Components/Algorithm/QuaternionEKF.c ****     doubleq3 = 2 * kf->xhatminus_data[3];
 1141              		.loc 1 299 18 view .LVU413
 1142 002c 79EEA99A 		vadd.f32	s19, s19, s19
 299:Components/Algorithm/QuaternionEKF.c ****     doubleq3 = 2 * kf->xhatminus_data[3];
 1143              		.loc 1 299 14 view .LVU414
 1144 0030 294A     		ldr	r2, .L61+8
 1145 0032 C2ED009A 		vstr.32	s19, [r2]
 300:Components/Algorithm/QuaternionEKF.c **** 
 1146              		.loc 1 300 5 is_stmt 1 view .LVU415
 300:Components/Algorithm/QuaternionEKF.c **** 
 1147              		.loc 1 300 38 is_stmt 0 view .LVU416
 1148 0036 D3ED038A 		vldr.32	s17, [r3, #12]
 300:Components/Algorithm/QuaternionEKF.c **** 
 1149              		.loc 1 300 18 view .LVU417
 1150 003a 78EEA88A 		vadd.f32	s17, s17, s17
 300:Components/Algorithm/QuaternionEKF.c **** 
 1151              		.loc 1 300 14 view .LVU418
 1152 003e 274B     		ldr	r3, .L61+12
 1153 0040 C3ED008A 		vstr.32	s17, [r3]
 302:Components/Algorithm/QuaternionEKF.c **** 
 1154              		.loc 1 302 5 is_stmt 1 view .LVU419
 302:Components/Algorithm/QuaternionEKF.c **** 
 1155              		.loc 1 302 44 is_stmt 0 view .LVU420
 1156 0044 827B     		ldrb	r2, [r0, #14]	@ zero_extendqisi2
 302:Components/Algorithm/QuaternionEKF.c **** 
 1157              		.loc 1 302 40 view .LVU421
 1158 0046 264B     		ldr	r3, .L61+16
 1159 0048 1B88     		ldrh	r3, [r3]
 1160 004a 02FB03F3 		mul	r3, r2, r3
 302:Components/Algorithm/QuaternionEKF.c **** 
ARM GAS  C:\Users\86152\AppData\Local\Temp\ccw7UxVh.s 			page 37


 1161              		.loc 1 302 56 view .LVU422
 1162 004e 027B     		ldrb	r2, [r0, #12]	@ zero_extendqisi2
 302:Components/Algorithm/QuaternionEKF.c **** 
 1163              		.loc 1 302 5 view .LVU423
 1164 0050 03FB02F2 		mul	r2, r3, r2
 1165 0054 0021     		movs	r1, #0
 1166 0056 D0F81001 		ldr	r0, [r0, #272]
 1167              	.LVL67:
 302:Components/Algorithm/QuaternionEKF.c **** 
 1168              		.loc 1 302 5 view .LVU424
 1169 005a FFF7FEFF 		bl	memset
 1170              	.LVL68:
 304:Components/Algorithm/QuaternionEKF.c ****     kf->H_data[1] = doubleq3;
 1171              		.loc 1 304 5 is_stmt 1 view .LVU425
 304:Components/Algorithm/QuaternionEKF.c ****     kf->H_data[1] = doubleq3;
 1172              		.loc 1 304 7 is_stmt 0 view .LVU426
 1173 005e D4F81031 		ldr	r3, [r4, #272]
 304:Components/Algorithm/QuaternionEKF.c ****     kf->H_data[1] = doubleq3;
 1174              		.loc 1 304 21 view .LVU427
 1175 0062 F1EE697A 		vneg.f32	s15, s19
 304:Components/Algorithm/QuaternionEKF.c ****     kf->H_data[1] = doubleq3;
 1176              		.loc 1 304 19 view .LVU428
 1177 0066 C3ED007A 		vstr.32	s15, [r3]
 305:Components/Algorithm/QuaternionEKF.c ****     kf->H_data[2] = -doubleq0;
 1178              		.loc 1 305 5 is_stmt 1 view .LVU429
 305:Components/Algorithm/QuaternionEKF.c ****     kf->H_data[2] = -doubleq0;
 1179              		.loc 1 305 7 is_stmt 0 view .LVU430
 1180 006a D4F81031 		ldr	r3, [r4, #272]
 305:Components/Algorithm/QuaternionEKF.c ****     kf->H_data[2] = -doubleq0;
 1181              		.loc 1 305 19 view .LVU431
 1182 006e C3ED018A 		vstr.32	s17, [r3, #4]
 306:Components/Algorithm/QuaternionEKF.c ****     kf->H_data[3] = doubleq1;
 1183              		.loc 1 306 5 is_stmt 1 view .LVU432
 306:Components/Algorithm/QuaternionEKF.c ****     kf->H_data[3] = doubleq1;
 1184              		.loc 1 306 7 is_stmt 0 view .LVU433
 1185 0072 D4F81031 		ldr	r3, [r4, #272]
 306:Components/Algorithm/QuaternionEKF.c ****     kf->H_data[3] = doubleq1;
 1186              		.loc 1 306 21 view .LVU434
 1187 0076 B1EE497A 		vneg.f32	s14, s18
 306:Components/Algorithm/QuaternionEKF.c ****     kf->H_data[3] = doubleq1;
 1188              		.loc 1 306 19 view .LVU435
 1189 007a 83ED027A 		vstr.32	s14, [r3, #8]
 307:Components/Algorithm/QuaternionEKF.c **** 
 1190              		.loc 1 307 5 is_stmt 1 view .LVU436
 307:Components/Algorithm/QuaternionEKF.c **** 
 1191              		.loc 1 307 7 is_stmt 0 view .LVU437
 1192 007e D4F81031 		ldr	r3, [r4, #272]
 307:Components/Algorithm/QuaternionEKF.c **** 
 1193              		.loc 1 307 19 view .LVU438
 1194 0082 83ED038A 		vstr.32	s16, [r3, #12]
 309:Components/Algorithm/QuaternionEKF.c ****     kf->H_data[7] = doubleq0;
 1195              		.loc 1 309 5 is_stmt 1 view .LVU439
 309:Components/Algorithm/QuaternionEKF.c ****     kf->H_data[7] = doubleq0;
 1196              		.loc 1 309 7 is_stmt 0 view .LVU440
 1197 0086 D4F81031 		ldr	r3, [r4, #272]
 309:Components/Algorithm/QuaternionEKF.c ****     kf->H_data[7] = doubleq0;
 1198              		.loc 1 309 19 view .LVU441
ARM GAS  C:\Users\86152\AppData\Local\Temp\ccw7UxVh.s 			page 38


 1199 008a 83ED068A 		vstr.32	s16, [r3, #24]
 310:Components/Algorithm/QuaternionEKF.c ****     kf->H_data[8] = doubleq3;
 1200              		.loc 1 310 5 is_stmt 1 view .LVU442
 310:Components/Algorithm/QuaternionEKF.c ****     kf->H_data[8] = doubleq3;
 1201              		.loc 1 310 7 is_stmt 0 view .LVU443
 1202 008e D4F81031 		ldr	r3, [r4, #272]
 310:Components/Algorithm/QuaternionEKF.c ****     kf->H_data[8] = doubleq3;
 1203              		.loc 1 310 19 view .LVU444
 1204 0092 83ED079A 		vstr.32	s18, [r3, #28]
 311:Components/Algorithm/QuaternionEKF.c ****     kf->H_data[9] = doubleq2;
 1205              		.loc 1 311 5 is_stmt 1 view .LVU445
 311:Components/Algorithm/QuaternionEKF.c ****     kf->H_data[9] = doubleq2;
 1206              		.loc 1 311 7 is_stmt 0 view .LVU446
 1207 0096 D4F81031 		ldr	r3, [r4, #272]
 311:Components/Algorithm/QuaternionEKF.c ****     kf->H_data[9] = doubleq2;
 1208              		.loc 1 311 19 view .LVU447
 1209 009a C3ED088A 		vstr.32	s17, [r3, #32]
 312:Components/Algorithm/QuaternionEKF.c **** 
 1210              		.loc 1 312 5 is_stmt 1 view .LVU448
 312:Components/Algorithm/QuaternionEKF.c **** 
 1211              		.loc 1 312 7 is_stmt 0 view .LVU449
 1212 009e D4F81031 		ldr	r3, [r4, #272]
 312:Components/Algorithm/QuaternionEKF.c **** 
 1213              		.loc 1 312 19 view .LVU450
 1214 00a2 C3ED099A 		vstr.32	s19, [r3, #36]
 314:Components/Algorithm/QuaternionEKF.c ****     kf->H_data[13] = -doubleq1;
 1215              		.loc 1 314 5 is_stmt 1 view .LVU451
 314:Components/Algorithm/QuaternionEKF.c ****     kf->H_data[13] = -doubleq1;
 1216              		.loc 1 314 7 is_stmt 0 view .LVU452
 1217 00a6 D4F81031 		ldr	r3, [r4, #272]
 314:Components/Algorithm/QuaternionEKF.c ****     kf->H_data[13] = -doubleq1;
 1218              		.loc 1 314 20 view .LVU453
 1219 00aa 83ED0C9A 		vstr.32	s18, [r3, #48]
 315:Components/Algorithm/QuaternionEKF.c ****     kf->H_data[14] = -doubleq2;
 1220              		.loc 1 315 5 is_stmt 1 view .LVU454
 315:Components/Algorithm/QuaternionEKF.c ****     kf->H_data[14] = -doubleq2;
 1221              		.loc 1 315 7 is_stmt 0 view .LVU455
 1222 00ae D4F81031 		ldr	r3, [r4, #272]
 315:Components/Algorithm/QuaternionEKF.c ****     kf->H_data[14] = -doubleq2;
 1223              		.loc 1 315 22 view .LVU456
 1224 00b2 B1EE488A 		vneg.f32	s16, s16
 315:Components/Algorithm/QuaternionEKF.c ****     kf->H_data[14] = -doubleq2;
 1225              		.loc 1 315 20 view .LVU457
 1226 00b6 83ED0D8A 		vstr.32	s16, [r3, #52]
 316:Components/Algorithm/QuaternionEKF.c ****     kf->H_data[15] = doubleq3;
 1227              		.loc 1 316 5 is_stmt 1 view .LVU458
 316:Components/Algorithm/QuaternionEKF.c ****     kf->H_data[15] = doubleq3;
 1228              		.loc 1 316 7 is_stmt 0 view .LVU459
 1229 00ba D4F81031 		ldr	r3, [r4, #272]
 316:Components/Algorithm/QuaternionEKF.c ****     kf->H_data[15] = doubleq3;
 1230              		.loc 1 316 20 view .LVU460
 1231 00be C3ED0E7A 		vstr.32	s15, [r3, #56]
 317:Components/Algorithm/QuaternionEKF.c **** }
 1232              		.loc 1 317 5 is_stmt 1 view .LVU461
 317:Components/Algorithm/QuaternionEKF.c **** }
 1233              		.loc 1 317 7 is_stmt 0 view .LVU462
 1234 00c2 D4F81031 		ldr	r3, [r4, #272]
ARM GAS  C:\Users\86152\AppData\Local\Temp\ccw7UxVh.s 			page 39


 317:Components/Algorithm/QuaternionEKF.c **** }
 1235              		.loc 1 317 20 view .LVU463
 1236 00c6 C3ED0F8A 		vstr.32	s17, [r3, #60]
 318:Components/Algorithm/QuaternionEKF.c **** 
 1237              		.loc 1 318 1 view .LVU464
 1238 00ca BDEC048B 		vldm	sp!, {d8-d9}
 1239              	.LCFI10:
 1240              		.cfi_restore 82
 1241              		.cfi_restore 83
 1242              		.cfi_restore 80
 1243              		.cfi_restore 81
 1244              		.cfi_def_cfa_offset 8
 1245 00ce 10BD     		pop	{r4, pc}
 1246              	.LVL69:
 1247              	.L62:
 318:Components/Algorithm/QuaternionEKF.c **** 
 1248              		.loc 1 318 1 view .LVU465
 1249              		.align	2
 1250              	.L61:
 1251 00d0 00000000 		.word	.LANCHOR12
 1252 00d4 00000000 		.word	.LANCHOR13
 1253 00d8 00000000 		.word	.LANCHOR14
 1254 00dc 00000000 		.word	.LANCHOR15
 1255 00e0 00000000 		.word	sizeof_float
 1256              		.cfi_endproc
 1257              	.LFE166:
 1259              		.section	.text.IMU_QuaternionEKF_Init,"ax",%progbits
 1260              		.align	1
 1261              		.global	IMU_QuaternionEKF_Init
 1262              		.syntax unified
 1263              		.thumb
 1264              		.thumb_func
 1266              	IMU_QuaternionEKF_Init:
 1267              	.LVL70:
 1268              	.LFB163:
  48:Components/Algorithm/QuaternionEKF.c ****     qekf_ins->IMU_QuaternionEKF.User_Data = qekf_ins;
 1269              		.loc 1 48 1 is_stmt 1 view -0
 1270              		.cfi_startproc
 1271              		@ args = 0, pretend = 0, frame = 0
 1272              		@ frame_needed = 0, uses_anonymous_args = 0
  48:Components/Algorithm/QuaternionEKF.c ****     qekf_ins->IMU_QuaternionEKF.User_Data = qekf_ins;
 1273              		.loc 1 48 1 is_stmt 0 view .LVU467
 1274 0000 38B5     		push	{r3, r4, r5, lr}
 1275              	.LCFI11:
 1276              		.cfi_def_cfa_offset 16
 1277              		.cfi_offset 3, -16
 1278              		.cfi_offset 4, -12
 1279              		.cfi_offset 5, -8
 1280              		.cfi_offset 14, -4
 1281 0002 0446     		mov	r4, r0
  49:Components/Algorithm/QuaternionEKF.c **** 
 1282              		.loc 1 49 5 is_stmt 1 view .LVU468
  49:Components/Algorithm/QuaternionEKF.c **** 
 1283              		.loc 1 49 43 is_stmt 0 view .LVU469
 1284 0004 C0F8EC00 		str	r0, [r0, #236]
  51:Components/Algorithm/QuaternionEKF.c ****     qekf_ins->Q1 = process_noise1;
 1285              		.loc 1 51 5 is_stmt 1 view .LVU470
ARM GAS  C:\Users\86152\AppData\Local\Temp\ccw7UxVh.s 			page 40


  51:Components/Algorithm/QuaternionEKF.c ****     qekf_ins->Q1 = process_noise1;
 1286              		.loc 1 51 27 is_stmt 0 view .LVU471
 1287 0008 0123     		movs	r3, #1
 1288 000a 0370     		strb	r3, [r0]
  52:Components/Algorithm/QuaternionEKF.c ****     qekf_ins->Q2 = process_noise2;
 1289              		.loc 1 52 5 is_stmt 1 view .LVU472
  52:Components/Algorithm/QuaternionEKF.c ****     qekf_ins->Q2 = process_noise2;
 1290              		.loc 1 52 18 is_stmt 0 view .LVU473
 1291 000c 80ED6C0A 		vstr.32	s0, [r0, #432]
  53:Components/Algorithm/QuaternionEKF.c ****     qekf_ins->R = measure_noise;
 1292              		.loc 1 53 5 is_stmt 1 view .LVU474
  53:Components/Algorithm/QuaternionEKF.c ****     qekf_ins->R = measure_noise;
 1293              		.loc 1 53 18 is_stmt 0 view .LVU475
 1294 0010 C0ED6D0A 		vstr.32	s1, [r0, #436]
  54:Components/Algorithm/QuaternionEKF.c ****     qekf_ins->ChiSquareTestThreshold = 1e-8;
 1295              		.loc 1 54 5 is_stmt 1 view .LVU476
  54:Components/Algorithm/QuaternionEKF.c ****     qekf_ins->ChiSquareTestThreshold = 1e-8;
 1296              		.loc 1 54 17 is_stmt 0 view .LVU477
 1297 0014 80ED6E1A 		vstr.32	s2, [r0, #440]
  55:Components/Algorithm/QuaternionEKF.c ****     qekf_ins->ConvergeFlag = 0;
 1298              		.loc 1 55 5 is_stmt 1 view .LVU478
  55:Components/Algorithm/QuaternionEKF.c ****     qekf_ins->ConvergeFlag = 0;
 1299              		.loc 1 55 38 is_stmt 0 view .LVU479
 1300 0018 2A4B     		ldr	r3, .L67
 1301 001a C0F8CC31 		str	r3, [r0, #460]	@ float
  56:Components/Algorithm/QuaternionEKF.c ****     qekf_ins->ErrorCount = 0;
 1302              		.loc 1 56 5 is_stmt 1 view .LVU480
  56:Components/Algorithm/QuaternionEKF.c ****     qekf_ins->ErrorCount = 0;
 1303              		.loc 1 56 28 is_stmt 0 view .LVU481
 1304 001e 0023     		movs	r3, #0
 1305 0020 80F83C31 		strb	r3, [r0, #316]
  57:Components/Algorithm/QuaternionEKF.c ****     qekf_ins->UpdateCount = 0;
 1306              		.loc 1 57 5 is_stmt 1 view .LVU482
  57:Components/Algorithm/QuaternionEKF.c ****     qekf_ins->UpdateCount = 0;
 1307              		.loc 1 57 26 is_stmt 0 view .LVU483
 1308 0024 0022     		movs	r2, #0
 1309 0026 0023     		movs	r3, #0
 1310 0028 C0E95023 		strd	r2, [r0, #320]
  58:Components/Algorithm/QuaternionEKF.c ****     if (lambda > 1)
 1311              		.loc 1 58 5 is_stmt 1 view .LVU484
  58:Components/Algorithm/QuaternionEKF.c ****     if (lambda > 1)
 1312              		.loc 1 58 27 is_stmt 0 view .LVU485
 1313 002c C0E95223 		strd	r2, [r0, #328]
  59:Components/Algorithm/QuaternionEKF.c ****     {
 1314              		.loc 1 59 5 is_stmt 1 view .LVU486
  59:Components/Algorithm/QuaternionEKF.c ****     {
 1315              		.loc 1 59 8 is_stmt 0 view .LVU487
 1316 0030 F7EE007A 		vmov.f32	s15, #1.0e+0
 1317 0034 F4EEE71A 		vcmpe.f32	s3, s15
 1318 0038 F1EE10FA 		vmrs	APSR_nzcv, FPSCR
 1319 003c 01DD     		ble	.L64
  61:Components/Algorithm/QuaternionEKF.c ****     }
 1320              		.loc 1 61 16 view .LVU488
 1321 003e F0EE671A 		vmov.f32	s3, s15
 1322              	.LVL71:
 1323              	.L64:
  63:Components/Algorithm/QuaternionEKF.c ****     qekf_ins->accLPFcoef = lpf;
ARM GAS  C:\Users\86152\AppData\Local\Temp\ccw7UxVh.s 			page 41


 1324              		.loc 1 63 5 is_stmt 1 view .LVU489
  63:Components/Algorithm/QuaternionEKF.c ****     qekf_ins->accLPFcoef = lpf;
 1325              		.loc 1 63 22 is_stmt 0 view .LVU490
 1326 0042 C4ED741A 		vstr.32	s3, [r4, #464]
  64:Components/Algorithm/QuaternionEKF.c **** 
 1327              		.loc 1 64 5 is_stmt 1 view .LVU491
  64:Components/Algorithm/QuaternionEKF.c **** 
 1328              		.loc 1 64 26 is_stmt 0 view .LVU492
 1329 0046 84ED642A 		vstr.32	s4, [r4, #400]
  67:Components/Algorithm/QuaternionEKF.c ****     Matrix_Init(&qekf_ins->ChiSquare, 1, 1, (float *)qekf_ins->ChiSquare_Data);
 1330              		.loc 1 67 5 is_stmt 1 view .LVU493
 1331 004a 0323     		movs	r3, #3
 1332 004c 0022     		movs	r2, #0
 1333 004e 0621     		movs	r1, #6
 1334 0050 201D     		adds	r0, r4, #4
 1335              	.LVL72:
  67:Components/Algorithm/QuaternionEKF.c ****     Matrix_Init(&qekf_ins->ChiSquare, 1, 1, (float *)qekf_ins->ChiSquare_Data);
 1336              		.loc 1 67 5 is_stmt 0 view .LVU494
 1337 0052 FFF7FEFF 		bl	Kalman_Filter_Init
 1338              	.LVL73:
  68:Components/Algorithm/QuaternionEKF.c **** 
 1339              		.loc 1 68 5 is_stmt 1 view .LVU495
 1340 0056 04F5E473 		add	r3, r4, #456
 1341 005a 0122     		movs	r2, #1
 1342 005c 1146     		mov	r1, r2
 1343 005e 04F5E070 		add	r0, r4, #448
 1344 0062 FFF7FEFF 		bl	arm_mat_init_f32
 1345              	.LVL74:
  71:Components/Algorithm/QuaternionEKF.c ****     qekf_ins->IMU_QuaternionEKF.xhat_data[1] = 0;
 1346              		.loc 1 71 5 view .LVU496
  71:Components/Algorithm/QuaternionEKF.c ****     qekf_ins->IMU_QuaternionEKF.xhat_data[1] = 0;
 1347              		.loc 1 71 32 is_stmt 0 view .LVU497
 1348 0066 D4F8F030 		ldr	r3, [r4, #240]
  71:Components/Algorithm/QuaternionEKF.c ****     qekf_ins->IMU_QuaternionEKF.xhat_data[1] = 0;
 1349              		.loc 1 71 46 view .LVU498
 1350 006a 4FF07E52 		mov	r2, #1065353216
 1351 006e 1A60     		str	r2, [r3]	@ float
  72:Components/Algorithm/QuaternionEKF.c ****     qekf_ins->IMU_QuaternionEKF.xhat_data[2] = 0;
 1352              		.loc 1 72 5 is_stmt 1 view .LVU499
  72:Components/Algorithm/QuaternionEKF.c ****     qekf_ins->IMU_QuaternionEKF.xhat_data[2] = 0;
 1353              		.loc 1 72 32 is_stmt 0 view .LVU500
 1354 0070 D4F8F020 		ldr	r2, [r4, #240]
  72:Components/Algorithm/QuaternionEKF.c ****     qekf_ins->IMU_QuaternionEKF.xhat_data[2] = 0;
 1355              		.loc 1 72 46 view .LVU501
 1356 0074 0023     		movs	r3, #0
 1357 0076 5360     		str	r3, [r2, #4]	@ float
  73:Components/Algorithm/QuaternionEKF.c ****     qekf_ins->IMU_QuaternionEKF.xhat_data[3] = 0;
 1358              		.loc 1 73 5 is_stmt 1 view .LVU502
  73:Components/Algorithm/QuaternionEKF.c ****     qekf_ins->IMU_QuaternionEKF.xhat_data[3] = 0;
 1359              		.loc 1 73 32 is_stmt 0 view .LVU503
 1360 0078 D4F8F020 		ldr	r2, [r4, #240]
  73:Components/Algorithm/QuaternionEKF.c ****     qekf_ins->IMU_QuaternionEKF.xhat_data[3] = 0;
 1361              		.loc 1 73 46 view .LVU504
 1362 007c 9360     		str	r3, [r2, #8]	@ float
  74:Components/Algorithm/QuaternionEKF.c **** 
 1363              		.loc 1 74 5 is_stmt 1 view .LVU505
  74:Components/Algorithm/QuaternionEKF.c **** 
ARM GAS  C:\Users\86152\AppData\Local\Temp\ccw7UxVh.s 			page 42


 1364              		.loc 1 74 32 is_stmt 0 view .LVU506
 1365 007e D4F8F020 		ldr	r2, [r4, #240]
  74:Components/Algorithm/QuaternionEKF.c **** 
 1366              		.loc 1 74 46 view .LVU507
 1367 0082 D360     		str	r3, [r2, #12]	@ float
  77:Components/Algorithm/QuaternionEKF.c ****     qekf_ins->IMU_QuaternionEKF.User_Func1_f = IMU_QuaternionEKF_F_Linearization_P_Fading;
 1368              		.loc 1 77 5 is_stmt 1 view .LVU508
  77:Components/Algorithm/QuaternionEKF.c ****     qekf_ins->IMU_QuaternionEKF.User_Func1_f = IMU_QuaternionEKF_F_Linearization_P_Fading;
 1369              		.loc 1 77 46 is_stmt 0 view .LVU509
 1370 0084 104B     		ldr	r3, .L67+4
 1371 0086 C4F8D030 		str	r3, [r4, #208]
  78:Components/Algorithm/QuaternionEKF.c ****     qekf_ins->IMU_QuaternionEKF.User_Func2_f = IMU_QuaternionEKF_SetH;
 1372              		.loc 1 78 5 is_stmt 1 view .LVU510
  78:Components/Algorithm/QuaternionEKF.c ****     qekf_ins->IMU_QuaternionEKF.User_Func2_f = IMU_QuaternionEKF_SetH;
 1373              		.loc 1 78 46 is_stmt 0 view .LVU511
 1374 008a 104B     		ldr	r3, .L67+8
 1375 008c C4F8D430 		str	r3, [r4, #212]
  79:Components/Algorithm/QuaternionEKF.c ****     qekf_ins->IMU_QuaternionEKF.User_Func3_f = IMU_QuaternionEKF_xhatUpdate;
 1376              		.loc 1 79 5 is_stmt 1 view .LVU512
  79:Components/Algorithm/QuaternionEKF.c ****     qekf_ins->IMU_QuaternionEKF.User_Func3_f = IMU_QuaternionEKF_xhatUpdate;
 1377              		.loc 1 79 46 is_stmt 0 view .LVU513
 1378 0090 0F4B     		ldr	r3, .L67+12
 1379 0092 C4F8D830 		str	r3, [r4, #216]
  80:Components/Algorithm/QuaternionEKF.c **** 
 1380              		.loc 1 80 5 is_stmt 1 view .LVU514
  80:Components/Algorithm/QuaternionEKF.c **** 
 1381              		.loc 1 80 46 is_stmt 0 view .LVU515
 1382 0096 0F4B     		ldr	r3, .L67+16
 1383 0098 C4F8DC30 		str	r3, [r4, #220]
  83:Components/Algorithm/QuaternionEKF.c ****     qekf_ins->IMU_QuaternionEKF.SkipEq4 = TRUE;
 1384              		.loc 1 83 5 is_stmt 1 view .LVU516
  83:Components/Algorithm/QuaternionEKF.c ****     qekf_ins->IMU_QuaternionEKF.SkipEq4 = TRUE;
 1385              		.loc 1 83 41 is_stmt 0 view .LVU517
 1386 009c 0123     		movs	r3, #1
 1387 009e 84F82E30 		strb	r3, [r4, #46]
  84:Components/Algorithm/QuaternionEKF.c **** 
 1388              		.loc 1 84 5 is_stmt 1 view .LVU518
  84:Components/Algorithm/QuaternionEKF.c **** 
 1389              		.loc 1 84 41 is_stmt 0 view .LVU519
 1390 00a2 84F82F30 		strb	r3, [r4, #47]
  86:Components/Algorithm/QuaternionEKF.c ****     memcpy(qekf_ins->IMU_QuaternionEKF.P_data, IMU_QuaternionEKF_P, sizeof(IMU_QuaternionEKF_P));
 1391              		.loc 1 86 5 is_stmt 1 view .LVU520
 1392 00a6 9025     		movs	r5, #144
 1393 00a8 2A46     		mov	r2, r5
 1394 00aa 0B49     		ldr	r1, .L67+20
 1395 00ac D4F80801 		ldr	r0, [r4, #264]
 1396 00b0 FFF7FEFF 		bl	memcpy
 1397              	.LVL75:
  87:Components/Algorithm/QuaternionEKF.c **** }
 1398              		.loc 1 87 5 view .LVU521
 1399 00b4 2A46     		mov	r2, r5
 1400 00b6 0949     		ldr	r1, .L67+24
 1401 00b8 D4F80001 		ldr	r0, [r4, #256]
 1402 00bc FFF7FEFF 		bl	memcpy
 1403              	.LVL76:
  88:Components/Algorithm/QuaternionEKF.c **** 
 1404              		.loc 1 88 1 is_stmt 0 view .LVU522
ARM GAS  C:\Users\86152\AppData\Local\Temp\ccw7UxVh.s 			page 43


 1405 00c0 38BD     		pop	{r3, r4, r5, pc}
 1406              	.LVL77:
 1407              	.L68:
  88:Components/Algorithm/QuaternionEKF.c **** 
 1408              		.loc 1 88 1 view .LVU523
 1409 00c2 00BF     		.align	2
 1410              	.L67:
 1411 00c4 77CC2B32 		.word	841731191
 1412 00c8 00000000 		.word	IMU_QuaternionEKF_Observe
 1413 00cc 00000000 		.word	IMU_QuaternionEKF_F_Linearization_P_Fading
 1414 00d0 00000000 		.word	IMU_QuaternionEKF_SetH
 1415 00d4 00000000 		.word	IMU_QuaternionEKF_xhatUpdate
 1416 00d8 00000000 		.word	.LANCHOR16
 1417 00dc 00000000 		.word	.LANCHOR5
 1418              		.cfi_endproc
 1419              	.LFE163:
 1421              		.section	.text.IMU_QuaternionEKF_Update,"ax",%progbits
 1422              		.align	1
 1423              		.global	IMU_QuaternionEKF_Update
 1424              		.syntax unified
 1425              		.thumb
 1426              		.thumb_func
 1428              	IMU_QuaternionEKF_Update:
 1429              	.LVL78:
 1430              	.LFB164:
  97:Components/Algorithm/QuaternionEKF.c ****     // 0.5(Ohm-Ohm^bias)*deltaT,Áî®‰∫éÊõ¥Êñ∞Â∑•‰ΩúÁÇπÂ§ÑÁöÑÁä∂ÊÄÅËΩ¨ÁßªFÁü©Èòµ
 1431              		.loc 1 97 1 is_stmt 1 view -0
 1432              		.cfi_startproc
 1433              		@ args = 0, pretend = 0, frame = 0
 1434              		@ frame_needed = 0, uses_anonymous_args = 0
  97:Components/Algorithm/QuaternionEKF.c ****     // 0.5(Ohm-Ohm^bias)*deltaT,Áî®‰∫éÊõ¥Êñ∞Â∑•‰ΩúÁÇπÂ§ÑÁöÑÁä∂ÊÄÅËΩ¨ÁßªFÁü©Èòµ
 1435              		.loc 1 97 1 is_stmt 0 view .LVU525
 1436 0000 10B5     		push	{r4, lr}
 1437              	.LCFI12:
 1438              		.cfi_def_cfa_offset 8
 1439              		.cfi_offset 4, -8
 1440              		.cfi_offset 14, -4
 1441 0002 2DED088B 		vpush.64	{d8, d9, d10, d11}
 1442              	.LCFI13:
 1443              		.cfi_def_cfa_offset 40
 1444              		.cfi_offset 80, -40
 1445              		.cfi_offset 81, -36
 1446              		.cfi_offset 82, -32
 1447              		.cfi_offset 83, -28
 1448              		.cfi_offset 84, -24
 1449              		.cfi_offset 85, -20
 1450              		.cfi_offset 86, -16
 1451              		.cfi_offset 87, -12
 1452 0006 0446     		mov	r4, r0
 1453 0008 F0EE409A 		vmov.f32	s19, s0
 1454 000c B0EE608A 		vmov.f32	s16, s1
 1455 0010 B0EE419A 		vmov.f32	s18, s2
 1456 0014 B0EE61BA 		vmov.f32	s22, s3
 1457 0018 F0EE42AA 		vmov.f32	s21, s4
 1458 001c B0EE62AA 		vmov.f32	s20, s5
 1459 0020 F0EE438A 		vmov.f32	s17, s6
  99:Components/Algorithm/QuaternionEKF.c ****     static float accelInvNorm;
ARM GAS  C:\Users\86152\AppData\Local\Temp\ccw7UxVh.s 			page 44


 1460              		.loc 1 99 5 is_stmt 1 view .LVU526
 100:Components/Algorithm/QuaternionEKF.c ****     if (!qekf_ins->Initialized)
 1461              		.loc 1 100 5 view .LVU527
 101:Components/Algorithm/QuaternionEKF.c ****     {
 1462              		.loc 1 101 5 view .LVU528
 101:Components/Algorithm/QuaternionEKF.c ****     {
 1463              		.loc 1 101 18 is_stmt 0 view .LVU529
 1464 0024 0378     		ldrb	r3, [r0]	@ zero_extendqisi2
 101:Components/Algorithm/QuaternionEKF.c ****     {
 1465              		.loc 1 101 8 view .LVU530
 1466 0026 002B     		cmp	r3, #0
 1467 0028 00F0B680 		beq	.L83
 1468              	.LVL79:
 1469              	.L70:
 114:Components/Algorithm/QuaternionEKF.c **** 
 1470              		.loc 1 114 5 is_stmt 1 view .LVU531
 114:Components/Algorithm/QuaternionEKF.c **** 
 1471              		.loc 1 114 18 is_stmt 0 view .LVU532
 1472 002c C4ED6F8A 		vstr.32	s17, [r4, #444]
 116:Components/Algorithm/QuaternionEKF.c ****     qekf_ins->Gyro[1] = gy - qekf_ins->GyroBias[1];
 1473              		.loc 1 116 5 is_stmt 1 view .LVU533
 116:Components/Algorithm/QuaternionEKF.c ****     qekf_ins->Gyro[1] = gy - qekf_ins->GyroBias[1];
 1474              		.loc 1 116 48 is_stmt 0 view .LVU534
 1475 0030 94ED580A 		vldr.32	s0, [r4, #352]
 116:Components/Algorithm/QuaternionEKF.c ****     qekf_ins->Gyro[1] = gy - qekf_ins->GyroBias[1];
 1476              		.loc 1 116 28 view .LVU535
 1477 0034 39EEC00A 		vsub.f32	s0, s19, s0
 116:Components/Algorithm/QuaternionEKF.c ****     qekf_ins->Gyro[1] = gy - qekf_ins->GyroBias[1];
 1478              		.loc 1 116 23 view .LVU536
 1479 0038 84ED5B0A 		vstr.32	s0, [r4, #364]
 117:Components/Algorithm/QuaternionEKF.c ****     qekf_ins->Gyro[2] = gz - qekf_ins->GyroBias[2];
 1480              		.loc 1 117 5 is_stmt 1 view .LVU537
 117:Components/Algorithm/QuaternionEKF.c ****     qekf_ins->Gyro[2] = gz - qekf_ins->GyroBias[2];
 1481              		.loc 1 117 48 is_stmt 0 view .LVU538
 1482 003c D4ED590A 		vldr.32	s1, [r4, #356]
 117:Components/Algorithm/QuaternionEKF.c ****     qekf_ins->Gyro[2] = gz - qekf_ins->GyroBias[2];
 1483              		.loc 1 117 28 view .LVU539
 1484 0040 38EE608A 		vsub.f32	s16, s16, s1
 1485              	.LVL80:
 117:Components/Algorithm/QuaternionEKF.c ****     qekf_ins->Gyro[2] = gz - qekf_ins->GyroBias[2];
 1486              		.loc 1 117 23 view .LVU540
 1487 0044 84ED5C8A 		vstr.32	s16, [r4, #368]
 118:Components/Algorithm/QuaternionEKF.c **** 
 1488              		.loc 1 118 5 is_stmt 1 view .LVU541
 118:Components/Algorithm/QuaternionEKF.c **** 
 1489              		.loc 1 118 48 is_stmt 0 view .LVU542
 1490 0048 94ED5A1A 		vldr.32	s2, [r4, #360]
 118:Components/Algorithm/QuaternionEKF.c **** 
 1491              		.loc 1 118 28 view .LVU543
 1492 004c 39EE411A 		vsub.f32	s2, s18, s2
 118:Components/Algorithm/QuaternionEKF.c **** 
 1493              		.loc 1 118 23 view .LVU544
 1494 0050 84ED5D1A 		vstr.32	s2, [r4, #372]
 121:Components/Algorithm/QuaternionEKF.c ****     halfgydt = 0.5f * qekf_ins->Gyro[1] * dt;
 1495              		.loc 1 121 5 is_stmt 1 view .LVU545
 121:Components/Algorithm/QuaternionEKF.c ****     halfgydt = 0.5f * qekf_ins->Gyro[1] * dt;
 1496              		.loc 1 121 21 is_stmt 0 view .LVU546
ARM GAS  C:\Users\86152\AppData\Local\Temp\ccw7UxVh.s 			page 45


 1497 0054 F6EE007A 		vmov.f32	s15, #5.0e-1
 1498 0058 20EE279A 		vmul.f32	s18, s0, s15
 1499              	.LVL81:
 121:Components/Algorithm/QuaternionEKF.c ****     halfgydt = 0.5f * qekf_ins->Gyro[1] * dt;
 1500              		.loc 1 121 41 view .LVU547
 1501 005c 29EE289A 		vmul.f32	s18, s18, s17
 121:Components/Algorithm/QuaternionEKF.c ****     halfgydt = 0.5f * qekf_ins->Gyro[1] * dt;
 1502              		.loc 1 121 14 view .LVU548
 1503 0060 B04B     		ldr	r3, .L84
 1504 0062 83ED009A 		vstr.32	s18, [r3]
 122:Components/Algorithm/QuaternionEKF.c ****     halfgzdt = 0.5f * qekf_ins->Gyro[2] * dt;
 1505              		.loc 1 122 5 is_stmt 1 view .LVU549
 122:Components/Algorithm/QuaternionEKF.c ****     halfgzdt = 0.5f * qekf_ins->Gyro[2] * dt;
 1506              		.loc 1 122 21 is_stmt 0 view .LVU550
 1507 0066 28EE278A 		vmul.f32	s16, s16, s15
 122:Components/Algorithm/QuaternionEKF.c ****     halfgzdt = 0.5f * qekf_ins->Gyro[2] * dt;
 1508              		.loc 1 122 41 view .LVU551
 1509 006a 28EE288A 		vmul.f32	s16, s16, s17
 122:Components/Algorithm/QuaternionEKF.c ****     halfgzdt = 0.5f * qekf_ins->Gyro[2] * dt;
 1510              		.loc 1 122 14 view .LVU552
 1511 006e AE4B     		ldr	r3, .L84+4
 1512 0070 83ED008A 		vstr.32	s16, [r3]
 123:Components/Algorithm/QuaternionEKF.c **** 
 1513              		.loc 1 123 5 is_stmt 1 view .LVU553
 123:Components/Algorithm/QuaternionEKF.c **** 
 1514              		.loc 1 123 21 is_stmt 0 view .LVU554
 1515 0074 21EE271A 		vmul.f32	s2, s2, s15
 123:Components/Algorithm/QuaternionEKF.c **** 
 1516              		.loc 1 123 41 view .LVU555
 1517 0078 61EE288A 		vmul.f32	s17, s2, s17
 1518              	.LVL82:
 123:Components/Algorithm/QuaternionEKF.c **** 
 1519              		.loc 1 123 14 view .LVU556
 1520 007c AB4B     		ldr	r3, .L84+8
 1521 007e C3ED008A 		vstr.32	s17, [r3]
 127:Components/Algorithm/QuaternionEKF.c **** 
 1522              		.loc 1 127 5 is_stmt 1 view .LVU557
 1523 0082 9022     		movs	r2, #144
 1524 0084 AA49     		ldr	r1, .L84+12
 1525 0086 D4F80801 		ldr	r0, [r4, #264]
 1526 008a FFF7FEFF 		bl	memcpy
 1527              	.LVL83:
 129:Components/Algorithm/QuaternionEKF.c ****     qekf_ins->IMU_QuaternionEKF.F_data[2] = -halfgydt;
 1528              		.loc 1 129 5 view .LVU558
 129:Components/Algorithm/QuaternionEKF.c ****     qekf_ins->IMU_QuaternionEKF.F_data[2] = -halfgydt;
 1529              		.loc 1 129 32 is_stmt 0 view .LVU559
 1530 008e D4F80831 		ldr	r3, [r4, #264]
 129:Components/Algorithm/QuaternionEKF.c ****     qekf_ins->IMU_QuaternionEKF.F_data[2] = -halfgydt;
 1531              		.loc 1 129 45 view .LVU560
 1532 0092 F1EE497A 		vneg.f32	s15, s18
 129:Components/Algorithm/QuaternionEKF.c ****     qekf_ins->IMU_QuaternionEKF.F_data[2] = -halfgydt;
 1533              		.loc 1 129 43 view .LVU561
 1534 0096 C3ED017A 		vstr.32	s15, [r3, #4]
 130:Components/Algorithm/QuaternionEKF.c ****     qekf_ins->IMU_QuaternionEKF.F_data[3] = -halfgzdt;
 1535              		.loc 1 130 5 is_stmt 1 view .LVU562
 130:Components/Algorithm/QuaternionEKF.c ****     qekf_ins->IMU_QuaternionEKF.F_data[3] = -halfgzdt;
 1536              		.loc 1 130 32 is_stmt 0 view .LVU563
ARM GAS  C:\Users\86152\AppData\Local\Temp\ccw7UxVh.s 			page 46


 1537 009a D4F80831 		ldr	r3, [r4, #264]
 130:Components/Algorithm/QuaternionEKF.c ****     qekf_ins->IMU_QuaternionEKF.F_data[3] = -halfgzdt;
 1538              		.loc 1 130 45 view .LVU564
 1539 009e F1EE486A 		vneg.f32	s13, s16
 130:Components/Algorithm/QuaternionEKF.c ****     qekf_ins->IMU_QuaternionEKF.F_data[3] = -halfgzdt;
 1540              		.loc 1 130 43 view .LVU565
 1541 00a2 C3ED026A 		vstr.32	s13, [r3, #8]
 131:Components/Algorithm/QuaternionEKF.c **** 
 1542              		.loc 1 131 5 is_stmt 1 view .LVU566
 131:Components/Algorithm/QuaternionEKF.c **** 
 1543              		.loc 1 131 32 is_stmt 0 view .LVU567
 1544 00a6 D4F80831 		ldr	r3, [r4, #264]
 131:Components/Algorithm/QuaternionEKF.c **** 
 1545              		.loc 1 131 45 view .LVU568
 1546 00aa B1EE687A 		vneg.f32	s14, s17
 131:Components/Algorithm/QuaternionEKF.c **** 
 1547              		.loc 1 131 43 view .LVU569
 1548 00ae 83ED037A 		vstr.32	s14, [r3, #12]
 133:Components/Algorithm/QuaternionEKF.c ****     qekf_ins->IMU_QuaternionEKF.F_data[8] = halfgzdt;
 1549              		.loc 1 133 5 is_stmt 1 view .LVU570
 133:Components/Algorithm/QuaternionEKF.c ****     qekf_ins->IMU_QuaternionEKF.F_data[8] = halfgzdt;
 1550              		.loc 1 133 32 is_stmt 0 view .LVU571
 1551 00b2 D4F80831 		ldr	r3, [r4, #264]
 133:Components/Algorithm/QuaternionEKF.c ****     qekf_ins->IMU_QuaternionEKF.F_data[8] = halfgzdt;
 1552              		.loc 1 133 43 view .LVU572
 1553 00b6 83ED069A 		vstr.32	s18, [r3, #24]
 134:Components/Algorithm/QuaternionEKF.c ****     qekf_ins->IMU_QuaternionEKF.F_data[9] = -halfgydt;
 1554              		.loc 1 134 5 is_stmt 1 view .LVU573
 134:Components/Algorithm/QuaternionEKF.c ****     qekf_ins->IMU_QuaternionEKF.F_data[9] = -halfgydt;
 1555              		.loc 1 134 32 is_stmt 0 view .LVU574
 1556 00ba D4F80831 		ldr	r3, [r4, #264]
 134:Components/Algorithm/QuaternionEKF.c ****     qekf_ins->IMU_QuaternionEKF.F_data[9] = -halfgydt;
 1557              		.loc 1 134 43 view .LVU575
 1558 00be C3ED088A 		vstr.32	s17, [r3, #32]
 135:Components/Algorithm/QuaternionEKF.c **** 
 1559              		.loc 1 135 5 is_stmt 1 view .LVU576
 135:Components/Algorithm/QuaternionEKF.c **** 
 1560              		.loc 1 135 32 is_stmt 0 view .LVU577
 1561 00c2 D4F80831 		ldr	r3, [r4, #264]
 135:Components/Algorithm/QuaternionEKF.c **** 
 1562              		.loc 1 135 43 view .LVU578
 1563 00c6 C3ED096A 		vstr.32	s13, [r3, #36]
 137:Components/Algorithm/QuaternionEKF.c ****     qekf_ins->IMU_QuaternionEKF.F_data[13] = -halfgzdt;
 1564              		.loc 1 137 5 is_stmt 1 view .LVU579
 137:Components/Algorithm/QuaternionEKF.c ****     qekf_ins->IMU_QuaternionEKF.F_data[13] = -halfgzdt;
 1565              		.loc 1 137 32 is_stmt 0 view .LVU580
 1566 00ca D4F80831 		ldr	r3, [r4, #264]
 137:Components/Algorithm/QuaternionEKF.c ****     qekf_ins->IMU_QuaternionEKF.F_data[13] = -halfgzdt;
 1567              		.loc 1 137 44 view .LVU581
 1568 00ce 83ED0C8A 		vstr.32	s16, [r3, #48]
 138:Components/Algorithm/QuaternionEKF.c ****     qekf_ins->IMU_QuaternionEKF.F_data[15] = halfgxdt;
 1569              		.loc 1 138 5 is_stmt 1 view .LVU582
 138:Components/Algorithm/QuaternionEKF.c ****     qekf_ins->IMU_QuaternionEKF.F_data[15] = halfgxdt;
 1570              		.loc 1 138 32 is_stmt 0 view .LVU583
 1571 00d2 D4F80831 		ldr	r3, [r4, #264]
 138:Components/Algorithm/QuaternionEKF.c ****     qekf_ins->IMU_QuaternionEKF.F_data[15] = halfgxdt;
 1572              		.loc 1 138 44 view .LVU584
ARM GAS  C:\Users\86152\AppData\Local\Temp\ccw7UxVh.s 			page 47


 1573 00d6 83ED0D7A 		vstr.32	s14, [r3, #52]
 139:Components/Algorithm/QuaternionEKF.c **** 
 1574              		.loc 1 139 5 is_stmt 1 view .LVU585
 139:Components/Algorithm/QuaternionEKF.c **** 
 1575              		.loc 1 139 32 is_stmt 0 view .LVU586
 1576 00da D4F80831 		ldr	r3, [r4, #264]
 139:Components/Algorithm/QuaternionEKF.c **** 
 1577              		.loc 1 139 44 view .LVU587
 1578 00de 83ED0F9A 		vstr.32	s18, [r3, #60]
 141:Components/Algorithm/QuaternionEKF.c ****     qekf_ins->IMU_QuaternionEKF.F_data[19] = halfgydt;
 1579              		.loc 1 141 5 is_stmt 1 view .LVU588
 141:Components/Algorithm/QuaternionEKF.c ****     qekf_ins->IMU_QuaternionEKF.F_data[19] = halfgydt;
 1580              		.loc 1 141 32 is_stmt 0 view .LVU589
 1581 00e2 D4F80831 		ldr	r3, [r4, #264]
 141:Components/Algorithm/QuaternionEKF.c ****     qekf_ins->IMU_QuaternionEKF.F_data[19] = halfgydt;
 1582              		.loc 1 141 44 view .LVU590
 1583 00e6 C3ED128A 		vstr.32	s17, [r3, #72]
 142:Components/Algorithm/QuaternionEKF.c ****     qekf_ins->IMU_QuaternionEKF.F_data[20] = -halfgxdt;
 1584              		.loc 1 142 5 is_stmt 1 view .LVU591
 142:Components/Algorithm/QuaternionEKF.c ****     qekf_ins->IMU_QuaternionEKF.F_data[20] = -halfgxdt;
 1585              		.loc 1 142 32 is_stmt 0 view .LVU592
 1586 00ea D4F80831 		ldr	r3, [r4, #264]
 142:Components/Algorithm/QuaternionEKF.c ****     qekf_ins->IMU_QuaternionEKF.F_data[20] = -halfgxdt;
 1587              		.loc 1 142 44 view .LVU593
 1588 00ee 83ED138A 		vstr.32	s16, [r3, #76]
 143:Components/Algorithm/QuaternionEKF.c **** 
 1589              		.loc 1 143 5 is_stmt 1 view .LVU594
 143:Components/Algorithm/QuaternionEKF.c **** 
 1590              		.loc 1 143 32 is_stmt 0 view .LVU595
 1591 00f2 D4F80831 		ldr	r3, [r4, #264]
 143:Components/Algorithm/QuaternionEKF.c **** 
 1592              		.loc 1 143 44 view .LVU596
 1593 00f6 C3ED147A 		vstr.32	s15, [r3, #80]
 146:Components/Algorithm/QuaternionEKF.c ****     {
 1594              		.loc 1 146 5 is_stmt 1 view .LVU597
 146:Components/Algorithm/QuaternionEKF.c ****     {
 1595              		.loc 1 146 17 is_stmt 0 view .LVU598
 1596 00fa D4F84821 		ldr	r2, [r4, #328]
 1597 00fe D4F84C31 		ldr	r3, [r4, #332]
 146:Components/Algorithm/QuaternionEKF.c ****     {
 1598              		.loc 1 146 8 view .LVU599
 1599 0102 1343     		orrs	r3, r2, r3
 1600 0104 05D1     		bne	.L71
 148:Components/Algorithm/QuaternionEKF.c ****         qekf_ins->Accel[1] = ay;
 1601              		.loc 1 148 9 is_stmt 1 view .LVU600
 148:Components/Algorithm/QuaternionEKF.c ****         qekf_ins->Accel[1] = ay;
 1602              		.loc 1 148 28 is_stmt 0 view .LVU601
 1603 0106 84ED5EBA 		vstr.32	s22, [r4, #376]
 149:Components/Algorithm/QuaternionEKF.c ****         qekf_ins->Accel[2] = az;
 1604              		.loc 1 149 9 is_stmt 1 view .LVU602
 149:Components/Algorithm/QuaternionEKF.c ****         qekf_ins->Accel[2] = az;
 1605              		.loc 1 149 28 is_stmt 0 view .LVU603
 1606 010a C4ED5FAA 		vstr.32	s21, [r4, #380]
 150:Components/Algorithm/QuaternionEKF.c ****     }
 1607              		.loc 1 150 9 is_stmt 1 view .LVU604
 150:Components/Algorithm/QuaternionEKF.c ****     }
 1608              		.loc 1 150 28 is_stmt 0 view .LVU605
ARM GAS  C:\Users\86152\AppData\Local\Temp\ccw7UxVh.s 			page 48


 1609 010e 84ED60AA 		vstr.32	s20, [r4, #384]
 1610              	.L71:
 152:Components/Algorithm/QuaternionEKF.c ****     qekf_ins->Accel[1] = qekf_ins->Accel[1] * qekf_ins->accLPFcoef / (qekf_ins->dt + qekf_ins->accL
 1611              		.loc 1 152 5 is_stmt 1 view .LVU606
 152:Components/Algorithm/QuaternionEKF.c ****     qekf_ins->Accel[1] = qekf_ins->Accel[1] * qekf_ins->accLPFcoef / (qekf_ins->dt + qekf_ins->accL
 1612              		.loc 1 152 41 is_stmt 0 view .LVU607
 1613 0112 94ED5E7A 		vldr.32	s14, [r4, #376]
 152:Components/Algorithm/QuaternionEKF.c ****     qekf_ins->Accel[1] = qekf_ins->Accel[1] * qekf_ins->accLPFcoef / (qekf_ins->dt + qekf_ins->accL
 1614              		.loc 1 152 55 view .LVU608
 1615 0116 D4ED647A 		vldr.32	s15, [r4, #400]
 152:Components/Algorithm/QuaternionEKF.c ****     qekf_ins->Accel[1] = qekf_ins->Accel[1] * qekf_ins->accLPFcoef / (qekf_ins->dt + qekf_ins->accL
 1616              		.loc 1 152 45 view .LVU609
 1617 011a 27EE277A 		vmul.f32	s14, s14, s15
 152:Components/Algorithm/QuaternionEKF.c ****     qekf_ins->Accel[1] = qekf_ins->Accel[1] * qekf_ins->accLPFcoef / (qekf_ins->dt + qekf_ins->accL
 1618              		.loc 1 152 79 view .LVU610
 1619 011e 94ED6F6A 		vldr.32	s12, [r4, #444]
 152:Components/Algorithm/QuaternionEKF.c ****     qekf_ins->Accel[1] = qekf_ins->Accel[1] * qekf_ins->accLPFcoef / (qekf_ins->dt + qekf_ins->accL
 1620              		.loc 1 152 84 view .LVU611
 1621 0122 77EE866A 		vadd.f32	s13, s15, s12
 152:Components/Algorithm/QuaternionEKF.c ****     qekf_ins->Accel[1] = qekf_ins->Accel[1] * qekf_ins->accLPFcoef / (qekf_ins->dt + qekf_ins->accL
 1622              		.loc 1 152 68 view .LVU612
 1623 0126 87EE260A 		vdiv.f32	s0, s14, s13
 152:Components/Algorithm/QuaternionEKF.c ****     qekf_ins->Accel[1] = qekf_ins->Accel[1] * qekf_ins->accLPFcoef / (qekf_ins->dt + qekf_ins->accL
 1624              		.loc 1 152 113 view .LVU613
 1625 012a 26EE0BBA 		vmul.f32	s22, s12, s22
 1626              	.LVL84:
 152:Components/Algorithm/QuaternionEKF.c ****     qekf_ins->Accel[1] = qekf_ins->Accel[1] * qekf_ins->accLPFcoef / (qekf_ins->dt + qekf_ins->accL
 1627              		.loc 1 152 128 view .LVU614
 1628 012e 8BEE267A 		vdiv.f32	s14, s22, s13
 152:Components/Algorithm/QuaternionEKF.c ****     qekf_ins->Accel[1] = qekf_ins->Accel[1] * qekf_ins->accLPFcoef / (qekf_ins->dt + qekf_ins->accL
 1629              		.loc 1 152 108 view .LVU615
 1630 0132 30EE070A 		vadd.f32	s0, s0, s14
 152:Components/Algorithm/QuaternionEKF.c ****     qekf_ins->Accel[1] = qekf_ins->Accel[1] * qekf_ins->accLPFcoef / (qekf_ins->dt + qekf_ins->accL
 1631              		.loc 1 152 24 view .LVU616
 1632 0136 84ED5E0A 		vstr.32	s0, [r4, #376]
 153:Components/Algorithm/QuaternionEKF.c ****     qekf_ins->Accel[2] = qekf_ins->Accel[2] * qekf_ins->accLPFcoef / (qekf_ins->dt + qekf_ins->accL
 1633              		.loc 1 153 5 is_stmt 1 view .LVU617
 153:Components/Algorithm/QuaternionEKF.c ****     qekf_ins->Accel[2] = qekf_ins->Accel[2] * qekf_ins->accLPFcoef / (qekf_ins->dt + qekf_ins->accL
 1634              		.loc 1 153 41 is_stmt 0 view .LVU618
 1635 013a D4ED5F5A 		vldr.32	s11, [r4, #380]
 153:Components/Algorithm/QuaternionEKF.c ****     qekf_ins->Accel[2] = qekf_ins->Accel[2] * qekf_ins->accLPFcoef / (qekf_ins->dt + qekf_ins->accL
 1636              		.loc 1 153 45 view .LVU619
 1637 013e 67EEA55A 		vmul.f32	s11, s15, s11
 153:Components/Algorithm/QuaternionEKF.c ****     qekf_ins->Accel[2] = qekf_ins->Accel[2] * qekf_ins->accLPFcoef / (qekf_ins->dt + qekf_ins->accL
 1638              		.loc 1 153 68 view .LVU620
 1639 0142 85EEA67A 		vdiv.f32	s14, s11, s13
 153:Components/Algorithm/QuaternionEKF.c ****     qekf_ins->Accel[2] = qekf_ins->Accel[2] * qekf_ins->accLPFcoef / (qekf_ins->dt + qekf_ins->accL
 1640              		.loc 1 153 113 view .LVU621
 1641 0146 66EE2AAA 		vmul.f32	s21, s12, s21
 1642              	.LVL85:
 153:Components/Algorithm/QuaternionEKF.c ****     qekf_ins->Accel[2] = qekf_ins->Accel[2] * qekf_ins->accLPFcoef / (qekf_ins->dt + qekf_ins->accL
 1643              		.loc 1 153 128 view .LVU622
 1644 014a CAEEA65A 		vdiv.f32	s11, s21, s13
 153:Components/Algorithm/QuaternionEKF.c ****     qekf_ins->Accel[2] = qekf_ins->Accel[2] * qekf_ins->accLPFcoef / (qekf_ins->dt + qekf_ins->accL
 1645              		.loc 1 153 108 view .LVU623
 1646 014e 37EE257A 		vadd.f32	s14, s14, s11
 153:Components/Algorithm/QuaternionEKF.c ****     qekf_ins->Accel[2] = qekf_ins->Accel[2] * qekf_ins->accLPFcoef / (qekf_ins->dt + qekf_ins->accL
ARM GAS  C:\Users\86152\AppData\Local\Temp\ccw7UxVh.s 			page 49


 1647              		.loc 1 153 24 view .LVU624
 1648 0152 84ED5F7A 		vstr.32	s14, [r4, #380]
 154:Components/Algorithm/QuaternionEKF.c **** 
 1649              		.loc 1 154 5 is_stmt 1 view .LVU625
 154:Components/Algorithm/QuaternionEKF.c **** 
 1650              		.loc 1 154 41 is_stmt 0 view .LVU626
 1651 0156 D4ED605A 		vldr.32	s11, [r4, #384]
 154:Components/Algorithm/QuaternionEKF.c **** 
 1652              		.loc 1 154 45 view .LVU627
 1653 015a 67EEA55A 		vmul.f32	s11, s15, s11
 154:Components/Algorithm/QuaternionEKF.c **** 
 1654              		.loc 1 154 68 view .LVU628
 1655 015e C5EEA67A 		vdiv.f32	s15, s11, s13
 154:Components/Algorithm/QuaternionEKF.c **** 
 1656              		.loc 1 154 113 view .LVU629
 1657 0162 26EE0A6A 		vmul.f32	s12, s12, s20
 154:Components/Algorithm/QuaternionEKF.c **** 
 1658              		.loc 1 154 128 view .LVU630
 1659 0166 C6EE265A 		vdiv.f32	s11, s12, s13
 154:Components/Algorithm/QuaternionEKF.c **** 
 1660              		.loc 1 154 108 view .LVU631
 1661 016a 77EEA57A 		vadd.f32	s15, s15, s11
 154:Components/Algorithm/QuaternionEKF.c **** 
 1662              		.loc 1 154 24 view .LVU632
 1663 016e C4ED607A 		vstr.32	s15, [r4, #384]
 157:Components/Algorithm/QuaternionEKF.c ****     for (uint8_t i = 0; i < 3; i++)
 1664              		.loc 1 157 5 is_stmt 1 view .LVU633
 157:Components/Algorithm/QuaternionEKF.c ****     for (uint8_t i = 0; i < 3; i++)
 1665              		.loc 1 157 47 is_stmt 0 view .LVU634
 1666 0172 20EE000A 		vmul.f32	s0, s0, s0
 157:Components/Algorithm/QuaternionEKF.c ****     for (uint8_t i = 0; i < 3; i++)
 1667              		.loc 1 157 89 view .LVU635
 1668 0176 27EE077A 		vmul.f32	s14, s14, s14
 157:Components/Algorithm/QuaternionEKF.c ****     for (uint8_t i = 0; i < 3; i++)
 1669              		.loc 1 157 68 view .LVU636
 1670 017a 30EE070A 		vadd.f32	s0, s0, s14
 157:Components/Algorithm/QuaternionEKF.c ****     for (uint8_t i = 0; i < 3; i++)
 1671              		.loc 1 157 131 view .LVU637
 1672 017e 67EEA77A 		vmul.f32	s15, s15, s15
 157:Components/Algorithm/QuaternionEKF.c ****     for (uint8_t i = 0; i < 3; i++)
 1673              		.loc 1 157 20 view .LVU638
 1674 0182 30EE270A 		vadd.f32	s0, s0, s15
 1675 0186 FFF7FEFF 		bl	invSqrt
 1676              	.LVL86:
 1677 018a B0EE408A 		vmov.f32	s16, s0
 157:Components/Algorithm/QuaternionEKF.c ****     for (uint8_t i = 0; i < 3; i++)
 1678              		.loc 1 157 18 view .LVU639
 1679 018e 694B     		ldr	r3, .L84+16
 1680 0190 83ED000A 		vstr.32	s0, [r3]
 158:Components/Algorithm/QuaternionEKF.c ****     {
 1681              		.loc 1 158 5 is_stmt 1 view .LVU640
 1682              	.LBB8:
 158:Components/Algorithm/QuaternionEKF.c ****     {
 1683              		.loc 1 158 10 view .LVU641
 1684              	.LVL87:
 158:Components/Algorithm/QuaternionEKF.c ****     {
 1685              		.loc 1 158 18 is_stmt 0 view .LVU642
ARM GAS  C:\Users\86152\AppData\Local\Temp\ccw7UxVh.s 			page 50


 1686 0194 0023     		movs	r3, #0
 158:Components/Algorithm/QuaternionEKF.c ****     {
 1687              		.loc 1 158 5 view .LVU643
 1688 0196 1BE0     		b	.L72
 1689              	.LVL88:
 1690              	.L83:
 158:Components/Algorithm/QuaternionEKF.c ****     {
 1691              		.loc 1 158 5 view .LVU644
 1692              	.LBE8:
 103:Components/Algorithm/QuaternionEKF.c ****     }
 1693              		.loc 1 103 9 is_stmt 1 view .LVU645
 1694 0198 9FED672A 		vldr.32	s4, .L84+20
 1695              	.LVL89:
 103:Components/Algorithm/QuaternionEKF.c ****     }
 1696              		.loc 1 103 9 is_stmt 0 view .LVU646
 1697 019c F7EE001A 		vmov.f32	s3, #1.0e+0
 1698              	.LVL90:
 103:Components/Algorithm/QuaternionEKF.c ****     }
 1699              		.loc 1 103 9 view .LVU647
 1700 01a0 9FED661A 		vldr.32	s2, .L84+24
 1701              	.LVL91:
 103:Components/Algorithm/QuaternionEKF.c ****     }
 1702              		.loc 1 103 9 view .LVU648
 1703 01a4 DFED660A 		vldr.32	s1, .L84+28
 1704              	.LVL92:
 103:Components/Algorithm/QuaternionEKF.c ****     }
 1705              		.loc 1 103 9 view .LVU649
 1706 01a8 B2EE040A 		vmov.f32	s0, #1.0e+1
 1707              	.LVL93:
 103:Components/Algorithm/QuaternionEKF.c ****     }
 1708              		.loc 1 103 9 view .LVU650
 1709 01ac FFF7FEFF 		bl	IMU_QuaternionEKF_Init
 1710              	.LVL94:
 103:Components/Algorithm/QuaternionEKF.c ****     }
 1711              		.loc 1 103 9 view .LVU651
 1712 01b0 3CE7     		b	.L70
 1713              	.LVL95:
 1714              	.L73:
 1715              	.LBB9:
 160:Components/Algorithm/QuaternionEKF.c ****     }
 1716              		.loc 1 160 9 is_stmt 1 discriminator 3 view .LVU652
 160:Components/Algorithm/QuaternionEKF.c ****     }
 1717              		.loc 1 160 72 is_stmt 0 discriminator 3 view .LVU653
 1718 01b2 03F15E02 		add	r2, r3, #94
 1719 01b6 04EB8202 		add	r2, r4, r2, lsl #2
 1720 01ba D2ED007A 		vldr.32	s15, [r2]
 160:Components/Algorithm/QuaternionEKF.c ****     }
 1721              		.loc 1 160 36 discriminator 3 view .LVU654
 1722 01be A268     		ldr	r2, [r4, #8]
 160:Components/Algorithm/QuaternionEKF.c ****     }
 1723              		.loc 1 160 51 discriminator 3 view .LVU655
 1724 01c0 02EB8302 		add	r2, r2, r3, lsl #2
 160:Components/Algorithm/QuaternionEKF.c ****     }
 1725              		.loc 1 160 76 discriminator 3 view .LVU656
 1726 01c4 68EE277A 		vmul.f32	s15, s16, s15
 160:Components/Algorithm/QuaternionEKF.c ****     }
 1727              		.loc 1 160 55 discriminator 3 view .LVU657
ARM GAS  C:\Users\86152\AppData\Local\Temp\ccw7UxVh.s 			page 51


 1728 01c8 C2ED007A 		vstr.32	s15, [r2]
 158:Components/Algorithm/QuaternionEKF.c ****     {
 1729              		.loc 1 158 32 is_stmt 1 discriminator 3 view .LVU658
 158:Components/Algorithm/QuaternionEKF.c ****     {
 1730              		.loc 1 158 33 is_stmt 0 discriminator 3 view .LVU659
 1731 01cc 0133     		adds	r3, r3, #1
 1732              	.LVL96:
 158:Components/Algorithm/QuaternionEKF.c ****     {
 1733              		.loc 1 158 33 discriminator 3 view .LVU660
 1734 01ce DBB2     		uxtb	r3, r3
 1735              	.LVL97:
 1736              	.L72:
 158:Components/Algorithm/QuaternionEKF.c ****     {
 1737              		.loc 1 158 25 is_stmt 1 discriminator 1 view .LVU661
 158:Components/Algorithm/QuaternionEKF.c ****     {
 1738              		.loc 1 158 5 is_stmt 0 discriminator 1 view .LVU662
 1739 01d0 022B     		cmp	r3, #2
 1740 01d2 EED9     		bls	.L73
 1741              	.LBE9:
 164:Components/Algorithm/QuaternionEKF.c ****                                          qekf_ins->Gyro[1] * qekf_ins->Gyro[1] +
 1742              		.loc 1 164 5 is_stmt 1 view .LVU663
 164:Components/Algorithm/QuaternionEKF.c ****                                          qekf_ins->Gyro[1] * qekf_ins->Gyro[1] +
 1743              		.loc 1 164 56 is_stmt 0 view .LVU664
 1744 01d4 94ED5B0A 		vldr.32	s0, [r4, #364]
 164:Components/Algorithm/QuaternionEKF.c ****                                          qekf_ins->Gyro[1] * qekf_ins->Gyro[1] +
 1745              		.loc 1 164 60 view .LVU665
 1746 01d8 20EE000A 		vmul.f32	s0, s0, s0
 165:Components/Algorithm/QuaternionEKF.c ****                                          qekf_ins->Gyro[2] * qekf_ins->Gyro[2]);
 1747              		.loc 1 165 56 view .LVU666
 1748 01dc D4ED5C7A 		vldr.32	s15, [r4, #368]
 165:Components/Algorithm/QuaternionEKF.c ****                                          qekf_ins->Gyro[2] * qekf_ins->Gyro[2]);
 1749              		.loc 1 165 60 view .LVU667
 1750 01e0 67EEA77A 		vmul.f32	s15, s15, s15
 164:Components/Algorithm/QuaternionEKF.c ****                                          qekf_ins->Gyro[1] * qekf_ins->Gyro[1] +
 1751              		.loc 1 164 80 view .LVU668
 1752 01e4 30EE270A 		vadd.f32	s0, s0, s15
 166:Components/Algorithm/QuaternionEKF.c ****     qekf_ins->accl_norm = 1.0f / accelInvNorm;
 1753              		.loc 1 166 56 view .LVU669
 1754 01e8 D4ED5D7A 		vldr.32	s15, [r4, #372]
 166:Components/Algorithm/QuaternionEKF.c ****     qekf_ins->accl_norm = 1.0f / accelInvNorm;
 1755              		.loc 1 166 60 view .LVU670
 1756 01ec 67EEA77A 		vmul.f32	s15, s15, s15
 164:Components/Algorithm/QuaternionEKF.c ****                                          qekf_ins->Gyro[1] * qekf_ins->Gyro[1] +
 1757              		.loc 1 164 34 view .LVU671
 1758 01f0 30EE270A 		vadd.f32	s0, s0, s15
 1759 01f4 FFF7FEFF 		bl	invSqrt
 1760              	.LVL98:
 164:Components/Algorithm/QuaternionEKF.c ****                                          qekf_ins->Gyro[1] * qekf_ins->Gyro[1] +
 1761              		.loc 1 164 32 view .LVU672
 1762 01f8 B7EE007A 		vmov.f32	s14, #1.0e+0
 1763 01fc C7EE007A 		vdiv.f32	s15, s14, s0
 164:Components/Algorithm/QuaternionEKF.c ****                                          qekf_ins->Gyro[1] * qekf_ins->Gyro[1] +
 1764              		.loc 1 164 25 view .LVU673
 1765 0200 C4ED657A 		vstr.32	s15, [r4, #404]
 167:Components/Algorithm/QuaternionEKF.c **** 
 1766              		.loc 1 167 5 is_stmt 1 view .LVU674
 167:Components/Algorithm/QuaternionEKF.c **** 
ARM GAS  C:\Users\86152\AppData\Local\Temp\ccw7UxVh.s 			page 52


 1767              		.loc 1 167 32 is_stmt 0 view .LVU675
 1768 0204 C7EE086A 		vdiv.f32	s13, s14, s16
 167:Components/Algorithm/QuaternionEKF.c **** 
 1769              		.loc 1 167 25 view .LVU676
 1770 0208 C4ED666A 		vstr.32	s13, [r4, #408]
 171:Components/Algorithm/QuaternionEKF.c ****     {
 1771              		.loc 1 171 5 is_stmt 1 view .LVU677
 171:Components/Algorithm/QuaternionEKF.c ****     {
 1772              		.loc 1 171 8 is_stmt 0 view .LVU678
 1773 020c 9FED4D7A 		vldr.32	s14, .L84+32
 1774 0210 F4EEC77A 		vcmpe.f32	s15, s14
 1775 0214 F1EE10FA 		vmrs	APSR_nzcv, FPSCR
 1776 0218 11D5     		bpl	.L74
 171:Components/Algorithm/QuaternionEKF.c ****     {
 1777              		.loc 1 171 36 discriminator 1 view .LVU679
 1778 021a DFED4B7A 		vldr.32	s15, .L84+36
 1779 021e F4EEE76A 		vcmpe.f32	s13, s15
 1780 0222 F1EE10FA 		vmrs	APSR_nzcv, FPSCR
 1781 0226 0ADD     		ble	.L74
 171:Components/Algorithm/QuaternionEKF.c ****     {
 1782              		.loc 1 171 73 discriminator 2 view .LVU680
 1783 0228 DFED487A 		vldr.32	s15, .L84+40
 1784 022c F4EEE76A 		vcmpe.f32	s13, s15
 1785 0230 F1EE10FA 		vmrs	APSR_nzcv, FPSCR
 1786 0234 03D5     		bpl	.L74
 173:Components/Algorithm/QuaternionEKF.c ****     }
 1787              		.loc 1 173 9 is_stmt 1 view .LVU681
 173:Components/Algorithm/QuaternionEKF.c ****     }
 1788              		.loc 1 173 30 is_stmt 0 view .LVU682
 1789 0236 0123     		movs	r3, #1
 1790 0238 84F83D31 		strb	r3, [r4, #317]
 1791 023c 02E0     		b	.L78
 1792              	.L74:
 177:Components/Algorithm/QuaternionEKF.c ****     }
 1793              		.loc 1 177 9 is_stmt 1 view .LVU683
 177:Components/Algorithm/QuaternionEKF.c ****     }
 1794              		.loc 1 177 30 is_stmt 0 view .LVU684
 1795 023e 0023     		movs	r3, #0
 1796 0240 84F83D31 		strb	r3, [r4, #317]
 1797              	.L78:
 181:Components/Algorithm/QuaternionEKF.c ****     qekf_ins->IMU_QuaternionEKF.Q_data[7] = qekf_ins->Q1 * qekf_ins->dt;
 1798              		.loc 1 181 5 is_stmt 1 view .LVU685
 181:Components/Algorithm/QuaternionEKF.c ****     qekf_ins->IMU_QuaternionEKF.Q_data[7] = qekf_ins->Q1 * qekf_ins->dt;
 1799              		.loc 1 181 53 is_stmt 0 view .LVU686
 1800 0244 D4ED6C7A 		vldr.32	s15, [r4, #432]
 181:Components/Algorithm/QuaternionEKF.c ****     qekf_ins->IMU_QuaternionEKF.Q_data[7] = qekf_ins->Q1 * qekf_ins->dt;
 1801              		.loc 1 181 68 view .LVU687
 1802 0248 94ED6F7A 		vldr.32	s14, [r4, #444]
 181:Components/Algorithm/QuaternionEKF.c ****     qekf_ins->IMU_QuaternionEKF.Q_data[7] = qekf_ins->Q1 * qekf_ins->dt;
 1803              		.loc 1 181 32 view .LVU688
 1804 024c D4F81C31 		ldr	r3, [r4, #284]
 181:Components/Algorithm/QuaternionEKF.c ****     qekf_ins->IMU_QuaternionEKF.Q_data[7] = qekf_ins->Q1 * qekf_ins->dt;
 1805              		.loc 1 181 58 view .LVU689
 1806 0250 67EE877A 		vmul.f32	s15, s15, s14
 181:Components/Algorithm/QuaternionEKF.c ****     qekf_ins->IMU_QuaternionEKF.Q_data[7] = qekf_ins->Q1 * qekf_ins->dt;
 1807              		.loc 1 181 43 view .LVU690
 1808 0254 C3ED007A 		vstr.32	s15, [r3]
ARM GAS  C:\Users\86152\AppData\Local\Temp\ccw7UxVh.s 			page 53


 182:Components/Algorithm/QuaternionEKF.c ****     qekf_ins->IMU_QuaternionEKF.Q_data[14] = qekf_ins->Q1 * qekf_ins->dt;
 1809              		.loc 1 182 5 is_stmt 1 view .LVU691
 182:Components/Algorithm/QuaternionEKF.c ****     qekf_ins->IMU_QuaternionEKF.Q_data[14] = qekf_ins->Q1 * qekf_ins->dt;
 1810              		.loc 1 182 53 is_stmt 0 view .LVU692
 1811 0258 D4ED6C7A 		vldr.32	s15, [r4, #432]
 182:Components/Algorithm/QuaternionEKF.c ****     qekf_ins->IMU_QuaternionEKF.Q_data[14] = qekf_ins->Q1 * qekf_ins->dt;
 1812              		.loc 1 182 68 view .LVU693
 1813 025c 94ED6F7A 		vldr.32	s14, [r4, #444]
 182:Components/Algorithm/QuaternionEKF.c ****     qekf_ins->IMU_QuaternionEKF.Q_data[14] = qekf_ins->Q1 * qekf_ins->dt;
 1814              		.loc 1 182 32 view .LVU694
 1815 0260 D4F81C31 		ldr	r3, [r4, #284]
 182:Components/Algorithm/QuaternionEKF.c ****     qekf_ins->IMU_QuaternionEKF.Q_data[14] = qekf_ins->Q1 * qekf_ins->dt;
 1816              		.loc 1 182 58 view .LVU695
 1817 0264 67EE877A 		vmul.f32	s15, s15, s14
 182:Components/Algorithm/QuaternionEKF.c ****     qekf_ins->IMU_QuaternionEKF.Q_data[14] = qekf_ins->Q1 * qekf_ins->dt;
 1818              		.loc 1 182 43 view .LVU696
 1819 0268 C3ED077A 		vstr.32	s15, [r3, #28]
 183:Components/Algorithm/QuaternionEKF.c ****     qekf_ins->IMU_QuaternionEKF.Q_data[21] = qekf_ins->Q1 * qekf_ins->dt;
 1820              		.loc 1 183 5 is_stmt 1 view .LVU697
 183:Components/Algorithm/QuaternionEKF.c ****     qekf_ins->IMU_QuaternionEKF.Q_data[21] = qekf_ins->Q1 * qekf_ins->dt;
 1821              		.loc 1 183 54 is_stmt 0 view .LVU698
 1822 026c D4ED6C7A 		vldr.32	s15, [r4, #432]
 183:Components/Algorithm/QuaternionEKF.c ****     qekf_ins->IMU_QuaternionEKF.Q_data[21] = qekf_ins->Q1 * qekf_ins->dt;
 1823              		.loc 1 183 69 view .LVU699
 1824 0270 94ED6F7A 		vldr.32	s14, [r4, #444]
 183:Components/Algorithm/QuaternionEKF.c ****     qekf_ins->IMU_QuaternionEKF.Q_data[21] = qekf_ins->Q1 * qekf_ins->dt;
 1825              		.loc 1 183 32 view .LVU700
 1826 0274 D4F81C31 		ldr	r3, [r4, #284]
 183:Components/Algorithm/QuaternionEKF.c ****     qekf_ins->IMU_QuaternionEKF.Q_data[21] = qekf_ins->Q1 * qekf_ins->dt;
 1827              		.loc 1 183 59 view .LVU701
 1828 0278 67EE877A 		vmul.f32	s15, s15, s14
 183:Components/Algorithm/QuaternionEKF.c ****     qekf_ins->IMU_QuaternionEKF.Q_data[21] = qekf_ins->Q1 * qekf_ins->dt;
 1829              		.loc 1 183 44 view .LVU702
 1830 027c C3ED0E7A 		vstr.32	s15, [r3, #56]
 184:Components/Algorithm/QuaternionEKF.c ****     qekf_ins->IMU_QuaternionEKF.Q_data[28] = qekf_ins->Q2 * qekf_ins->dt;
 1831              		.loc 1 184 5 is_stmt 1 view .LVU703
 184:Components/Algorithm/QuaternionEKF.c ****     qekf_ins->IMU_QuaternionEKF.Q_data[28] = qekf_ins->Q2 * qekf_ins->dt;
 1832              		.loc 1 184 54 is_stmt 0 view .LVU704
 1833 0280 D4ED6C7A 		vldr.32	s15, [r4, #432]
 184:Components/Algorithm/QuaternionEKF.c ****     qekf_ins->IMU_QuaternionEKF.Q_data[28] = qekf_ins->Q2 * qekf_ins->dt;
 1834              		.loc 1 184 69 view .LVU705
 1835 0284 94ED6F7A 		vldr.32	s14, [r4, #444]
 184:Components/Algorithm/QuaternionEKF.c ****     qekf_ins->IMU_QuaternionEKF.Q_data[28] = qekf_ins->Q2 * qekf_ins->dt;
 1836              		.loc 1 184 32 view .LVU706
 1837 0288 D4F81C31 		ldr	r3, [r4, #284]
 184:Components/Algorithm/QuaternionEKF.c ****     qekf_ins->IMU_QuaternionEKF.Q_data[28] = qekf_ins->Q2 * qekf_ins->dt;
 1838              		.loc 1 184 59 view .LVU707
 1839 028c 67EE877A 		vmul.f32	s15, s15, s14
 184:Components/Algorithm/QuaternionEKF.c ****     qekf_ins->IMU_QuaternionEKF.Q_data[28] = qekf_ins->Q2 * qekf_ins->dt;
 1840              		.loc 1 184 44 view .LVU708
 1841 0290 C3ED157A 		vstr.32	s15, [r3, #84]
 185:Components/Algorithm/QuaternionEKF.c ****     qekf_ins->IMU_QuaternionEKF.Q_data[35] = qekf_ins->Q2 * qekf_ins->dt;
 1842              		.loc 1 185 5 is_stmt 1 view .LVU709
 185:Components/Algorithm/QuaternionEKF.c ****     qekf_ins->IMU_QuaternionEKF.Q_data[35] = qekf_ins->Q2 * qekf_ins->dt;
 1843              		.loc 1 185 54 is_stmt 0 view .LVU710
 1844 0294 D4ED6D7A 		vldr.32	s15, [r4, #436]
 185:Components/Algorithm/QuaternionEKF.c ****     qekf_ins->IMU_QuaternionEKF.Q_data[35] = qekf_ins->Q2 * qekf_ins->dt;
ARM GAS  C:\Users\86152\AppData\Local\Temp\ccw7UxVh.s 			page 54


 1845              		.loc 1 185 69 view .LVU711
 1846 0298 94ED6F7A 		vldr.32	s14, [r4, #444]
 185:Components/Algorithm/QuaternionEKF.c ****     qekf_ins->IMU_QuaternionEKF.Q_data[35] = qekf_ins->Q2 * qekf_ins->dt;
 1847              		.loc 1 185 32 view .LVU712
 1848 029c D4F81C31 		ldr	r3, [r4, #284]
 185:Components/Algorithm/QuaternionEKF.c ****     qekf_ins->IMU_QuaternionEKF.Q_data[35] = qekf_ins->Q2 * qekf_ins->dt;
 1849              		.loc 1 185 59 view .LVU713
 1850 02a0 67EE877A 		vmul.f32	s15, s15, s14
 185:Components/Algorithm/QuaternionEKF.c ****     qekf_ins->IMU_QuaternionEKF.Q_data[35] = qekf_ins->Q2 * qekf_ins->dt;
 1851              		.loc 1 185 44 view .LVU714
 1852 02a4 C3ED1C7A 		vstr.32	s15, [r3, #112]
 186:Components/Algorithm/QuaternionEKF.c ****     qekf_ins->IMU_QuaternionEKF.R_data[0] = qekf_ins->R;
 1853              		.loc 1 186 5 is_stmt 1 view .LVU715
 186:Components/Algorithm/QuaternionEKF.c ****     qekf_ins->IMU_QuaternionEKF.R_data[0] = qekf_ins->R;
 1854              		.loc 1 186 54 is_stmt 0 view .LVU716
 1855 02a8 D4ED6D7A 		vldr.32	s15, [r4, #436]
 186:Components/Algorithm/QuaternionEKF.c ****     qekf_ins->IMU_QuaternionEKF.R_data[0] = qekf_ins->R;
 1856              		.loc 1 186 69 view .LVU717
 1857 02ac 94ED6F7A 		vldr.32	s14, [r4, #444]
 186:Components/Algorithm/QuaternionEKF.c ****     qekf_ins->IMU_QuaternionEKF.R_data[0] = qekf_ins->R;
 1858              		.loc 1 186 32 view .LVU718
 1859 02b0 D4F81C31 		ldr	r3, [r4, #284]
 186:Components/Algorithm/QuaternionEKF.c ****     qekf_ins->IMU_QuaternionEKF.R_data[0] = qekf_ins->R;
 1860              		.loc 1 186 59 view .LVU719
 1861 02b4 67EE877A 		vmul.f32	s15, s15, s14
 186:Components/Algorithm/QuaternionEKF.c ****     qekf_ins->IMU_QuaternionEKF.R_data[0] = qekf_ins->R;
 1862              		.loc 1 186 44 view .LVU720
 1863 02b8 C3ED237A 		vstr.32	s15, [r3, #140]
 187:Components/Algorithm/QuaternionEKF.c ****     qekf_ins->IMU_QuaternionEKF.R_data[4] = qekf_ins->R;
 1864              		.loc 1 187 5 is_stmt 1 view .LVU721
 187:Components/Algorithm/QuaternionEKF.c ****     qekf_ins->IMU_QuaternionEKF.R_data[4] = qekf_ins->R;
 1865              		.loc 1 187 32 is_stmt 0 view .LVU722
 1866 02bc D4F82021 		ldr	r2, [r4, #288]
 187:Components/Algorithm/QuaternionEKF.c ****     qekf_ins->IMU_QuaternionEKF.R_data[4] = qekf_ins->R;
 1867              		.loc 1 187 53 view .LVU723
 1868 02c0 D4F8B831 		ldr	r3, [r4, #440]	@ float
 187:Components/Algorithm/QuaternionEKF.c ****     qekf_ins->IMU_QuaternionEKF.R_data[4] = qekf_ins->R;
 1869              		.loc 1 187 43 view .LVU724
 1870 02c4 1360     		str	r3, [r2]	@ float
 188:Components/Algorithm/QuaternionEKF.c ****     qekf_ins->IMU_QuaternionEKF.R_data[8] = qekf_ins->R;
 1871              		.loc 1 188 5 is_stmt 1 view .LVU725
 188:Components/Algorithm/QuaternionEKF.c ****     qekf_ins->IMU_QuaternionEKF.R_data[8] = qekf_ins->R;
 1872              		.loc 1 188 32 is_stmt 0 view .LVU726
 1873 02c6 D4F82021 		ldr	r2, [r4, #288]
 188:Components/Algorithm/QuaternionEKF.c ****     qekf_ins->IMU_QuaternionEKF.R_data[8] = qekf_ins->R;
 1874              		.loc 1 188 43 view .LVU727
 1875 02ca 1361     		str	r3, [r2, #16]	@ float
 189:Components/Algorithm/QuaternionEKF.c **** 
 1876              		.loc 1 189 5 is_stmt 1 view .LVU728
 189:Components/Algorithm/QuaternionEKF.c **** 
 1877              		.loc 1 189 32 is_stmt 0 view .LVU729
 1878 02cc D4F82031 		ldr	r3, [r4, #288]
 189:Components/Algorithm/QuaternionEKF.c **** 
 1879              		.loc 1 189 53 view .LVU730
 1880 02d0 D4F8B821 		ldr	r2, [r4, #440]	@ float
 189:Components/Algorithm/QuaternionEKF.c **** 
 1881              		.loc 1 189 43 view .LVU731
ARM GAS  C:\Users\86152\AppData\Local\Temp\ccw7UxVh.s 			page 55


 1882 02d4 1A62     		str	r2, [r3, #32]	@ float
 192:Components/Algorithm/QuaternionEKF.c **** 
 1883              		.loc 1 192 5 is_stmt 1 view .LVU732
 1884 02d6 201D     		adds	r0, r4, #4
 1885 02d8 FFF7FEFF 		bl	Kalman_Filter_Update
 1886              	.LVL99:
 195:Components/Algorithm/QuaternionEKF.c ****     qekf_ins->q[1] = qekf_ins->IMU_QuaternionEKF.FilteredValue[1];
 1887              		.loc 1 195 5 view .LVU733
 195:Components/Algorithm/QuaternionEKF.c ****     qekf_ins->q[1] = qekf_ins->IMU_QuaternionEKF.FilteredValue[1];
 1888              		.loc 1 195 49 is_stmt 0 view .LVU734
 1889 02dc 6368     		ldr	r3, [r4, #4]
 195:Components/Algorithm/QuaternionEKF.c ****     qekf_ins->q[1] = qekf_ins->IMU_QuaternionEKF.FilteredValue[1];
 1890              		.loc 1 195 63 view .LVU735
 1891 02de 1A68     		ldr	r2, [r3]	@ float
 195:Components/Algorithm/QuaternionEKF.c ****     qekf_ins->q[1] = qekf_ins->IMU_QuaternionEKF.FilteredValue[1];
 1892              		.loc 1 195 20 view .LVU736
 1893 02e0 C4F85021 		str	r2, [r4, #336]	@ float
 196:Components/Algorithm/QuaternionEKF.c ****     qekf_ins->q[2] = qekf_ins->IMU_QuaternionEKF.FilteredValue[2];
 1894              		.loc 1 196 5 is_stmt 1 view .LVU737
 196:Components/Algorithm/QuaternionEKF.c ****     qekf_ins->q[2] = qekf_ins->IMU_QuaternionEKF.FilteredValue[2];
 1895              		.loc 1 196 20 is_stmt 0 view .LVU738
 1896 02e4 5A68     		ldr	r2, [r3, #4]	@ float
 1897 02e6 C4F85421 		str	r2, [r4, #340]	@ float
 197:Components/Algorithm/QuaternionEKF.c ****     qekf_ins->q[3] = qekf_ins->IMU_QuaternionEKF.FilteredValue[3];
 1898              		.loc 1 197 5 is_stmt 1 view .LVU739
 197:Components/Algorithm/QuaternionEKF.c ****     qekf_ins->q[3] = qekf_ins->IMU_QuaternionEKF.FilteredValue[3];
 1899              		.loc 1 197 20 is_stmt 0 view .LVU740
 1900 02ea 9A68     		ldr	r2, [r3, #8]	@ float
 1901 02ec C4F85821 		str	r2, [r4, #344]	@ float
 198:Components/Algorithm/QuaternionEKF.c ****     qekf_ins->GyroBias[0] = qekf_ins->IMU_QuaternionEKF.FilteredValue[4];
 1902              		.loc 1 198 5 is_stmt 1 view .LVU741
 198:Components/Algorithm/QuaternionEKF.c ****     qekf_ins->GyroBias[0] = qekf_ins->IMU_QuaternionEKF.FilteredValue[4];
 1903              		.loc 1 198 20 is_stmt 0 view .LVU742
 1904 02f0 DA68     		ldr	r2, [r3, #12]	@ float
 1905 02f2 C4F85C21 		str	r2, [r4, #348]	@ float
 199:Components/Algorithm/QuaternionEKF.c ****     qekf_ins->GyroBias[1] = qekf_ins->IMU_QuaternionEKF.FilteredValue[5];
 1906              		.loc 1 199 5 is_stmt 1 view .LVU743
 199:Components/Algorithm/QuaternionEKF.c ****     qekf_ins->GyroBias[1] = qekf_ins->IMU_QuaternionEKF.FilteredValue[5];
 1907              		.loc 1 199 27 is_stmt 0 view .LVU744
 1908 02f6 1A69     		ldr	r2, [r3, #16]	@ float
 1909 02f8 C4F86021 		str	r2, [r4, #352]	@ float
 200:Components/Algorithm/QuaternionEKF.c ****     qekf_ins->GyroBias[2] = 0; // Â§ßÈÉ®ÂàÜÊó∂ÂÄôzËΩ¥ÈÄöÂ§©,Êó†Ê≥ïËßÇÊµãyawÁöÑÊºÇÁßª
 1910              		.loc 1 200 5 is_stmt 1 view .LVU745
 200:Components/Algorithm/QuaternionEKF.c ****     qekf_ins->GyroBias[2] = 0; // Â§ßÈÉ®ÂàÜÊó∂ÂÄôzËΩ¥ÈÄöÂ§©,Êó†Ê≥ïËßÇÊµãyawÁöÑÊºÇÁßª
 1911              		.loc 1 200 27 is_stmt 0 view .LVU746
 1912 02fc 5B69     		ldr	r3, [r3, #20]	@ float
 1913 02fe C4F86431 		str	r3, [r4, #356]	@ float
 201:Components/Algorithm/QuaternionEKF.c **** 
 1914              		.loc 1 201 5 is_stmt 1 view .LVU747
 201:Components/Algorithm/QuaternionEKF.c **** 
 1915              		.loc 1 201 27 is_stmt 0 view .LVU748
 1916 0302 0023     		movs	r3, #0
 1917 0304 C4F86831 		str	r3, [r4, #360]	@ float
 219:Components/Algorithm/QuaternionEKF.c **** }
 1918              		.loc 1 219 5 is_stmt 1 view .LVU749
 219:Components/Algorithm/QuaternionEKF.c **** }
 1919              		.loc 1 219 13 is_stmt 0 view .LVU750
ARM GAS  C:\Users\86152\AppData\Local\Temp\ccw7UxVh.s 			page 56


 1920 0308 D4F84831 		ldr	r3, [r4, #328]
 1921 030c D4F84C21 		ldr	r2, [r4, #332]
 219:Components/Algorithm/QuaternionEKF.c **** }
 1922              		.loc 1 219 26 view .LVU751
 1923 0310 0133     		adds	r3, r3, #1
 1924 0312 42F10002 		adc	r2, r2, #0
 1925 0316 C4F84831 		str	r3, [r4, #328]
 1926 031a C4F84C21 		str	r2, [r4, #332]
 220:Components/Algorithm/QuaternionEKF.c **** 
 1927              		.loc 1 220 1 view .LVU752
 1928 031e BDEC088B 		vldm	sp!, {d8-d11}
 1929              	.LCFI14:
 1930              		.cfi_restore 86
 1931              		.cfi_restore 87
 1932              		.cfi_restore 84
 1933              		.cfi_restore 85
 1934              		.cfi_restore 82
 1935              		.cfi_restore 83
 1936              		.cfi_restore 80
 1937              		.cfi_restore 81
 1938              		.cfi_def_cfa_offset 8
 1939              	.LVL100:
 220:Components/Algorithm/QuaternionEKF.c **** 
 1940              		.loc 1 220 1 view .LVU753
 1941 0322 10BD     		pop	{r4, pc}
 1942              	.LVL101:
 1943              	.L85:
 220:Components/Algorithm/QuaternionEKF.c **** 
 1944              		.loc 1 220 1 view .LVU754
 1945              		.align	2
 1946              	.L84:
 1947 0324 00000000 		.word	.LANCHOR17
 1948 0328 00000000 		.word	.LANCHOR18
 1949 032c 00000000 		.word	.LANCHOR19
 1950 0330 00000000 		.word	.LANCHOR16
 1951 0334 00000000 		.word	.LANCHOR20
 1952 0338 00000000 		.word	0
 1953 033c 8096184B 		.word	1259902592
 1954 0340 6F12833A 		.word	981668463
 1955 0344 9A99993E 		.word	1050253722
 1956 0348 CDCC1441 		.word	1091882189
 1957 034c CDCC2441 		.word	1092930765
 1958              		.cfi_endproc
 1959              	.LFE164:
 1961              		.global	IMU_QuaternionEKF_H
 1962              		.global	IMU_QuaternionEKF_K
 1963              		.global	IMU_QuaternionEKF_P
 1964              		.global	IMU_QuaternionEKF_F
 1965              		.section	.bss.IMU_QuaternionEKF_H,"aw",%nobits
 1966              		.align	2
 1967              		.set	.LANCHOR7,. + 0
 1970              	IMU_QuaternionEKF_H:
 1971 0000 00000000 		.space	72
 1971      00000000 
 1971      00000000 
 1971      00000000 
 1971      00000000 
ARM GAS  C:\Users\86152\AppData\Local\Temp\ccw7UxVh.s 			page 57


 1972              		.section	.bss.IMU_QuaternionEKF_K,"aw",%nobits
 1973              		.align	2
 1974              		.set	.LANCHOR6,. + 0
 1977              	IMU_QuaternionEKF_K:
 1978 0000 00000000 		.space	72
 1978      00000000 
 1978      00000000 
 1978      00000000 
 1978      00000000 
 1979              		.section	.bss.accelInvNorm.0,"aw",%nobits
 1980              		.align	2
 1981              		.set	.LANCHOR20,. + 0
 1984              	accelInvNorm.0:
 1985 0000 00000000 		.space	4
 1986              		.section	.bss.doubleq0.12,"aw",%nobits
 1987              		.align	2
 1988              		.set	.LANCHOR12,. + 0
 1991              	doubleq0.12:
 1992 0000 00000000 		.space	4
 1993              		.section	.bss.doubleq1.11,"aw",%nobits
 1994              		.align	2
 1995              		.set	.LANCHOR13,. + 0
 1998              	doubleq1.11:
 1999 0000 00000000 		.space	4
 2000              		.section	.bss.doubleq2.10,"aw",%nobits
 2001              		.align	2
 2002              		.set	.LANCHOR14,. + 0
 2005              	doubleq2.10:
 2006 0000 00000000 		.space	4
 2007              		.section	.bss.doubleq3.9,"aw",%nobits
 2008              		.align	2
 2009              		.set	.LANCHOR15,. + 0
 2012              	doubleq3.9:
 2013 0000 00000000 		.space	4
 2014              		.section	.bss.halfgxdt.3,"aw",%nobits
 2015              		.align	2
 2016              		.set	.LANCHOR17,. + 0
 2019              	halfgxdt.3:
 2020 0000 00000000 		.space	4
 2021              		.section	.bss.halfgydt.2,"aw",%nobits
 2022              		.align	2
 2023              		.set	.LANCHOR18,. + 0
 2026              	halfgydt.2:
 2027 0000 00000000 		.space	4
 2028              		.section	.bss.halfgzdt.1,"aw",%nobits
 2029              		.align	2
 2030              		.set	.LANCHOR19,. + 0
 2033              	halfgzdt.1:
 2034 0000 00000000 		.space	4
 2035              		.section	.bss.q0.16,"aw",%nobits
 2036              		.align	2
 2037              		.set	.LANCHOR8,. + 0
 2040              	q0.16:
 2041 0000 00000000 		.space	4
 2042              		.section	.bss.q0.8,"aw",%nobits
 2043              		.align	2
 2044              		.set	.LANCHOR0,. + 0
ARM GAS  C:\Users\86152\AppData\Local\Temp\ccw7UxVh.s 			page 58


 2047              	q0.8:
 2048 0000 00000000 		.space	4
 2049              		.section	.bss.q1.15,"aw",%nobits
 2050              		.align	2
 2051              		.set	.LANCHOR9,. + 0
 2054              	q1.15:
 2055 0000 00000000 		.space	4
 2056              		.section	.bss.q1.7,"aw",%nobits
 2057              		.align	2
 2058              		.set	.LANCHOR1,. + 0
 2061              	q1.7:
 2062 0000 00000000 		.space	4
 2063              		.section	.bss.q2.14,"aw",%nobits
 2064              		.align	2
 2065              		.set	.LANCHOR10,. + 0
 2068              	q2.14:
 2069 0000 00000000 		.space	4
 2070              		.section	.bss.q2.6,"aw",%nobits
 2071              		.align	2
 2072              		.set	.LANCHOR2,. + 0
 2075              	q2.6:
 2076 0000 00000000 		.space	4
 2077              		.section	.bss.q3.13,"aw",%nobits
 2078              		.align	2
 2079              		.set	.LANCHOR11,. + 0
 2082              	q3.13:
 2083 0000 00000000 		.space	4
 2084              		.section	.bss.q3.5,"aw",%nobits
 2085              		.align	2
 2086              		.set	.LANCHOR3,. + 0
 2089              	q3.5:
 2090 0000 00000000 		.space	4
 2091              		.section	.bss.qInvNorm.4,"aw",%nobits
 2092              		.align	2
 2093              		.set	.LANCHOR4,. + 0
 2096              	qInvNorm.4:
 2097 0000 00000000 		.space	4
 2098              		.section	.data.IMU_QuaternionEKF_P,"aw"
 2099              		.align	2
 2100              		.set	.LANCHOR5,. + 0
 2103              	IMU_QuaternionEKF_P:
 2104 0000 0050C347 		.word	1203982336
 2105 0004 CDCCCC3D 		.word	1036831949
 2106 0008 CDCCCC3D 		.word	1036831949
 2107 000c CDCCCC3D 		.word	1036831949
 2108 0010 CDCCCC3D 		.word	1036831949
 2109 0014 CDCCCC3D 		.word	1036831949
 2110 0018 CDCCCC3D 		.word	1036831949
 2111 001c 0050C347 		.word	1203982336
 2112 0020 CDCCCC3D 		.word	1036831949
 2113 0024 CDCCCC3D 		.word	1036831949
 2114 0028 CDCCCC3D 		.word	1036831949
 2115 002c CDCCCC3D 		.word	1036831949
 2116 0030 CDCCCC3D 		.word	1036831949
 2117 0034 CDCCCC3D 		.word	1036831949
 2118 0038 0050C347 		.word	1203982336
 2119 003c CDCCCC3D 		.word	1036831949
ARM GAS  C:\Users\86152\AppData\Local\Temp\ccw7UxVh.s 			page 59


 2120 0040 CDCCCC3D 		.word	1036831949
 2121 0044 CDCCCC3D 		.word	1036831949
 2122 0048 CDCCCC3D 		.word	1036831949
 2123 004c CDCCCC3D 		.word	1036831949
 2124 0050 CDCCCC3D 		.word	1036831949
 2125 0054 0050C347 		.word	1203982336
 2126 0058 CDCCCC3D 		.word	1036831949
 2127 005c CDCCCC3D 		.word	1036831949
 2128 0060 CDCCCC3D 		.word	1036831949
 2129 0064 CDCCCC3D 		.word	1036831949
 2130 0068 CDCCCC3D 		.word	1036831949
 2131 006c CDCCCC3D 		.word	1036831949
 2132 0070 0000C842 		.word	1120403456
 2133 0074 CDCCCC3D 		.word	1036831949
 2134 0078 CDCCCC3D 		.word	1036831949
 2135 007c CDCCCC3D 		.word	1036831949
 2136 0080 CDCCCC3D 		.word	1036831949
 2137 0084 CDCCCC3D 		.word	1036831949
 2138 0088 CDCCCC3D 		.word	1036831949
 2139 008c 0000C842 		.word	1120403456
 2140              		.section	.rodata.IMU_QuaternionEKF_F,"a"
 2141              		.align	2
 2142              		.set	.LANCHOR16,. + 0
 2145              	IMU_QuaternionEKF_F:
 2146 0000 0000803F 		.word	1065353216
 2147 0004 00000000 		.word	0
 2148 0008 00000000 		.word	0
 2149 000c 00000000 		.word	0
 2150 0010 00000000 		.word	0
 2151 0014 00000000 		.word	0
 2152 0018 00000000 		.word	0
 2153 001c 0000803F 		.word	1065353216
 2154 0020 00000000 		.word	0
 2155 0024 00000000 		.word	0
 2156 0028 00000000 		.word	0
 2157 002c 00000000 		.word	0
 2158 0030 00000000 		.word	0
 2159 0034 00000000 		.word	0
 2160 0038 0000803F 		.word	1065353216
 2161 003c 00000000 		.word	0
 2162 0040 00000000 		.word	0
 2163 0044 00000000 		.word	0
 2164 0048 00000000 		.word	0
 2165 004c 00000000 		.word	0
 2166 0050 00000000 		.word	0
 2167 0054 0000803F 		.word	1065353216
 2168 0058 00000000 		.word	0
 2169 005c 00000000 		.word	0
 2170 0060 00000000 		.word	0
 2171 0064 00000000 		.word	0
 2172 0068 00000000 		.word	0
 2173 006c 00000000 		.word	0
 2174 0070 0000803F 		.word	1065353216
 2175 0074 00000000 		.word	0
 2176 0078 00000000 		.word	0
 2177 007c 00000000 		.word	0
 2178 0080 00000000 		.word	0
ARM GAS  C:\Users\86152\AppData\Local\Temp\ccw7UxVh.s 			page 60


 2179 0084 00000000 		.word	0
 2180 0088 00000000 		.word	0
 2181 008c 0000803F 		.word	1065353216
 2182              		.text
 2183              	.Letext0:
 2184              		.file 2 "c:\\program files (x86)\\gnu arm embedded toolchain\\10 2021.10\\arm-none-eabi\\include\\
 2185              		.file 3 "c:\\program files (x86)\\gnu arm embedded toolchain\\10 2021.10\\arm-none-eabi\\include\\
 2186              		.file 4 "Components/Algorithm/Include/arm_math.h"
 2187              		.file 5 "Components/kalman_filter.h"
 2188              		.file 6 "Components/Algorithm/QuaternionEKF.h"
 2189              		.file 7 "c:\\program files (x86)\\gnu arm embedded toolchain\\10 2021.10\\arm-none-eabi\\include\\
 2190              		.file 8 "<built-in>"
ARM GAS  C:\Users\86152\AppData\Local\Temp\ccw7UxVh.s 			page 61

