ARM GAS  C:\Users\86152\AppData\Local\Temp\cc0vq2qg.s 			page 1


   1              		.cpu cortex-m4
   2              		.arch armv7e-m
   3              		.fpu fpv4-sp-d16
   4              		.eabi_attribute 27, 1
   5              		.eabi_attribute 28, 1
   6              		.eabi_attribute 20, 1
   7              		.eabi_attribute 21, 1
   8              		.eabi_attribute 23, 3
   9              		.eabi_attribute 24, 1
  10              		.eabi_attribute 25, 1
  11              		.eabi_attribute 26, 1
  12              		.eabi_attribute 30, 1
  13              		.eabi_attribute 34, 1
  14              		.eabi_attribute 18, 4
  15              		.file	"stm32f4xx_it.c"
  16              		.text
  17              	.Ltext0:
  18              		.cfi_sections	.debug_frame
  19              		.section	.text.NMI_Handler,"ax",%progbits
  20              		.align	1
  21              		.global	NMI_Handler
  22              		.syntax unified
  23              		.thumb
  24              		.thumb_func
  26              	NMI_Handler:
  27              	.LFB130:
  28              		.file 1 "Core/Src/stm32f4xx_it.c"
   1:Core/Src/stm32f4xx_it.c **** /* USER CODE BEGIN Header */
   2:Core/Src/stm32f4xx_it.c **** /**
   3:Core/Src/stm32f4xx_it.c ****   ******************************************************************************
   4:Core/Src/stm32f4xx_it.c ****   * @file    stm32f4xx_it.c
   5:Core/Src/stm32f4xx_it.c ****   * @brief   Interrupt Service Routines.
   6:Core/Src/stm32f4xx_it.c ****   ******************************************************************************
   7:Core/Src/stm32f4xx_it.c ****   * @attention
   8:Core/Src/stm32f4xx_it.c ****   *
   9:Core/Src/stm32f4xx_it.c ****   * <h2><center>&copy; Copyright (c) 2023 STMicroelectronics.
  10:Core/Src/stm32f4xx_it.c ****   * All rights reserved.</center></h2>
  11:Core/Src/stm32f4xx_it.c ****   *
  12:Core/Src/stm32f4xx_it.c ****   * This software component is licensed by ST under Ultimate Liberty license
  13:Core/Src/stm32f4xx_it.c ****   * SLA0044, the "License"; You may not use this file except in compliance with
  14:Core/Src/stm32f4xx_it.c ****   * the License. You may obtain a copy of the License at:
  15:Core/Src/stm32f4xx_it.c ****   *                             www.st.com/SLA0044
  16:Core/Src/stm32f4xx_it.c ****   *
  17:Core/Src/stm32f4xx_it.c ****   ******************************************************************************
  18:Core/Src/stm32f4xx_it.c ****   */
  19:Core/Src/stm32f4xx_it.c **** /* USER CODE END Header */
  20:Core/Src/stm32f4xx_it.c **** 
  21:Core/Src/stm32f4xx_it.c **** /* Includes ------------------------------------------------------------------*/
  22:Core/Src/stm32f4xx_it.c **** #include "main.h"
  23:Core/Src/stm32f4xx_it.c **** #include "stm32f4xx_it.h"
  24:Core/Src/stm32f4xx_it.c **** /* Private includes ----------------------------------------------------------*/
  25:Core/Src/stm32f4xx_it.c **** /* USER CODE BEGIN Includes */
  26:Core/Src/stm32f4xx_it.c **** /* USER CODE END Includes */
  27:Core/Src/stm32f4xx_it.c **** 
  28:Core/Src/stm32f4xx_it.c **** /* Private typedef -----------------------------------------------------------*/
  29:Core/Src/stm32f4xx_it.c **** /* USER CODE BEGIN TD */
  30:Core/Src/stm32f4xx_it.c **** 
ARM GAS  C:\Users\86152\AppData\Local\Temp\cc0vq2qg.s 			page 2


  31:Core/Src/stm32f4xx_it.c **** /* USER CODE END TD */
  32:Core/Src/stm32f4xx_it.c **** 
  33:Core/Src/stm32f4xx_it.c **** /* Private define ------------------------------------------------------------*/
  34:Core/Src/stm32f4xx_it.c **** /* USER CODE BEGIN PD */
  35:Core/Src/stm32f4xx_it.c **** 
  36:Core/Src/stm32f4xx_it.c **** /* USER CODE END PD */
  37:Core/Src/stm32f4xx_it.c **** 
  38:Core/Src/stm32f4xx_it.c **** /* Private macro -------------------------------------------------------------*/
  39:Core/Src/stm32f4xx_it.c **** /* USER CODE BEGIN PM */
  40:Core/Src/stm32f4xx_it.c **** 
  41:Core/Src/stm32f4xx_it.c **** /* USER CODE END PM */
  42:Core/Src/stm32f4xx_it.c **** 
  43:Core/Src/stm32f4xx_it.c **** /* Private variables ---------------------------------------------------------*/
  44:Core/Src/stm32f4xx_it.c **** /* USER CODE BEGIN PV */
  45:Core/Src/stm32f4xx_it.c **** 
  46:Core/Src/stm32f4xx_it.c **** /* USER CODE END PV */
  47:Core/Src/stm32f4xx_it.c **** 
  48:Core/Src/stm32f4xx_it.c **** /* Private function prototypes -----------------------------------------------*/
  49:Core/Src/stm32f4xx_it.c **** /* USER CODE BEGIN PFP */
  50:Core/Src/stm32f4xx_it.c **** 
  51:Core/Src/stm32f4xx_it.c **** /* USER CODE END PFP */
  52:Core/Src/stm32f4xx_it.c **** 
  53:Core/Src/stm32f4xx_it.c **** /* Private user code ---------------------------------------------------------*/
  54:Core/Src/stm32f4xx_it.c **** /* USER CODE BEGIN 0 */
  55:Core/Src/stm32f4xx_it.c **** 
  56:Core/Src/stm32f4xx_it.c **** /* USER CODE END 0 */
  57:Core/Src/stm32f4xx_it.c **** 
  58:Core/Src/stm32f4xx_it.c **** /* External variables --------------------------------------------------------*/
  59:Core/Src/stm32f4xx_it.c **** extern CAN_HandleTypeDef hcan1;
  60:Core/Src/stm32f4xx_it.c **** extern CAN_HandleTypeDef hcan2;
  61:Core/Src/stm32f4xx_it.c **** extern DMA_HandleTypeDef hdma_usart1_rx;
  62:Core/Src/stm32f4xx_it.c **** extern DMA_HandleTypeDef hdma_usart1_tx;
  63:Core/Src/stm32f4xx_it.c **** extern DMA_HandleTypeDef hdma_usart3_rx;
  64:Core/Src/stm32f4xx_it.c **** extern UART_HandleTypeDef huart1;
  65:Core/Src/stm32f4xx_it.c **** extern UART_HandleTypeDef huart3;
  66:Core/Src/stm32f4xx_it.c **** extern TIM_HandleTypeDef htim2;
  67:Core/Src/stm32f4xx_it.c **** 
  68:Core/Src/stm32f4xx_it.c **** /* USER CODE BEGIN EV */
  69:Core/Src/stm32f4xx_it.c **** 
  70:Core/Src/stm32f4xx_it.c **** /* USER CODE END EV */
  71:Core/Src/stm32f4xx_it.c **** 
  72:Core/Src/stm32f4xx_it.c **** /******************************************************************************/
  73:Core/Src/stm32f4xx_it.c **** /*           Cortex-M4 Processor Interruption and Exception Handlers          */
  74:Core/Src/stm32f4xx_it.c **** /******************************************************************************/
  75:Core/Src/stm32f4xx_it.c **** /**
  76:Core/Src/stm32f4xx_it.c ****   * @brief This function handles Non maskable interrupt.
  77:Core/Src/stm32f4xx_it.c ****   */
  78:Core/Src/stm32f4xx_it.c **** void NMI_Handler(void)
  79:Core/Src/stm32f4xx_it.c **** {
  29              		.loc 1 79 1 view -0
  30              		.cfi_startproc
  31              		@ args = 0, pretend = 0, frame = 0
  32              		@ frame_needed = 0, uses_anonymous_args = 0
  33              		@ link register save eliminated.
  80:Core/Src/stm32f4xx_it.c ****   /* USER CODE BEGIN NonMaskableInt_IRQn 0 */
  81:Core/Src/stm32f4xx_it.c **** 
  82:Core/Src/stm32f4xx_it.c ****   /* USER CODE END NonMaskableInt_IRQn 0 */
ARM GAS  C:\Users\86152\AppData\Local\Temp\cc0vq2qg.s 			page 3


  83:Core/Src/stm32f4xx_it.c ****   /* USER CODE BEGIN NonMaskableInt_IRQn 1 */
  84:Core/Src/stm32f4xx_it.c **** 
  85:Core/Src/stm32f4xx_it.c ****   /* USER CODE END NonMaskableInt_IRQn 1 */
  86:Core/Src/stm32f4xx_it.c **** }
  34              		.loc 1 86 1 view .LVU1
  35 0000 7047     		bx	lr
  36              		.cfi_endproc
  37              	.LFE130:
  39              		.section	.text.HardFault_Handler,"ax",%progbits
  40              		.align	1
  41              		.global	HardFault_Handler
  42              		.syntax unified
  43              		.thumb
  44              		.thumb_func
  46              	HardFault_Handler:
  47              	.LFB131:
  87:Core/Src/stm32f4xx_it.c **** 
  88:Core/Src/stm32f4xx_it.c **** /**
  89:Core/Src/stm32f4xx_it.c ****   * @brief This function handles Hard fault interrupt.
  90:Core/Src/stm32f4xx_it.c ****   */
  91:Core/Src/stm32f4xx_it.c **** void HardFault_Handler(void)
  92:Core/Src/stm32f4xx_it.c **** {
  48              		.loc 1 92 1 view -0
  49              		.cfi_startproc
  50              		@ Volatile: function does not return.
  51              		@ args = 0, pretend = 0, frame = 0
  52              		@ frame_needed = 0, uses_anonymous_args = 0
  53              		@ link register save eliminated.
  54              	.L3:
  93:Core/Src/stm32f4xx_it.c ****   /* USER CODE BEGIN HardFault_IRQn 0 */
  94:Core/Src/stm32f4xx_it.c **** 
  95:Core/Src/stm32f4xx_it.c ****   /* USER CODE END HardFault_IRQn 0 */
  96:Core/Src/stm32f4xx_it.c ****   while (1)
  55              		.loc 1 96 3 discriminator 1 view .LVU3
  97:Core/Src/stm32f4xx_it.c ****   {
  98:Core/Src/stm32f4xx_it.c ****     /* USER CODE BEGIN W1_HardFault_IRQn 0 */
  99:Core/Src/stm32f4xx_it.c ****     /* USER CODE END W1_HardFault_IRQn 0 */
 100:Core/Src/stm32f4xx_it.c ****   }
  56              		.loc 1 100 3 discriminator 1 view .LVU4
  96:Core/Src/stm32f4xx_it.c ****   {
  57              		.loc 1 96 9 discriminator 1 view .LVU5
  58 0000 FEE7     		b	.L3
  59              		.cfi_endproc
  60              	.LFE131:
  62              		.section	.text.MemManage_Handler,"ax",%progbits
  63              		.align	1
  64              		.global	MemManage_Handler
  65              		.syntax unified
  66              		.thumb
  67              		.thumb_func
  69              	MemManage_Handler:
  70              	.LFB132:
 101:Core/Src/stm32f4xx_it.c **** }
 102:Core/Src/stm32f4xx_it.c **** 
 103:Core/Src/stm32f4xx_it.c **** /**
 104:Core/Src/stm32f4xx_it.c ****   * @brief This function handles Memory management fault.
 105:Core/Src/stm32f4xx_it.c ****   */
ARM GAS  C:\Users\86152\AppData\Local\Temp\cc0vq2qg.s 			page 4


 106:Core/Src/stm32f4xx_it.c **** void MemManage_Handler(void)
 107:Core/Src/stm32f4xx_it.c **** {
  71              		.loc 1 107 1 view -0
  72              		.cfi_startproc
  73              		@ Volatile: function does not return.
  74              		@ args = 0, pretend = 0, frame = 0
  75              		@ frame_needed = 0, uses_anonymous_args = 0
  76              		@ link register save eliminated.
  77              	.L5:
 108:Core/Src/stm32f4xx_it.c ****   /* USER CODE BEGIN MemoryManagement_IRQn 0 */
 109:Core/Src/stm32f4xx_it.c **** 
 110:Core/Src/stm32f4xx_it.c ****   /* USER CODE END MemoryManagement_IRQn 0 */
 111:Core/Src/stm32f4xx_it.c ****   while (1)
  78              		.loc 1 111 3 discriminator 1 view .LVU7
 112:Core/Src/stm32f4xx_it.c ****   {
 113:Core/Src/stm32f4xx_it.c ****     /* USER CODE BEGIN W1_MemoryManagement_IRQn 0 */
 114:Core/Src/stm32f4xx_it.c ****     /* USER CODE END W1_MemoryManagement_IRQn 0 */
 115:Core/Src/stm32f4xx_it.c ****   }
  79              		.loc 1 115 3 discriminator 1 view .LVU8
 111:Core/Src/stm32f4xx_it.c ****   {
  80              		.loc 1 111 9 discriminator 1 view .LVU9
  81 0000 FEE7     		b	.L5
  82              		.cfi_endproc
  83              	.LFE132:
  85              		.section	.text.BusFault_Handler,"ax",%progbits
  86              		.align	1
  87              		.global	BusFault_Handler
  88              		.syntax unified
  89              		.thumb
  90              		.thumb_func
  92              	BusFault_Handler:
  93              	.LFB133:
 116:Core/Src/stm32f4xx_it.c **** }
 117:Core/Src/stm32f4xx_it.c **** 
 118:Core/Src/stm32f4xx_it.c **** /**
 119:Core/Src/stm32f4xx_it.c ****   * @brief This function handles Pre-fetch fault, memory access fault.
 120:Core/Src/stm32f4xx_it.c ****   */
 121:Core/Src/stm32f4xx_it.c **** void BusFault_Handler(void)
 122:Core/Src/stm32f4xx_it.c **** {
  94              		.loc 1 122 1 view -0
  95              		.cfi_startproc
  96              		@ Volatile: function does not return.
  97              		@ args = 0, pretend = 0, frame = 0
  98              		@ frame_needed = 0, uses_anonymous_args = 0
  99              		@ link register save eliminated.
 100              	.L7:
 123:Core/Src/stm32f4xx_it.c ****   /* USER CODE BEGIN BusFault_IRQn 0 */
 124:Core/Src/stm32f4xx_it.c **** 
 125:Core/Src/stm32f4xx_it.c ****   /* USER CODE END BusFault_IRQn 0 */
 126:Core/Src/stm32f4xx_it.c ****   while (1)
 101              		.loc 1 126 3 discriminator 1 view .LVU11
 127:Core/Src/stm32f4xx_it.c ****   {
 128:Core/Src/stm32f4xx_it.c ****     /* USER CODE BEGIN W1_BusFault_IRQn 0 */
 129:Core/Src/stm32f4xx_it.c ****     /* USER CODE END W1_BusFault_IRQn 0 */
 130:Core/Src/stm32f4xx_it.c ****   }
 102              		.loc 1 130 3 discriminator 1 view .LVU12
 126:Core/Src/stm32f4xx_it.c ****   {
ARM GAS  C:\Users\86152\AppData\Local\Temp\cc0vq2qg.s 			page 5


 103              		.loc 1 126 9 discriminator 1 view .LVU13
 104 0000 FEE7     		b	.L7
 105              		.cfi_endproc
 106              	.LFE133:
 108              		.section	.text.UsageFault_Handler,"ax",%progbits
 109              		.align	1
 110              		.global	UsageFault_Handler
 111              		.syntax unified
 112              		.thumb
 113              		.thumb_func
 115              	UsageFault_Handler:
 116              	.LFB134:
 131:Core/Src/stm32f4xx_it.c **** }
 132:Core/Src/stm32f4xx_it.c **** 
 133:Core/Src/stm32f4xx_it.c **** /**
 134:Core/Src/stm32f4xx_it.c ****   * @brief This function handles Undefined instruction or illegal state.
 135:Core/Src/stm32f4xx_it.c ****   */
 136:Core/Src/stm32f4xx_it.c **** void UsageFault_Handler(void)
 137:Core/Src/stm32f4xx_it.c **** {
 117              		.loc 1 137 1 view -0
 118              		.cfi_startproc
 119              		@ Volatile: function does not return.
 120              		@ args = 0, pretend = 0, frame = 0
 121              		@ frame_needed = 0, uses_anonymous_args = 0
 122              		@ link register save eliminated.
 123              	.L9:
 138:Core/Src/stm32f4xx_it.c ****   /* USER CODE BEGIN UsageFault_IRQn 0 */
 139:Core/Src/stm32f4xx_it.c **** 
 140:Core/Src/stm32f4xx_it.c ****   /* USER CODE END UsageFault_IRQn 0 */
 141:Core/Src/stm32f4xx_it.c ****   while (1)
 124              		.loc 1 141 3 discriminator 1 view .LVU15
 142:Core/Src/stm32f4xx_it.c ****   {
 143:Core/Src/stm32f4xx_it.c ****     /* USER CODE BEGIN W1_UsageFault_IRQn 0 */
 144:Core/Src/stm32f4xx_it.c ****     /* USER CODE END W1_UsageFault_IRQn 0 */
 145:Core/Src/stm32f4xx_it.c ****   }
 125              		.loc 1 145 3 discriminator 1 view .LVU16
 141:Core/Src/stm32f4xx_it.c ****   {
 126              		.loc 1 141 9 discriminator 1 view .LVU17
 127 0000 FEE7     		b	.L9
 128              		.cfi_endproc
 129              	.LFE134:
 131              		.section	.text.DebugMon_Handler,"ax",%progbits
 132              		.align	1
 133              		.global	DebugMon_Handler
 134              		.syntax unified
 135              		.thumb
 136              		.thumb_func
 138              	DebugMon_Handler:
 139              	.LFB135:
 146:Core/Src/stm32f4xx_it.c **** }
 147:Core/Src/stm32f4xx_it.c **** 
 148:Core/Src/stm32f4xx_it.c **** /**
 149:Core/Src/stm32f4xx_it.c ****   * @brief This function handles Debug monitor.
 150:Core/Src/stm32f4xx_it.c ****   */
 151:Core/Src/stm32f4xx_it.c **** void DebugMon_Handler(void)
 152:Core/Src/stm32f4xx_it.c **** {
 140              		.loc 1 152 1 view -0
ARM GAS  C:\Users\86152\AppData\Local\Temp\cc0vq2qg.s 			page 6


 141              		.cfi_startproc
 142              		@ args = 0, pretend = 0, frame = 0
 143              		@ frame_needed = 0, uses_anonymous_args = 0
 144              		@ link register save eliminated.
 153:Core/Src/stm32f4xx_it.c ****   /* USER CODE BEGIN DebugMonitor_IRQn 0 */
 154:Core/Src/stm32f4xx_it.c **** 
 155:Core/Src/stm32f4xx_it.c ****   /* USER CODE END DebugMonitor_IRQn 0 */
 156:Core/Src/stm32f4xx_it.c ****   /* USER CODE BEGIN DebugMonitor_IRQn 1 */
 157:Core/Src/stm32f4xx_it.c **** 
 158:Core/Src/stm32f4xx_it.c ****   /* USER CODE END DebugMonitor_IRQn 1 */
 159:Core/Src/stm32f4xx_it.c **** }
 145              		.loc 1 159 1 view .LVU19
 146 0000 7047     		bx	lr
 147              		.cfi_endproc
 148              	.LFE135:
 150              		.section	.text.EXTI3_IRQHandler,"ax",%progbits
 151              		.align	1
 152              		.global	EXTI3_IRQHandler
 153              		.syntax unified
 154              		.thumb
 155              		.thumb_func
 157              	EXTI3_IRQHandler:
 158              	.LFB136:
 160:Core/Src/stm32f4xx_it.c **** 
 161:Core/Src/stm32f4xx_it.c **** /******************************************************************************/
 162:Core/Src/stm32f4xx_it.c **** /* STM32F4xx Peripheral Interrupt Handlers                                    */
 163:Core/Src/stm32f4xx_it.c **** /* Add here the Interrupt Handlers for the used peripherals.                  */
 164:Core/Src/stm32f4xx_it.c **** /* For the available peripheral interrupt handler names,                      */
 165:Core/Src/stm32f4xx_it.c **** /* please refer to the startup file (startup_stm32f4xx.s).                    */
 166:Core/Src/stm32f4xx_it.c **** /******************************************************************************/
 167:Core/Src/stm32f4xx_it.c **** 
 168:Core/Src/stm32f4xx_it.c **** /**
 169:Core/Src/stm32f4xx_it.c ****   * @brief This function handles EXTI line3 interrupt.
 170:Core/Src/stm32f4xx_it.c ****   */
 171:Core/Src/stm32f4xx_it.c **** void EXTI3_IRQHandler(void)
 172:Core/Src/stm32f4xx_it.c **** {
 159              		.loc 1 172 1 view -0
 160              		.cfi_startproc
 161              		@ args = 0, pretend = 0, frame = 0
 162              		@ frame_needed = 0, uses_anonymous_args = 0
 163 0000 08B5     		push	{r3, lr}
 164              	.LCFI0:
 165              		.cfi_def_cfa_offset 8
 166              		.cfi_offset 3, -8
 167              		.cfi_offset 14, -4
 173:Core/Src/stm32f4xx_it.c ****   /* USER CODE BEGIN EXTI3_IRQn 0 */
 174:Core/Src/stm32f4xx_it.c **** 
 175:Core/Src/stm32f4xx_it.c ****   /* USER CODE END EXTI3_IRQn 0 */
 176:Core/Src/stm32f4xx_it.c ****   HAL_GPIO_EXTI_IRQHandler(GPIO_PIN_3);
 168              		.loc 1 176 3 view .LVU21
 169 0002 0820     		movs	r0, #8
 170 0004 FFF7FEFF 		bl	HAL_GPIO_EXTI_IRQHandler
 171              	.LVL0:
 177:Core/Src/stm32f4xx_it.c ****   /* USER CODE BEGIN EXTI3_IRQn 1 */
 178:Core/Src/stm32f4xx_it.c **** 
 179:Core/Src/stm32f4xx_it.c ****   /* USER CODE END EXTI3_IRQn 1 */
 180:Core/Src/stm32f4xx_it.c **** }
ARM GAS  C:\Users\86152\AppData\Local\Temp\cc0vq2qg.s 			page 7


 172              		.loc 1 180 1 is_stmt 0 view .LVU22
 173 0008 08BD     		pop	{r3, pc}
 174              		.cfi_endproc
 175              	.LFE136:
 177              		.section	.text.EXTI4_IRQHandler,"ax",%progbits
 178              		.align	1
 179              		.global	EXTI4_IRQHandler
 180              		.syntax unified
 181              		.thumb
 182              		.thumb_func
 184              	EXTI4_IRQHandler:
 185              	.LFB137:
 181:Core/Src/stm32f4xx_it.c **** 
 182:Core/Src/stm32f4xx_it.c **** /**
 183:Core/Src/stm32f4xx_it.c ****   * @brief This function handles EXTI line4 interrupt.
 184:Core/Src/stm32f4xx_it.c ****   */
 185:Core/Src/stm32f4xx_it.c **** void EXTI4_IRQHandler(void)
 186:Core/Src/stm32f4xx_it.c **** {
 186              		.loc 1 186 1 is_stmt 1 view -0
 187              		.cfi_startproc
 188              		@ args = 0, pretend = 0, frame = 0
 189              		@ frame_needed = 0, uses_anonymous_args = 0
 190 0000 08B5     		push	{r3, lr}
 191              	.LCFI1:
 192              		.cfi_def_cfa_offset 8
 193              		.cfi_offset 3, -8
 194              		.cfi_offset 14, -4
 187:Core/Src/stm32f4xx_it.c ****   /* USER CODE BEGIN EXTI4_IRQn 0 */
 188:Core/Src/stm32f4xx_it.c **** 
 189:Core/Src/stm32f4xx_it.c ****   /* USER CODE END EXTI4_IRQn 0 */
 190:Core/Src/stm32f4xx_it.c ****   HAL_GPIO_EXTI_IRQHandler(GPIO_PIN_4);
 195              		.loc 1 190 3 view .LVU24
 196 0002 1020     		movs	r0, #16
 197 0004 FFF7FEFF 		bl	HAL_GPIO_EXTI_IRQHandler
 198              	.LVL1:
 191:Core/Src/stm32f4xx_it.c ****   /* USER CODE BEGIN EXTI4_IRQn 1 */
 192:Core/Src/stm32f4xx_it.c **** 
 193:Core/Src/stm32f4xx_it.c ****   /* USER CODE END EXTI4_IRQn 1 */
 194:Core/Src/stm32f4xx_it.c **** }
 199              		.loc 1 194 1 is_stmt 0 view .LVU25
 200 0008 08BD     		pop	{r3, pc}
 201              		.cfi_endproc
 202              	.LFE137:
 204              		.section	.text.DMA1_Stream1_IRQHandler,"ax",%progbits
 205              		.align	1
 206              		.global	DMA1_Stream1_IRQHandler
 207              		.syntax unified
 208              		.thumb
 209              		.thumb_func
 211              	DMA1_Stream1_IRQHandler:
 212              	.LFB138:
 195:Core/Src/stm32f4xx_it.c **** 
 196:Core/Src/stm32f4xx_it.c **** /**
 197:Core/Src/stm32f4xx_it.c ****   * @brief This function handles DMA1 stream1 global interrupt.
 198:Core/Src/stm32f4xx_it.c ****   */
 199:Core/Src/stm32f4xx_it.c **** void DMA1_Stream1_IRQHandler(void)
 200:Core/Src/stm32f4xx_it.c **** {
ARM GAS  C:\Users\86152\AppData\Local\Temp\cc0vq2qg.s 			page 8


 213              		.loc 1 200 1 is_stmt 1 view -0
 214              		.cfi_startproc
 215              		@ args = 0, pretend = 0, frame = 0
 216              		@ frame_needed = 0, uses_anonymous_args = 0
 217 0000 08B5     		push	{r3, lr}
 218              	.LCFI2:
 219              		.cfi_def_cfa_offset 8
 220              		.cfi_offset 3, -8
 221              		.cfi_offset 14, -4
 201:Core/Src/stm32f4xx_it.c ****   /* USER CODE BEGIN DMA1_Stream1_IRQn 0 */
 202:Core/Src/stm32f4xx_it.c **** 
 203:Core/Src/stm32f4xx_it.c ****   /* USER CODE END DMA1_Stream1_IRQn 0 */
 204:Core/Src/stm32f4xx_it.c ****   HAL_DMA_IRQHandler(&hdma_usart3_rx);
 222              		.loc 1 204 3 view .LVU27
 223 0002 0248     		ldr	r0, .L17
 224 0004 FFF7FEFF 		bl	HAL_DMA_IRQHandler
 225              	.LVL2:
 205:Core/Src/stm32f4xx_it.c ****   /* USER CODE BEGIN DMA1_Stream1_IRQn 1 */
 206:Core/Src/stm32f4xx_it.c **** 
 207:Core/Src/stm32f4xx_it.c ****   /* USER CODE END DMA1_Stream1_IRQn 1 */
 208:Core/Src/stm32f4xx_it.c **** }
 226              		.loc 1 208 1 is_stmt 0 view .LVU28
 227 0008 08BD     		pop	{r3, pc}
 228              	.L18:
 229 000a 00BF     		.align	2
 230              	.L17:
 231 000c 00000000 		.word	hdma_usart3_rx
 232              		.cfi_endproc
 233              	.LFE138:
 235              		.section	.text.CAN1_RX0_IRQHandler,"ax",%progbits
 236              		.align	1
 237              		.global	CAN1_RX0_IRQHandler
 238              		.syntax unified
 239              		.thumb
 240              		.thumb_func
 242              	CAN1_RX0_IRQHandler:
 243              	.LFB139:
 209:Core/Src/stm32f4xx_it.c **** 
 210:Core/Src/stm32f4xx_it.c **** /**
 211:Core/Src/stm32f4xx_it.c ****   * @brief This function handles CAN1 RX0 interrupts.
 212:Core/Src/stm32f4xx_it.c ****   */
 213:Core/Src/stm32f4xx_it.c **** void CAN1_RX0_IRQHandler(void)
 214:Core/Src/stm32f4xx_it.c **** {
 244              		.loc 1 214 1 is_stmt 1 view -0
 245              		.cfi_startproc
 246              		@ args = 0, pretend = 0, frame = 0
 247              		@ frame_needed = 0, uses_anonymous_args = 0
 248 0000 08B5     		push	{r3, lr}
 249              	.LCFI3:
 250              		.cfi_def_cfa_offset 8
 251              		.cfi_offset 3, -8
 252              		.cfi_offset 14, -4
 215:Core/Src/stm32f4xx_it.c ****   /* USER CODE BEGIN CAN1_RX0_IRQn 0 */
 216:Core/Src/stm32f4xx_it.c **** 
 217:Core/Src/stm32f4xx_it.c ****   /* USER CODE END CAN1_RX0_IRQn 0 */
 218:Core/Src/stm32f4xx_it.c ****   HAL_CAN_IRQHandler(&hcan1);
 253              		.loc 1 218 3 view .LVU30
ARM GAS  C:\Users\86152\AppData\Local\Temp\cc0vq2qg.s 			page 9


 254 0002 0248     		ldr	r0, .L21
 255 0004 FFF7FEFF 		bl	HAL_CAN_IRQHandler
 256              	.LVL3:
 219:Core/Src/stm32f4xx_it.c ****   /* USER CODE BEGIN CAN1_RX0_IRQn 1 */
 220:Core/Src/stm32f4xx_it.c **** 
 221:Core/Src/stm32f4xx_it.c ****   /* USER CODE END CAN1_RX0_IRQn 1 */
 222:Core/Src/stm32f4xx_it.c **** }
 257              		.loc 1 222 1 is_stmt 0 view .LVU31
 258 0008 08BD     		pop	{r3, pc}
 259              	.L22:
 260 000a 00BF     		.align	2
 261              	.L21:
 262 000c 00000000 		.word	hcan1
 263              		.cfi_endproc
 264              	.LFE139:
 266              		.section	.text.EXTI9_5_IRQHandler,"ax",%progbits
 267              		.align	1
 268              		.global	EXTI9_5_IRQHandler
 269              		.syntax unified
 270              		.thumb
 271              		.thumb_func
 273              	EXTI9_5_IRQHandler:
 274              	.LFB140:
 223:Core/Src/stm32f4xx_it.c **** 
 224:Core/Src/stm32f4xx_it.c **** /**
 225:Core/Src/stm32f4xx_it.c ****   * @brief This function handles EXTI line[9:5] interrupts.
 226:Core/Src/stm32f4xx_it.c ****   */
 227:Core/Src/stm32f4xx_it.c **** void EXTI9_5_IRQHandler(void)
 228:Core/Src/stm32f4xx_it.c **** {
 275              		.loc 1 228 1 is_stmt 1 view -0
 276              		.cfi_startproc
 277              		@ args = 0, pretend = 0, frame = 0
 278              		@ frame_needed = 0, uses_anonymous_args = 0
 279 0000 08B5     		push	{r3, lr}
 280              	.LCFI4:
 281              		.cfi_def_cfa_offset 8
 282              		.cfi_offset 3, -8
 283              		.cfi_offset 14, -4
 229:Core/Src/stm32f4xx_it.c ****   /* USER CODE BEGIN EXTI9_5_IRQn 0 */
 230:Core/Src/stm32f4xx_it.c **** 
 231:Core/Src/stm32f4xx_it.c ****   /* USER CODE END EXTI9_5_IRQn 0 */
 232:Core/Src/stm32f4xx_it.c ****   HAL_GPIO_EXTI_IRQHandler(GPIO_PIN_5);
 284              		.loc 1 232 3 view .LVU33
 285 0002 2020     		movs	r0, #32
 286 0004 FFF7FEFF 		bl	HAL_GPIO_EXTI_IRQHandler
 287              	.LVL4:
 233:Core/Src/stm32f4xx_it.c ****   /* USER CODE BEGIN EXTI9_5_IRQn 1 */
 234:Core/Src/stm32f4xx_it.c **** 
 235:Core/Src/stm32f4xx_it.c ****   /* USER CODE END EXTI9_5_IRQn 1 */
 236:Core/Src/stm32f4xx_it.c **** }
 288              		.loc 1 236 1 is_stmt 0 view .LVU34
 289 0008 08BD     		pop	{r3, pc}
 290              		.cfi_endproc
 291              	.LFE140:
 293              		.section	.text.TIM2_IRQHandler,"ax",%progbits
 294              		.align	1
 295              		.global	TIM2_IRQHandler
ARM GAS  C:\Users\86152\AppData\Local\Temp\cc0vq2qg.s 			page 10


 296              		.syntax unified
 297              		.thumb
 298              		.thumb_func
 300              	TIM2_IRQHandler:
 301              	.LFB141:
 237:Core/Src/stm32f4xx_it.c **** 
 238:Core/Src/stm32f4xx_it.c **** /**
 239:Core/Src/stm32f4xx_it.c ****   * @brief This function handles TIM2 global interrupt.
 240:Core/Src/stm32f4xx_it.c ****   */
 241:Core/Src/stm32f4xx_it.c **** void TIM2_IRQHandler(void)
 242:Core/Src/stm32f4xx_it.c **** {
 302              		.loc 1 242 1 is_stmt 1 view -0
 303              		.cfi_startproc
 304              		@ args = 0, pretend = 0, frame = 0
 305              		@ frame_needed = 0, uses_anonymous_args = 0
 306 0000 08B5     		push	{r3, lr}
 307              	.LCFI5:
 308              		.cfi_def_cfa_offset 8
 309              		.cfi_offset 3, -8
 310              		.cfi_offset 14, -4
 243:Core/Src/stm32f4xx_it.c ****   /* USER CODE BEGIN TIM2_IRQn 0 */
 244:Core/Src/stm32f4xx_it.c **** 
 245:Core/Src/stm32f4xx_it.c ****   /* USER CODE END TIM2_IRQn 0 */
 246:Core/Src/stm32f4xx_it.c ****   HAL_TIM_IRQHandler(&htim2);
 311              		.loc 1 246 3 view .LVU36
 312 0002 0248     		ldr	r0, .L27
 313 0004 FFF7FEFF 		bl	HAL_TIM_IRQHandler
 314              	.LVL5:
 247:Core/Src/stm32f4xx_it.c ****   /* USER CODE BEGIN TIM2_IRQn 1 */
 248:Core/Src/stm32f4xx_it.c **** 
 249:Core/Src/stm32f4xx_it.c ****   /* USER CODE END TIM2_IRQn 1 */
 250:Core/Src/stm32f4xx_it.c **** }
 315              		.loc 1 250 1 is_stmt 0 view .LVU37
 316 0008 08BD     		pop	{r3, pc}
 317              	.L28:
 318 000a 00BF     		.align	2
 319              	.L27:
 320 000c 00000000 		.word	htim2
 321              		.cfi_endproc
 322              	.LFE141:
 324              		.section	.text.USART1_IRQHandler,"ax",%progbits
 325              		.align	1
 326              		.global	USART1_IRQHandler
 327              		.syntax unified
 328              		.thumb
 329              		.thumb_func
 331              	USART1_IRQHandler:
 332              	.LFB142:
 251:Core/Src/stm32f4xx_it.c **** 
 252:Core/Src/stm32f4xx_it.c **** /**
 253:Core/Src/stm32f4xx_it.c ****   * @brief This function handles USART1 global interrupt.
 254:Core/Src/stm32f4xx_it.c ****   */
 255:Core/Src/stm32f4xx_it.c **** void USART1_IRQHandler(void)
 256:Core/Src/stm32f4xx_it.c **** {
 333              		.loc 1 256 1 is_stmt 1 view -0
 334              		.cfi_startproc
 335              		@ args = 0, pretend = 0, frame = 0
ARM GAS  C:\Users\86152\AppData\Local\Temp\cc0vq2qg.s 			page 11


 336              		@ frame_needed = 0, uses_anonymous_args = 0
 337 0000 08B5     		push	{r3, lr}
 338              	.LCFI6:
 339              		.cfi_def_cfa_offset 8
 340              		.cfi_offset 3, -8
 341              		.cfi_offset 14, -4
 257:Core/Src/stm32f4xx_it.c ****   /* USER CODE BEGIN USART1_IRQn 0 */
 258:Core/Src/stm32f4xx_it.c **** 
 259:Core/Src/stm32f4xx_it.c ****   /* USER CODE END USART1_IRQn 0 */
 260:Core/Src/stm32f4xx_it.c ****   HAL_UART_IRQHandler(&huart1);
 342              		.loc 1 260 3 view .LVU39
 343 0002 0248     		ldr	r0, .L31
 344 0004 FFF7FEFF 		bl	HAL_UART_IRQHandler
 345              	.LVL6:
 261:Core/Src/stm32f4xx_it.c ****   /* USER CODE BEGIN USART1_IRQn 1 */
 262:Core/Src/stm32f4xx_it.c **** 
 263:Core/Src/stm32f4xx_it.c ****   /* USER CODE END USART1_IRQn 1 */
 264:Core/Src/stm32f4xx_it.c **** }
 346              		.loc 1 264 1 is_stmt 0 view .LVU40
 347 0008 08BD     		pop	{r3, pc}
 348              	.L32:
 349 000a 00BF     		.align	2
 350              	.L31:
 351 000c 00000000 		.word	huart1
 352              		.cfi_endproc
 353              	.LFE142:
 355              		.section	.text.USART3_IRQHandler,"ax",%progbits
 356              		.align	1
 357              		.global	USART3_IRQHandler
 358              		.syntax unified
 359              		.thumb
 360              		.thumb_func
 362              	USART3_IRQHandler:
 363              	.LFB143:
 265:Core/Src/stm32f4xx_it.c **** 
 266:Core/Src/stm32f4xx_it.c **** /**
 267:Core/Src/stm32f4xx_it.c ****   * @brief This function handles USART3 global interrupt.
 268:Core/Src/stm32f4xx_it.c ****   */
 269:Core/Src/stm32f4xx_it.c **** void USART3_IRQHandler(void)
 270:Core/Src/stm32f4xx_it.c **** {
 364              		.loc 1 270 1 is_stmt 1 view -0
 365              		.cfi_startproc
 366              		@ args = 0, pretend = 0, frame = 0
 367              		@ frame_needed = 0, uses_anonymous_args = 0
 368 0000 08B5     		push	{r3, lr}
 369              	.LCFI7:
 370              		.cfi_def_cfa_offset 8
 371              		.cfi_offset 3, -8
 372              		.cfi_offset 14, -4
 271:Core/Src/stm32f4xx_it.c ****   /* USER CODE BEGIN USART3_IRQn 0 */
 272:Core/Src/stm32f4xx_it.c **** 
 273:Core/Src/stm32f4xx_it.c ****   /* USER CODE END USART3_IRQn 0 */
 274:Core/Src/stm32f4xx_it.c ****   HAL_UART_IRQHandler(&huart3);
 373              		.loc 1 274 3 view .LVU42
 374 0002 0248     		ldr	r0, .L35
 375 0004 FFF7FEFF 		bl	HAL_UART_IRQHandler
 376              	.LVL7:
ARM GAS  C:\Users\86152\AppData\Local\Temp\cc0vq2qg.s 			page 12


 275:Core/Src/stm32f4xx_it.c ****   /* USER CODE BEGIN USART3_IRQn 1 */
 276:Core/Src/stm32f4xx_it.c **** 
 277:Core/Src/stm32f4xx_it.c ****   /* USER CODE END USART3_IRQn 1 */
 278:Core/Src/stm32f4xx_it.c **** }
 377              		.loc 1 278 1 is_stmt 0 view .LVU43
 378 0008 08BD     		pop	{r3, pc}
 379              	.L36:
 380 000a 00BF     		.align	2
 381              	.L35:
 382 000c 00000000 		.word	huart3
 383              		.cfi_endproc
 384              	.LFE143:
 386              		.section	.text.DMA2_Stream2_IRQHandler,"ax",%progbits
 387              		.align	1
 388              		.global	DMA2_Stream2_IRQHandler
 389              		.syntax unified
 390              		.thumb
 391              		.thumb_func
 393              	DMA2_Stream2_IRQHandler:
 394              	.LFB144:
 279:Core/Src/stm32f4xx_it.c **** 
 280:Core/Src/stm32f4xx_it.c **** /**
 281:Core/Src/stm32f4xx_it.c ****   * @brief This function handles DMA2 stream2 global interrupt.
 282:Core/Src/stm32f4xx_it.c ****   */
 283:Core/Src/stm32f4xx_it.c **** void DMA2_Stream2_IRQHandler(void)
 284:Core/Src/stm32f4xx_it.c **** {
 395              		.loc 1 284 1 is_stmt 1 view -0
 396              		.cfi_startproc
 397              		@ args = 0, pretend = 0, frame = 0
 398              		@ frame_needed = 0, uses_anonymous_args = 0
 399 0000 08B5     		push	{r3, lr}
 400              	.LCFI8:
 401              		.cfi_def_cfa_offset 8
 402              		.cfi_offset 3, -8
 403              		.cfi_offset 14, -4
 285:Core/Src/stm32f4xx_it.c ****   /* USER CODE BEGIN DMA2_Stream2_IRQn 0 */
 286:Core/Src/stm32f4xx_it.c **** 
 287:Core/Src/stm32f4xx_it.c ****   /* USER CODE END DMA2_Stream2_IRQn 0 */
 288:Core/Src/stm32f4xx_it.c ****   HAL_DMA_IRQHandler(&hdma_usart1_rx);
 404              		.loc 1 288 3 view .LVU45
 405 0002 0248     		ldr	r0, .L39
 406 0004 FFF7FEFF 		bl	HAL_DMA_IRQHandler
 407              	.LVL8:
 289:Core/Src/stm32f4xx_it.c ****   /* USER CODE BEGIN DMA2_Stream2_IRQn 1 */
 290:Core/Src/stm32f4xx_it.c **** 
 291:Core/Src/stm32f4xx_it.c ****   /* USER CODE END DMA2_Stream2_IRQn 1 */
 292:Core/Src/stm32f4xx_it.c **** }
 408              		.loc 1 292 1 is_stmt 0 view .LVU46
 409 0008 08BD     		pop	{r3, pc}
 410              	.L40:
 411 000a 00BF     		.align	2
 412              	.L39:
 413 000c 00000000 		.word	hdma_usart1_rx
 414              		.cfi_endproc
 415              	.LFE144:
 417              		.section	.text.CAN2_RX0_IRQHandler,"ax",%progbits
 418              		.align	1
ARM GAS  C:\Users\86152\AppData\Local\Temp\cc0vq2qg.s 			page 13


 419              		.global	CAN2_RX0_IRQHandler
 420              		.syntax unified
 421              		.thumb
 422              		.thumb_func
 424              	CAN2_RX0_IRQHandler:
 425              	.LFB145:
 293:Core/Src/stm32f4xx_it.c **** 
 294:Core/Src/stm32f4xx_it.c **** /**
 295:Core/Src/stm32f4xx_it.c ****   * @brief This function handles CAN2 RX0 interrupts.
 296:Core/Src/stm32f4xx_it.c ****   */
 297:Core/Src/stm32f4xx_it.c **** void CAN2_RX0_IRQHandler(void)
 298:Core/Src/stm32f4xx_it.c **** {
 426              		.loc 1 298 1 is_stmt 1 view -0
 427              		.cfi_startproc
 428              		@ args = 0, pretend = 0, frame = 0
 429              		@ frame_needed = 0, uses_anonymous_args = 0
 430 0000 08B5     		push	{r3, lr}
 431              	.LCFI9:
 432              		.cfi_def_cfa_offset 8
 433              		.cfi_offset 3, -8
 434              		.cfi_offset 14, -4
 299:Core/Src/stm32f4xx_it.c ****   /* USER CODE BEGIN CAN2_RX0_IRQn 0 */
 300:Core/Src/stm32f4xx_it.c **** 
 301:Core/Src/stm32f4xx_it.c ****   /* USER CODE END CAN2_RX0_IRQn 0 */
 302:Core/Src/stm32f4xx_it.c ****   HAL_CAN_IRQHandler(&hcan2);
 435              		.loc 1 302 3 view .LVU48
 436 0002 0248     		ldr	r0, .L43
 437 0004 FFF7FEFF 		bl	HAL_CAN_IRQHandler
 438              	.LVL9:
 303:Core/Src/stm32f4xx_it.c ****   /* USER CODE BEGIN CAN2_RX0_IRQn 1 */
 304:Core/Src/stm32f4xx_it.c **** 
 305:Core/Src/stm32f4xx_it.c ****   /* USER CODE END CAN2_RX0_IRQn 1 */
 306:Core/Src/stm32f4xx_it.c **** }
 439              		.loc 1 306 1 is_stmt 0 view .LVU49
 440 0008 08BD     		pop	{r3, pc}
 441              	.L44:
 442 000a 00BF     		.align	2
 443              	.L43:
 444 000c 00000000 		.word	hcan2
 445              		.cfi_endproc
 446              	.LFE145:
 448              		.section	.text.DMA2_Stream7_IRQHandler,"ax",%progbits
 449              		.align	1
 450              		.global	DMA2_Stream7_IRQHandler
 451              		.syntax unified
 452              		.thumb
 453              		.thumb_func
 455              	DMA2_Stream7_IRQHandler:
 456              	.LFB146:
 307:Core/Src/stm32f4xx_it.c **** 
 308:Core/Src/stm32f4xx_it.c **** /**
 309:Core/Src/stm32f4xx_it.c ****   * @brief This function handles DMA2 stream7 global interrupt.
 310:Core/Src/stm32f4xx_it.c ****   */
 311:Core/Src/stm32f4xx_it.c **** void DMA2_Stream7_IRQHandler(void)
 312:Core/Src/stm32f4xx_it.c **** {
 457              		.loc 1 312 1 is_stmt 1 view -0
 458              		.cfi_startproc
ARM GAS  C:\Users\86152\AppData\Local\Temp\cc0vq2qg.s 			page 14


 459              		@ args = 0, pretend = 0, frame = 0
 460              		@ frame_needed = 0, uses_anonymous_args = 0
 461 0000 08B5     		push	{r3, lr}
 462              	.LCFI10:
 463              		.cfi_def_cfa_offset 8
 464              		.cfi_offset 3, -8
 465              		.cfi_offset 14, -4
 313:Core/Src/stm32f4xx_it.c ****   /* USER CODE BEGIN DMA2_Stream7_IRQn 0 */
 314:Core/Src/stm32f4xx_it.c **** 
 315:Core/Src/stm32f4xx_it.c ****   /* USER CODE END DMA2_Stream7_IRQn 0 */
 316:Core/Src/stm32f4xx_it.c ****   HAL_DMA_IRQHandler(&hdma_usart1_tx);
 466              		.loc 1 316 3 view .LVU51
 467 0002 0248     		ldr	r0, .L47
 468 0004 FFF7FEFF 		bl	HAL_DMA_IRQHandler
 469              	.LVL10:
 317:Core/Src/stm32f4xx_it.c ****   /* USER CODE BEGIN DMA2_Stream7_IRQn 1 */
 318:Core/Src/stm32f4xx_it.c **** 
 319:Core/Src/stm32f4xx_it.c ****   /* USER CODE END DMA2_Stream7_IRQn 1 */
 320:Core/Src/stm32f4xx_it.c **** }
 470              		.loc 1 320 1 is_stmt 0 view .LVU52
 471 0008 08BD     		pop	{r3, pc}
 472              	.L48:
 473 000a 00BF     		.align	2
 474              	.L47:
 475 000c 00000000 		.word	hdma_usart1_tx
 476              		.cfi_endproc
 477              	.LFE146:
 479              		.text
 480              	.Letext0:
 481              		.file 2 "c:\\program files (x86)\\gnu arm embedded toolchain\\10 2021.10\\arm-none-eabi\\include\\
 482              		.file 3 "c:\\program files (x86)\\gnu arm embedded toolchain\\10 2021.10\\arm-none-eabi\\include\\
 483              		.file 4 "Drivers/CMSIS/Device/ST/STM32F4xx/Include/stm32f407xx.h"
 484              		.file 5 "Drivers/CMSIS/Device/ST/STM32F4xx/Include/stm32f4xx.h"
 485              		.file 6 "Drivers/STM32F4xx_HAL_Driver/Inc/stm32f4xx_hal_def.h"
 486              		.file 7 "Drivers/STM32F4xx_HAL_Driver/Inc/stm32f4xx_hal_dma.h"
 487              		.file 8 "Drivers/STM32F4xx_HAL_Driver/Inc/stm32f4xx_hal_can.h"
 488              		.file 9 "Drivers/STM32F4xx_HAL_Driver/Inc/stm32f4xx_hal_tim.h"
 489              		.file 10 "Drivers/STM32F4xx_HAL_Driver/Inc/stm32f4xx_hal_uart.h"
 490              		.file 11 "Drivers/STM32F4xx_HAL_Driver/Inc/stm32f4xx_hal_gpio.h"
ARM GAS  C:\Users\86152\AppData\Local\Temp\cc0vq2qg.s 			page 15

